
Disassembly of section .init:

0000000000001000 <_init>:
    1000:	f3 0f 1e fa          	endbr64 
    1004:	48 83 ec 08          	sub    rsp,0x8
    1008:	48 8b 05 c9 7f 00 00 	mov    rax,QWORD PTR [rip+0x7fc9]        # 8fd8 <__gmon_start__@Base>
    100f:	48 85 c0             	test   rax,rax
    1012:	74 02                	je     1016 <_init+0x16>
    1014:	ff d0                	call   rax
    1016:	48 83 c4 08          	add    rsp,0x8
    101a:	c3                   	ret    

Disassembly of section .plt:

0000000000001020 <printf@plt-0x10>:
    1020:	ff 35 ca 7f 00 00    	push   QWORD PTR [rip+0x7fca]        # 8ff0 <_GLOBAL_OFFSET_TABLE_+0x8>
    1026:	ff 25 cc 7f 00 00    	jmp    QWORD PTR [rip+0x7fcc]        # 8ff8 <_GLOBAL_OFFSET_TABLE_+0x10>
    102c:	0f 1f 40 00          	nop    DWORD PTR [rax+0x0]

0000000000001030 <printf@plt>:
    1030:	ff 25 ca 7f 00 00    	jmp    QWORD PTR [rip+0x7fca]        # 9000 <printf@GLIBC_2.2.5>
    1036:	68 00 00 00 00       	push   0x0
    103b:	e9 e0 ff ff ff       	jmp    1020 <_init+0x20>

0000000000001040 <argp_parse@plt>:
    1040:	ff 25 c2 7f 00 00    	jmp    QWORD PTR [rip+0x7fc2]        # 9008 <argp_parse@GLIBC_2.2.5>
    1046:	68 01 00 00 00       	push   0x1
    104b:	e9 d0 ff ff ff       	jmp    1020 <_init+0x20>

0000000000001050 <rand@plt>:
    1050:	ff 25 ba 7f 00 00    	jmp    QWORD PTR [rip+0x7fba]        # 9010 <rand@GLIBC_2.2.5>
    1056:	68 02 00 00 00       	push   0x2
    105b:	e9 c0 ff ff ff       	jmp    1020 <_init+0x20>

0000000000001060 <memset@plt>:
    1060:	ff 25 b2 7f 00 00    	jmp    QWORD PTR [rip+0x7fb2]        # 9018 <memset@GLIBC_2.2.5>
    1066:	68 03 00 00 00       	push   0x3
    106b:	e9 b0 ff ff ff       	jmp    1020 <_init+0x20>

0000000000001070 <clock_gettime@plt>:
    1070:	ff 25 aa 7f 00 00    	jmp    QWORD PTR [rip+0x7faa]        # 9020 <clock_gettime@GLIBC_2.17>
    1076:	68 04 00 00 00       	push   0x4
    107b:	e9 a0 ff ff ff       	jmp    1020 <_init+0x20>

0000000000001080 <puts@plt>:
    1080:	ff 25 a2 7f 00 00    	jmp    QWORD PTR [rip+0x7fa2]        # 9028 <puts@GLIBC_2.2.5>
    1086:	68 05 00 00 00       	push   0x5
    108b:	e9 90 ff ff ff       	jmp    1020 <_init+0x20>

0000000000001090 <atoi@plt>:
    1090:	ff 25 9a 7f 00 00    	jmp    QWORD PTR [rip+0x7f9a]        # 9030 <atoi@GLIBC_2.2.5>
    1096:	68 06 00 00 00       	push   0x6
    109b:	e9 80 ff ff ff       	jmp    1020 <_init+0x20>

Disassembly of section .plt.got:

00000000000010a0 <__cxa_finalize@plt>:
    10a0:	ff 25 1a 7f 00 00    	jmp    QWORD PTR [rip+0x7f1a]        # 8fc0 <__cxa_finalize@GLIBC_2.2.5>
    10a6:	66 90                	xchg   ax,ax

Disassembly of section .text:

00000000000010b0 <_start>:
    10b0:	f3 0f 1e fa          	endbr64 
    10b4:	31 ed                	xor    ebp,ebp
    10b6:	49 89 d1             	mov    r9,rdx
    10b9:	5e                   	pop    rsi
    10ba:	48 89 e2             	mov    rdx,rsp
    10bd:	48 83 e4 f0          	and    rsp,0xfffffffffffffff0
    10c1:	50                   	push   rax
    10c2:	54                   	push   rsp
    10c3:	45 31 c0             	xor    r8d,r8d
    10c6:	31 c9                	xor    ecx,ecx
    10c8:	48 8d 3d 11 2f 00 00 	lea    rdi,[rip+0x2f11]        # 3fe0 <main>
    10cf:	ff 15 f3 7e 00 00    	call   QWORD PTR [rip+0x7ef3]        # 8fc8 <__libc_start_main@GLIBC_2.34>
    10d5:	f4                   	hlt    
    10d6:	66 2e 0f 1f 84 00 00 	cs nop WORD PTR [rax+rax*1+0x0]
    10dd:	00 00 00 

00000000000010e0 <deregister_tm_clones>:
    10e0:	48 8d 3d 71 80 00 00 	lea    rdi,[rip+0x8071]        # 9158 <__TMC_END__>
    10e7:	48 8d 05 6a 80 00 00 	lea    rax,[rip+0x806a]        # 9158 <__TMC_END__>
    10ee:	48 39 f8             	cmp    rax,rdi
    10f1:	74 15                	je     1108 <deregister_tm_clones+0x28>
    10f3:	48 8b 05 d6 7e 00 00 	mov    rax,QWORD PTR [rip+0x7ed6]        # 8fd0 <_ITM_deregisterTMCloneTable@Base>
    10fa:	48 85 c0             	test   rax,rax
    10fd:	74 09                	je     1108 <deregister_tm_clones+0x28>
    10ff:	ff e0                	jmp    rax
    1101:	0f 1f 80 00 00 00 00 	nop    DWORD PTR [rax+0x0]
    1108:	c3                   	ret    
    1109:	0f 1f 80 00 00 00 00 	nop    DWORD PTR [rax+0x0]

0000000000001110 <register_tm_clones>:
    1110:	48 8d 3d 41 80 00 00 	lea    rdi,[rip+0x8041]        # 9158 <__TMC_END__>
    1117:	48 8d 35 3a 80 00 00 	lea    rsi,[rip+0x803a]        # 9158 <__TMC_END__>
    111e:	48 29 fe             	sub    rsi,rdi
    1121:	48 89 f0             	mov    rax,rsi
    1124:	48 c1 ee 3f          	shr    rsi,0x3f
    1128:	48 c1 f8 03          	sar    rax,0x3
    112c:	48 01 c6             	add    rsi,rax
    112f:	48 d1 fe             	sar    rsi,1
    1132:	74 14                	je     1148 <register_tm_clones+0x38>
    1134:	48 8b 05 a5 7e 00 00 	mov    rax,QWORD PTR [rip+0x7ea5]        # 8fe0 <_ITM_registerTMCloneTable@Base>
    113b:	48 85 c0             	test   rax,rax
    113e:	74 08                	je     1148 <register_tm_clones+0x38>
    1140:	ff e0                	jmp    rax
    1142:	66 0f 1f 44 00 00    	nop    WORD PTR [rax+rax*1+0x0]
    1148:	c3                   	ret    
    1149:	0f 1f 80 00 00 00 00 	nop    DWORD PTR [rax+0x0]

0000000000001150 <__do_global_dtors_aux>:
    1150:	f3 0f 1e fa          	endbr64 
    1154:	80 3d f7 7f 00 00 00 	cmp    BYTE PTR [rip+0x7ff7],0x0        # 9152 <completed.0>
    115b:	75 2b                	jne    1188 <__do_global_dtors_aux+0x38>
    115d:	55                   	push   rbp
    115e:	48 83 3d 5a 7e 00 00 	cmp    QWORD PTR [rip+0x7e5a],0x0        # 8fc0 <__cxa_finalize@GLIBC_2.2.5>
    1165:	00 
    1166:	48 89 e5             	mov    rbp,rsp
    1169:	74 0c                	je     1177 <__do_global_dtors_aux+0x27>
    116b:	48 8b 3d d6 7e 00 00 	mov    rdi,QWORD PTR [rip+0x7ed6]        # 9048 <__dso_handle>
    1172:	e8 29 ff ff ff       	call   10a0 <__cxa_finalize@plt>
    1177:	e8 64 ff ff ff       	call   10e0 <deregister_tm_clones>
    117c:	c6 05 cf 7f 00 00 01 	mov    BYTE PTR [rip+0x7fcf],0x1        # 9152 <completed.0>
    1183:	5d                   	pop    rbp
    1184:	c3                   	ret    
    1185:	0f 1f 00             	nop    DWORD PTR [rax]
    1188:	c3                   	ret    
    1189:	0f 1f 80 00 00 00 00 	nop    DWORD PTR [rax+0x0]

0000000000001190 <frame_dummy>:
    1190:	f3 0f 1e fa          	endbr64 
    1194:	e9 77 ff ff ff       	jmp    1110 <register_tm_clones>
    1199:	0f 1f 80 00 00 00 00 	nop    DWORD PTR [rax+0x0]

00000000000011a0 <mod_ret_addr>:
    11a0:	48 c7 c1 99 3a 00 00 	mov    rcx,0x3a99
    11a7:	48 c7 c0 02 40 00 00 	mov    rax,0x4002
    11ae:	48 c7 c2 04 2d 00 00 	mov    rdx,0x2d04
    11b5:	66 f7 f1             	div    cx
    11b8:	66 f7 f1             	div    cx
    11bb:	48 01 14 24          	add    QWORD PTR [rsp],rdx
    11bf:	c3                   	ret    

00000000000011c0 <_Z12time_elaspedP8timespecS0_>:
    11c0:	48 8b 06             	mov    rax,QWORD PTR [rsi]
    11c3:	48 2b 07             	sub    rax,QWORD PTR [rdi]
    11c6:	48 69 c8 00 ca 9a 3b 	imul   rcx,rax,0x3b9aca00
    11cd:	48 8b 46 08          	mov    rax,QWORD PTR [rsi+0x8]
    11d1:	48 2b 47 08          	sub    rax,QWORD PTR [rdi+0x8]
    11d5:	48 01 c8             	add    rax,rcx
    11d8:	c3                   	ret    
    11d9:	0f 1f 80 00 00 00 00 	nop    DWORD PTR [rax+0x0]

00000000000011e0 <_Z7ref_aluPhS_S_S_>:
    11e0:	48 89 4c 24 f0       	mov    QWORD PTR [rsp-0x10],rcx
    11e5:	8a 07                	mov    al,BYTE PTR [rdi]
    11e7:	8a 0e                	mov    cl,BYTE PTR [rsi]
    11e9:	88 4c 24 fc          	mov    BYTE PTR [rsp-0x4],cl
    11ed:	8a 0a                	mov    cl,BYTE PTR [rdx]
    11ef:	88 4c 24 fd          	mov    BYTE PTR [rsp-0x3],cl
    11f3:	80 e1 01             	and    cl,0x1
    11f6:	31 d2                	xor    edx,edx
    11f8:	88 54 24 fe          	mov    BYTE PTR [rsp-0x2],dl
    11fc:	80 f9 00             	cmp    cl,0x0
    11ff:	88 44 24 ff          	mov    BYTE PTR [rsp-0x1],al
    1203:	0f 84 08 00 00 00    	je     1211 <_Z7ref_aluPhS_S_S_+0x31>
    1209:	8a 44 24 fe          	mov    al,BYTE PTR [rsp-0x2]
    120d:	88 44 24 ff          	mov    BYTE PTR [rsp-0x1],al
    1211:	8a 44 24 fc          	mov    al,BYTE PTR [rsp-0x4]
    1215:	8a 4c 24 fd          	mov    cl,BYTE PTR [rsp-0x3]
    1219:	8a 54 24 ff          	mov    dl,BYTE PTR [rsp-0x1]
    121d:	40 88 ce             	mov    sil,cl
    1220:	40 c0 e6 06          	shl    sil,0x6
    1224:	40 c0 fe 07          	sar    sil,0x7
    1228:	40 30 f2             	xor    dl,sil
    122b:	88 54 24 ed          	mov    BYTE PTR [rsp-0x13],dl
    122f:	80 e1 04             	and    cl,0x4
    1232:	31 d2                	xor    edx,edx
    1234:	88 54 24 ee          	mov    BYTE PTR [rsp-0x12],dl
    1238:	80 f9 00             	cmp    cl,0x0
    123b:	88 44 24 ef          	mov    BYTE PTR [rsp-0x11],al
    123f:	0f 84 08 00 00 00    	je     124d <_Z7ref_aluPhS_S_S_+0x6d>
    1245:	8a 44 24 ee          	mov    al,BYTE PTR [rsp-0x12]
    1249:	88 44 24 ef          	mov    BYTE PTR [rsp-0x11],al
    124d:	8a 44 24 ed          	mov    al,BYTE PTR [rsp-0x13]
    1251:	8a 4c 24 fd          	mov    cl,BYTE PTR [rsp-0x3]
    1255:	8a 54 24 ef          	mov    dl,BYTE PTR [rsp-0x11]
    1259:	40 88 ce             	mov    sil,cl
    125c:	40 c0 e6 04          	shl    sil,0x4
    1260:	40 c0 fe 07          	sar    sil,0x7
    1264:	40 30 f2             	xor    dl,sil
    1267:	80 e1 10             	and    cl,0x10
    126a:	40 88 c6             	mov    sil,al
    126d:	40 00 d6             	add    sil,dl
    1270:	40 88 74 24 eb       	mov    BYTE PTR [rsp-0x15],sil
    1275:	20 d0                	and    al,dl
    1277:	80 f9 00             	cmp    cl,0x0
    127a:	88 44 24 ec          	mov    BYTE PTR [rsp-0x14],al
    127e:	0f 84 08 00 00 00    	je     128c <_Z7ref_aluPhS_S_S_+0xac>
    1284:	8a 44 24 eb          	mov    al,BYTE PTR [rsp-0x15]
    1288:	88 44 24 ec          	mov    BYTE PTR [rsp-0x14],al
    128c:	8a 44 24 fd          	mov    al,BYTE PTR [rsp-0x3]
    1290:	8a 4c 24 ec          	mov    cl,BYTE PTR [rsp-0x14]
    1294:	c0 e0 02             	shl    al,0x2
    1297:	c0 f8 07             	sar    al,0x7
    129a:	30 c1                	xor    cl,al
    129c:	80 e1 0f             	and    cl,0xf
    129f:	88 4c 24 e9          	mov    BYTE PTR [rsp-0x17],cl
    12a3:	b0 10                	mov    al,0x10
    12a5:	80 f9 00             	cmp    cl,0x0
    12a8:	88 44 24 ea          	mov    BYTE PTR [rsp-0x16],al
    12ac:	0f 84 08 00 00 00    	je     12ba <_Z7ref_aluPhS_S_S_+0xda>
    12b2:	8a 44 24 e9          	mov    al,BYTE PTR [rsp-0x17]
    12b6:	88 44 24 ea          	mov    BYTE PTR [rsp-0x16],al
    12ba:	48 8b 44 24 f0       	mov    rax,QWORD PTR [rsp-0x10]
    12bf:	8a 54 24 ea          	mov    dl,BYTE PTR [rsp-0x16]
    12c3:	88 d1                	mov    cl,dl
    12c5:	c0 e1 02             	shl    cl,0x2
    12c8:	80 e1 20             	and    cl,0x20
    12cb:	08 d1                	or     cl,dl
    12cd:	88 08                	mov    BYTE PTR [rax],cl
    12cf:	c3                   	ret    

00000000000012d0 <_Z12__weird__aluPhS_S_S_S_>:
    12d0:	55                   	push   rbp
    12d1:	48 89 e5             	mov    rbp,rsp
    12d4:	41 57                	push   r15
    12d6:	41 56                	push   r14
    12d8:	41 55                	push   r13
    12da:	41 54                	push   r12
    12dc:	53                   	push   rbx
    12dd:	48 81 ec f8 05 00 00 	sub    rsp,0x5f8
    12e4:	48 89 bd b8 fd ff ff 	mov    QWORD PTR [rbp-0x248],rdi
    12eb:	48 89 b5 c0 fd ff ff 	mov    QWORD PTR [rbp-0x240],rsi
    12f2:	48 89 95 c8 fd ff ff 	mov    QWORD PTR [rbp-0x238],rdx
    12f9:	48 89 8d d0 fd ff ff 	mov    QWORD PTR [rbp-0x230],rcx
    1300:	4c 89 85 d8 fd ff ff 	mov    QWORD PTR [rbp-0x228],r8
    1307:	e8 44 fd ff ff       	call   1050 <rand@plt>
    130c:	89 85 e4 fd ff ff    	mov    DWORD PTR [rbp-0x21c],eax
    1312:	31 c0                	xor    eax,eax
    1314:	89 85 e0 fd ff ff    	mov    DWORD PTR [rbp-0x220],eax
    131a:	8b 8d e0 fd ff ff    	mov    ecx,DWORD PTR [rbp-0x220]
    1320:	48 63 c1             	movsxd rax,ecx
    1323:	89 8c 85 e8 fd ff ff 	mov    DWORD PTR [rbp+rax*4-0x218],ecx
    132a:	83 c1 01             	add    ecx,0x1
    132d:	31 c0                	xor    eax,eax
    132f:	83 f9 7c             	cmp    ecx,0x7c
    1332:	89 8d e0 fd ff ff    	mov    DWORD PTR [rbp-0x220],ecx
    1338:	89 85 b4 fd ff ff    	mov    DWORD PTR [rbp-0x24c],eax
    133e:	0f 85 d6 ff ff ff    	jne    131a <_Z12__weird__aluPhS_S_S_S_+0x4a>
    1344:	8b 95 b4 fd ff ff    	mov    edx,DWORD PTR [rbp-0x24c]
    134a:	89 95 ac fd ff ff    	mov    DWORD PTR [rbp-0x254],edx
    1350:	8b 85 e4 fd ff ff    	mov    eax,DWORD PTR [rbp-0x21c]
    1356:	89 85 b0 fd ff ff    	mov    DWORD PTR [rbp-0x250],eax
    135c:	b9 7c 00 00 00       	mov    ecx,0x7c
    1361:	29 d1                	sub    ecx,edx
    1363:	31 d2                	xor    edx,edx
    1365:	f7 f1                	div    ecx
    1367:	8b 85 ac fd ff ff    	mov    eax,DWORD PTR [rbp-0x254]
    136d:	89 d6                	mov    esi,edx
    136f:	8b 95 b0 fd ff ff    	mov    edx,DWORD PTR [rbp-0x250]
    1375:	89 c1                	mov    ecx,eax
    1377:	01 f1                	add    ecx,esi
    1379:	69 d2 0d 66 19 00    	imul   edx,edx,0x19660d
    137f:	81 c2 5f f3 6e 3c    	add    edx,0x3c6ef35f
    1385:	89 95 e4 fd ff ff    	mov    DWORD PTR [rbp-0x21c],edx
    138b:	48 63 d0             	movsxd rdx,eax
    138e:	8b b4 95 e8 fd ff ff 	mov    esi,DWORD PTR [rbp+rdx*4-0x218]
    1395:	48 63 d1             	movsxd rdx,ecx
    1398:	8b 94 95 e8 fd ff ff 	mov    edx,DWORD PTR [rbp+rdx*4-0x218]
    139f:	48 63 c9             	movsxd rcx,ecx
    13a2:	89 b4 8d e8 fd ff ff 	mov    DWORD PTR [rbp+rcx*4-0x218],esi
    13a9:	48 63 c8             	movsxd rcx,eax
    13ac:	89 94 8d e8 fd ff ff 	mov    DWORD PTR [rbp+rcx*4-0x218],edx
    13b3:	83 c0 01             	add    eax,0x1
    13b6:	83 f8 7b             	cmp    eax,0x7b
    13b9:	89 85 b4 fd ff ff    	mov    DWORD PTR [rbp-0x24c],eax
    13bf:	0f 85 7f ff ff ff    	jne    1344 <_Z12__weird__aluPhS_S_S_S_+0x74>
    13c5:	4c 8b 85 c8 fd ff ff 	mov    r8,QWORD PTR [rbp-0x238]
    13cc:	48 8b 8d b8 fd ff ff 	mov    rcx,QWORD PTR [rbp-0x248]
    13d3:	48 89 e0             	mov    rax,rsp
    13d6:	48 05 c0 ec fd ff    	add    rax,0xfffffffffffdecc0
    13dc:	48 89 85 10 fd ff ff 	mov    QWORD PTR [rbp-0x2f0],rax
    13e3:	48 89 c4             	mov    rsp,rax
    13e6:	41 8a 10             	mov    dl,BYTE PTR [r8]
    13e9:	d0 ea                	shr    dl,1
    13eb:	80 e2 01             	and    dl,0x1
    13ee:	88 95 e7 f9 ff ff    	mov    BYTE PTR [rbp-0x619],dl
    13f4:	8b b5 40 fe ff ff    	mov    esi,DWORD PTR [rbp-0x1c0]
    13fa:	48 83 c6 01          	add    rsi,0x1
    13fe:	4c 69 de 40 04 00 00 	imul   r11,rsi,0x440
    1405:	4c 89 9d e8 f9 ff ff 	mov    QWORD PTR [rbp-0x618],r11
    140c:	48 89 c7             	mov    rdi,rax
    140f:	4c 01 df             	add    rdi,r11
    1412:	48 89 bd f8 f9 ff ff 	mov    QWORD PTR [rbp-0x608],rdi
    1419:	8b b5 44 fe ff ff    	mov    esi,DWORD PTR [rbp-0x1bc]
    141f:	48 83 c6 01          	add    rsi,0x1
    1423:	4c 69 d6 40 04 00 00 	imul   r10,rsi,0x440
    142a:	4c 89 95 18 fa ff ff 	mov    QWORD PTR [rbp-0x5e8],r10
    1431:	48 89 c6             	mov    rsi,rax
    1434:	4c 01 d6             	add    rsi,r10
    1437:	48 89 b5 00 fa ff ff 	mov    QWORD PTR [rbp-0x600],rsi
    143e:	4c 89 d3             	mov    rbx,r10
    1441:	4c 29 db             	sub    rbx,r11
    1444:	0f b6 d2             	movzx  edx,dl
    1447:	41 89 d1             	mov    r9d,edx
    144a:	4c 89 ca             	mov    rdx,r9
    144d:	48 0f af d3          	imul   rdx,rbx
    1451:	4c 01 da             	add    rdx,r11
    1454:	4d 29 d3             	sub    r11,r10
    1457:	4d 0f af cb          	imul   r9,r11
    145b:	4d 01 d1             	add    r9,r10
    145e:	c6 04 10 00          	mov    BYTE PTR [rax+rdx*1],0x0
    1462:	48 89 c2             	mov    rdx,rax
    1465:	4c 01 ca             	add    rdx,r9
    1468:	0f ae 3a             	clflush BYTE PTR [rdx]
    146b:	44 8a 09             	mov    r9b,BYTE PTR [rcx]
    146e:	41 80 e1 01          	and    r9b,0x1
    1472:	8b 8d f8 fd ff ff    	mov    ecx,DWORD PTR [rbp-0x208]
    1478:	48 83 c1 01          	add    rcx,0x1
    147c:	48 69 d9 40 04 00 00 	imul   rbx,rcx,0x440
    1483:	48 89 c2             	mov    rdx,rax
    1486:	48 01 da             	add    rdx,rbx
    1489:	8b 8d fc fd ff ff    	mov    ecx,DWORD PTR [rbp-0x204]
    148f:	48 83 c1 01          	add    rcx,0x1
    1493:	4c 69 d9 40 04 00 00 	imul   r11,rcx,0x440
    149a:	48 89 c1             	mov    rcx,rax
    149d:	4c 01 d9             	add    rcx,r11
    14a0:	4d 89 de             	mov    r14,r11
    14a3:	49 29 de             	sub    r14,rbx
    14a6:	45 0f b6 c9          	movzx  r9d,r9b
    14aa:	45 89 ca             	mov    r10d,r9d
    14ad:	4d 89 d1             	mov    r9,r10
    14b0:	4d 0f af ce          	imul   r9,r14
    14b4:	49 01 d9             	add    r9,rbx
    14b7:	4c 29 db             	sub    rbx,r11
    14ba:	4c 0f af d3          	imul   r10,rbx
    14be:	4d 01 da             	add    r10,r11
    14c1:	42 c6 04 08 00       	mov    BYTE PTR [rax+r9*1],0x0
    14c6:	49 89 c1             	mov    r9,rax
    14c9:	4d 01 d1             	add    r9,r10
    14cc:	41 0f ae 39          	clflush BYTE PTR [r9]
    14d0:	45 8a 10             	mov    r10b,BYTE PTR [r8]
    14d3:	41 80 e2 01          	and    r10b,0x1
    14d7:	44 88 95 3f fa ff ff 	mov    BYTE PTR [rbp-0x5c1],r10b
    14de:	44 8b 85 38 fe ff ff 	mov    r8d,DWORD PTR [rbp-0x1c8]
    14e5:	49 83 c0 01          	add    r8,0x1
    14e9:	49 69 d8 40 04 00 00 	imul   rbx,r8,0x440
    14f0:	48 89 9d f0 f9 ff ff 	mov    QWORD PTR [rbp-0x610],rbx
    14f7:	49 89 c0             	mov    r8,rax
    14fa:	49 01 d8             	add    r8,rbx
    14fd:	4c 89 85 08 fa ff ff 	mov    QWORD PTR [rbp-0x5f8],r8
    1504:	44 8b 8d 3c fe ff ff 	mov    r9d,DWORD PTR [rbp-0x1c4]
    150b:	49 83 c1 01          	add    r9,0x1
    150f:	4d 69 e9 40 04 00 00 	imul   r13,r9,0x440
    1516:	49 89 c1             	mov    r9,rax
    1519:	4d 01 e9             	add    r9,r13
    151c:	4c 89 8d 10 fa ff ff 	mov    QWORD PTR [rbp-0x5f0],r9
    1523:	4d 89 ee             	mov    r14,r13
    1526:	49 29 de             	sub    r14,rbx
    1529:	45 0f b6 d2          	movzx  r10d,r10b
    152d:	45 89 d3             	mov    r11d,r10d
    1530:	4d 89 da             	mov    r10,r11
    1533:	4d 0f af d6          	imul   r10,r14
    1537:	49 01 da             	add    r10,rbx
    153a:	4c 29 eb             	sub    rbx,r13
    153d:	4c 0f af db          	imul   r11,rbx
    1541:	4d 01 eb             	add    r11,r13
    1544:	42 c6 04 10 00       	mov    BYTE PTR [rax+r10*1],0x0
    1549:	49 89 c2             	mov    r10,rax
    154c:	4d 01 da             	add    r10,r11
    154f:	41 0f ae 3a          	clflush BYTE PTR [r10]
    1553:	44 8b 95 98 fe ff ff 	mov    r10d,DWORD PTR [rbp-0x168]
    155a:	49 83 c2 01          	add    r10,0x1
    155e:	4d 69 d2 40 04 00 00 	imul   r10,r10,0x440
    1565:	4c 89 d3             	mov    rbx,r10
    1568:	48 81 eb 00 01 00 00 	sub    rbx,0x100
    156f:	49 89 c3             	mov    r11,rax
    1572:	4d 01 d3             	add    r11,r10
    1575:	4c 89 9d 80 fa ff ff 	mov    QWORD PTR [rbp-0x580],r11
    157c:	49 89 c2             	mov    r10,rax
    157f:	49 01 da             	add    r10,rbx
    1582:	41 0f ae 3b          	clflush BYTE PTR [r11]
    1586:	44 8b 9d 9c fe ff ff 	mov    r11d,DWORD PTR [rbp-0x164]
    158d:	49 83 c3 01          	add    r11,0x1
    1591:	4d 69 f3 40 04 00 00 	imul   r14,r11,0x440
    1598:	4c 89 f3             	mov    rbx,r14
    159b:	48 81 eb 00 01 00 00 	sub    rbx,0x100
    15a2:	49 89 c3             	mov    r11,rax
    15a5:	4d 01 f3             	add    r11,r14
    15a8:	4c 89 9d 88 fa ff ff 	mov    QWORD PTR [rbp-0x578],r11
    15af:	48 01 d8             	add    rax,rbx
    15b2:	41 0f ae 3b          	clflush BYTE PTR [r11]
    15b6:	0f ae f0             	mfence 
    15b9:	48 83 ec 10          	sub    rsp,0x10
    15bd:	4c 89 14 24          	mov    QWORD PTR [rsp],r10
    15c1:	48 89 44 24 08       	mov    QWORD PTR [rsp+0x8],rax
    15c6:	e8 25 2b 00 00       	call   40f0 <__DualGate__3_1_75>
    15cb:	48 8b 8d c0 fd ff ff 	mov    rcx,QWORD PTR [rbp-0x240]
    15d2:	48 8b 85 c8 fd ff ff 	mov    rax,QWORD PTR [rbp-0x238]
    15d9:	4c 8b 9d 10 fd ff ff 	mov    r11,QWORD PTR [rbp-0x2f0]
    15e0:	48 83 c4 10          	add    rsp,0x10
    15e4:	0f ae f0             	mfence 
    15e7:	8a 10                	mov    dl,BYTE PTR [rax]
    15e9:	c0 ea 03             	shr    dl,0x3
    15ec:	80 e2 01             	and    dl,0x1
    15ef:	88 95 4e fa ff ff    	mov    BYTE PTR [rbp-0x5b2],dl
    15f5:	8b b5 50 fe ff ff    	mov    esi,DWORD PTR [rbp-0x1b0]
    15fb:	48 83 c6 01          	add    rsi,0x1
    15ff:	4c 69 e6 40 04 00 00 	imul   r12,rsi,0x440
    1606:	4c 89 df             	mov    rdi,r11
    1609:	4c 01 e7             	add    rdi,r12
    160c:	48 89 bd 50 fa ff ff 	mov    QWORD PTR [rbp-0x5b0],rdi
    1613:	8b b5 54 fe ff ff    	mov    esi,DWORD PTR [rbp-0x1ac]
    1619:	48 83 c6 01          	add    rsi,0x1
    161d:	4c 69 fe 40 04 00 00 	imul   r15,rsi,0x440
    1624:	4c 89 de             	mov    rsi,r11
    1627:	4c 01 fe             	add    rsi,r15
    162a:	48 89 b5 58 fa ff ff 	mov    QWORD PTR [rbp-0x5a8],rsi
    1631:	4d 89 f8             	mov    r8,r15
    1634:	4d 29 e0             	sub    r8,r12
    1637:	0f b6 d2             	movzx  edx,dl
    163a:	89 d6                	mov    esi,edx
    163c:	48 89 f2             	mov    rdx,rsi
    163f:	49 0f af d0          	imul   rdx,r8
    1643:	4c 01 e2             	add    rdx,r12
    1646:	4d 89 e0             	mov    r8,r12
    1649:	4d 29 f8             	sub    r8,r15
    164c:	49 0f af f0          	imul   rsi,r8
    1650:	4c 01 fe             	add    rsi,r15
    1653:	41 c6 04 13 00       	mov    BYTE PTR [r11+rdx*1],0x0
    1658:	4c 89 da             	mov    rdx,r11
    165b:	48 01 f2             	add    rdx,rsi
    165e:	0f ae 3a             	clflush BYTE PTR [rdx]
    1661:	40 8a 31             	mov    sil,BYTE PTR [rcx]
    1664:	40 80 e6 01          	and    sil,0x1
    1668:	8b 8d 18 fe ff ff    	mov    ecx,DWORD PTR [rbp-0x1e8]
    166e:	48 83 c1 01          	add    rcx,0x1
    1672:	4c 69 d1 40 04 00 00 	imul   r10,rcx,0x440
    1679:	4c 89 da             	mov    rdx,r11
    167c:	4c 01 d2             	add    rdx,r10
    167f:	8b 8d 1c fe ff ff    	mov    ecx,DWORD PTR [rbp-0x1e4]
    1685:	48 83 c1 01          	add    rcx,0x1
    1689:	4c 69 c9 40 04 00 00 	imul   r9,rcx,0x440
    1690:	4c 89 d9             	mov    rcx,r11
    1693:	4c 01 c9             	add    rcx,r9
    1696:	4c 89 cb             	mov    rbx,r9
    1699:	4c 29 d3             	sub    rbx,r10
    169c:	40 0f b6 f6          	movzx  esi,sil
    16a0:	41 89 f0             	mov    r8d,esi
    16a3:	4c 89 c6             	mov    rsi,r8
    16a6:	48 0f af f3          	imul   rsi,rbx
    16aa:	4c 01 d6             	add    rsi,r10
    16ad:	4d 29 ca             	sub    r10,r9
    16b0:	4d 0f af c2          	imul   r8,r10
    16b4:	4d 01 c8             	add    r8,r9
    16b7:	41 c6 04 33 00       	mov    BYTE PTR [r11+rsi*1],0x0
    16bc:	4c 89 de             	mov    rsi,r11
    16bf:	4c 01 c6             	add    rsi,r8
    16c2:	0f ae 3e             	clflush BYTE PTR [rsi]
    16c5:	8a 00                	mov    al,BYTE PTR [rax]
    16c7:	c0 e8 02             	shr    al,0x2
    16ca:	24 01                	and    al,0x1
    16cc:	88 85 4f fa ff ff    	mov    BYTE PTR [rbp-0x5b1],al
    16d2:	8b b5 48 fe ff ff    	mov    esi,DWORD PTR [rbp-0x1b8]
    16d8:	48 83 c6 01          	add    rsi,0x1
    16dc:	4c 69 f6 40 04 00 00 	imul   r14,rsi,0x440
    16e3:	4d 89 d8             	mov    r8,r11
    16e6:	4d 01 f0             	add    r8,r14
    16e9:	4c 89 85 60 fa ff ff 	mov    QWORD PTR [rbp-0x5a0],r8
    16f0:	8b b5 4c fe ff ff    	mov    esi,DWORD PTR [rbp-0x1b4]
    16f6:	48 83 c6 01          	add    rsi,0x1
    16fa:	48 69 de 40 04 00 00 	imul   rbx,rsi,0x440
    1701:	4d 89 d9             	mov    r9,r11
    1704:	49 01 d9             	add    r9,rbx
    1707:	4c 89 8d 68 fa ff ff 	mov    QWORD PTR [rbp-0x598],r9
    170e:	49 89 da             	mov    r10,rbx
    1711:	4d 29 f2             	sub    r10,r14
    1714:	0f b6 c0             	movzx  eax,al
    1717:	89 c6                	mov    esi,eax
    1719:	48 89 f0             	mov    rax,rsi
    171c:	49 0f af c2          	imul   rax,r10
    1720:	4c 01 f0             	add    rax,r14
    1723:	4d 89 f2             	mov    r10,r14
    1726:	49 29 da             	sub    r10,rbx
    1729:	49 0f af f2          	imul   rsi,r10
    172d:	48 01 de             	add    rsi,rbx
    1730:	41 c6 04 03 00       	mov    BYTE PTR [r11+rax*1],0x0
    1735:	4c 89 d8             	mov    rax,r11
    1738:	48 01 f0             	add    rax,rsi
    173b:	0f ae 38             	clflush BYTE PTR [rax]
    173e:	8b 85 90 fe ff ff    	mov    eax,DWORD PTR [rbp-0x170]
    1744:	48 83 c0 01          	add    rax,0x1
    1748:	4c 69 d0 40 04 00 00 	imul   r10,rax,0x440
    174f:	4c 89 d6             	mov    rsi,r10
    1752:	48 81 ee 00 01 00 00 	sub    rsi,0x100
    1759:	4c 89 d8             	mov    rax,r11
    175c:	4c 01 d0             	add    rax,r10
    175f:	48 89 85 70 fa ff ff 	mov    QWORD PTR [rbp-0x590],rax
    1766:	4d 89 da             	mov    r10,r11
    1769:	49 01 f2             	add    r10,rsi
    176c:	0f ae 38             	clflush BYTE PTR [rax]
    176f:	8b 85 94 fe ff ff    	mov    eax,DWORD PTR [rbp-0x16c]
    1775:	48 83 c0 01          	add    rax,0x1
    1779:	48 69 c0 40 04 00 00 	imul   rax,rax,0x440
    1780:	48 89 c6             	mov    rsi,rax
    1783:	48 81 ee 00 01 00 00 	sub    rsi,0x100
    178a:	49 01 c3             	add    r11,rax
    178d:	48 8b 85 10 fd ff ff 	mov    rax,QWORD PTR [rbp-0x2f0]
    1794:	4c 89 9d 78 fa ff ff 	mov    QWORD PTR [rbp-0x588],r11
    179b:	48 01 f0             	add    rax,rsi
    179e:	48 8b b5 58 fa ff ff 	mov    rsi,QWORD PTR [rbp-0x5a8]
    17a5:	41 0f ae 3b          	clflush BYTE PTR [r11]
    17a9:	0f ae f0             	mfence 
    17ac:	48 83 ec 10          	sub    rsp,0x10
    17b0:	4c 89 14 24          	mov    QWORD PTR [rsp],r10
    17b4:	48 89 44 24 08       	mov    QWORD PTR [rsp+0x8],rax
    17b9:	e8 32 29 00 00       	call   40f0 <__DualGate__3_1_75>
    17be:	8a 8d e7 f9 ff ff    	mov    cl,BYTE PTR [rbp-0x619]
    17c4:	48 8b bd e8 f9 ff ff 	mov    rdi,QWORD PTR [rbp-0x618]
    17cb:	48 8b b5 18 fa ff ff 	mov    rsi,QWORD PTR [rbp-0x5e8]
    17d2:	48 8b 85 b8 fd ff ff 	mov    rax,QWORD PTR [rbp-0x248]
    17d9:	4c 8b 95 f0 f9 ff ff 	mov    r10,QWORD PTR [rbp-0x610]
    17e0:	4c 8b 9d 10 fd ff ff 	mov    r11,QWORD PTR [rbp-0x2f0]
    17e7:	48 83 c4 10          	add    rsp,0x10
    17eb:	0f ae f0             	mfence 
    17ee:	49 89 f0             	mov    r8,rsi
    17f1:	49 29 f8             	sub    r8,rdi
    17f4:	0f b6 c9             	movzx  ecx,cl
    17f7:	89 ca                	mov    edx,ecx
    17f9:	48 89 d1             	mov    rcx,rdx
    17fc:	49 0f af c8          	imul   rcx,r8
    1800:	48 01 f9             	add    rcx,rdi
    1803:	48 29 f7             	sub    rdi,rsi
    1806:	48 0f af d7          	imul   rdx,rdi
    180a:	48 01 f2             	add    rdx,rsi
    180d:	41 c6 04 0b 00       	mov    BYTE PTR [r11+rcx*1],0x0
    1812:	4c 89 d9             	mov    rcx,r11
    1815:	48 01 d1             	add    rcx,rdx
    1818:	0f ae 39             	clflush BYTE PTR [rcx]
    181b:	40 8a 30             	mov    sil,BYTE PTR [rax]
    181e:	40 d0 ee             	shr    sil,1
    1821:	40 80 e6 01          	and    sil,0x1
    1825:	8b 85 00 fe ff ff    	mov    eax,DWORD PTR [rbp-0x200]
    182b:	48 83 c0 01          	add    rax,0x1
    182f:	4c 69 c0 40 04 00 00 	imul   r8,rax,0x440
    1836:	4c 89 da             	mov    rdx,r11
    1839:	4c 01 c2             	add    rdx,r8
    183c:	8b 85 04 fe ff ff    	mov    eax,DWORD PTR [rbp-0x1fc]
    1842:	48 83 c0 01          	add    rax,0x1
    1846:	48 69 c0 40 04 00 00 	imul   rax,rax,0x440
    184d:	4c 89 d9             	mov    rcx,r11
    1850:	48 01 c1             	add    rcx,rax
    1853:	49 89 c1             	mov    r9,rax
    1856:	4d 29 c1             	sub    r9,r8
    1859:	40 0f b6 f6          	movzx  esi,sil
    185d:	89 f7                	mov    edi,esi
    185f:	48 89 fe             	mov    rsi,rdi
    1862:	49 0f af f1          	imul   rsi,r9
    1866:	4c 8b 8d 10 fa ff ff 	mov    r9,QWORD PTR [rbp-0x5f0]
    186d:	4c 01 c6             	add    rsi,r8
    1870:	49 29 c0             	sub    r8,rax
    1873:	49 0f af f8          	imul   rdi,r8
    1877:	4c 8b 85 08 fa ff ff 	mov    r8,QWORD PTR [rbp-0x5f8]
    187e:	48 01 c7             	add    rdi,rax
    1881:	8a 85 3f fa ff ff    	mov    al,BYTE PTR [rbp-0x5c1]
    1887:	41 c6 04 33 00       	mov    BYTE PTR [r11+rsi*1],0x0
    188c:	4c 89 de             	mov    rsi,r11
    188f:	48 01 fe             	add    rsi,rdi
    1892:	0f ae 3e             	clflush BYTE PTR [rsi]
    1895:	4c 89 ef             	mov    rdi,r13
    1898:	4c 29 d7             	sub    rdi,r10
    189b:	0f b6 c0             	movzx  eax,al
    189e:	89 c6                	mov    esi,eax
    18a0:	48 89 f0             	mov    rax,rsi
    18a3:	48 0f af c7          	imul   rax,rdi
    18a7:	48 8b bd f8 f9 ff ff 	mov    rdi,QWORD PTR [rbp-0x608]
    18ae:	4c 01 d0             	add    rax,r10
    18b1:	4d 29 ea             	sub    r10,r13
    18b4:	49 0f af f2          	imul   rsi,r10
    18b8:	4c 01 ee             	add    rsi,r13
    18bb:	41 c6 04 03 00       	mov    BYTE PTR [r11+rax*1],0x0
    18c0:	4c 89 d8             	mov    rax,r11
    18c3:	48 01 f0             	add    rax,rsi
    18c6:	0f ae 38             	clflush BYTE PTR [rax]
    18c9:	8b 85 b0 fe ff ff    	mov    eax,DWORD PTR [rbp-0x150]
    18cf:	48 83 c0 01          	add    rax,0x1
    18d3:	4c 69 d0 40 04 00 00 	imul   r10,rax,0x440
    18da:	4c 89 d6             	mov    rsi,r10
    18dd:	48 81 ee 00 01 00 00 	sub    rsi,0x100
    18e4:	4c 89 d8             	mov    rax,r11
    18e7:	4c 01 d0             	add    rax,r10
    18ea:	48 89 85 a0 fa ff ff 	mov    QWORD PTR [rbp-0x560],rax
    18f1:	4d 89 da             	mov    r10,r11
    18f4:	49 01 f2             	add    r10,rsi
    18f7:	0f ae 38             	clflush BYTE PTR [rax]
    18fa:	8b 85 b4 fe ff ff    	mov    eax,DWORD PTR [rbp-0x14c]
    1900:	48 83 c0 01          	add    rax,0x1
    1904:	48 69 c0 40 04 00 00 	imul   rax,rax,0x440
    190b:	48 89 c6             	mov    rsi,rax
    190e:	48 81 ee 00 01 00 00 	sub    rsi,0x100
    1915:	49 01 c3             	add    r11,rax
    1918:	48 8b 85 10 fd ff ff 	mov    rax,QWORD PTR [rbp-0x2f0]
    191f:	4c 89 9d a8 fa ff ff 	mov    QWORD PTR [rbp-0x558],r11
    1926:	48 01 f0             	add    rax,rsi
    1929:	48 8b b5 00 fa ff ff 	mov    rsi,QWORD PTR [rbp-0x600]
    1930:	41 0f ae 3b          	clflush BYTE PTR [r11]
    1934:	0f ae f0             	mfence 
    1937:	48 83 ec 10          	sub    rsp,0x10
    193b:	4c 89 14 24          	mov    QWORD PTR [rsp],r10
    193f:	48 89 44 24 08       	mov    QWORD PTR [rsp+0x8],rax
    1944:	e8 a7 27 00 00       	call   40f0 <__DualGate__3_1_75>
    1949:	8a 8d 4e fa ff ff    	mov    cl,BYTE PTR [rbp-0x5b2]
    194f:	48 8b 85 c0 fd ff ff 	mov    rax,QWORD PTR [rbp-0x240]
    1956:	4c 8b 8d 68 fa ff ff 	mov    r9,QWORD PTR [rbp-0x598]
    195d:	4c 8b 9d 10 fd ff ff 	mov    r11,QWORD PTR [rbp-0x2f0]
    1964:	48 83 c4 10          	add    rsp,0x10
    1968:	0f ae f0             	mfence 
    196b:	4c 89 fe             	mov    rsi,r15
    196e:	4c 29 e6             	sub    rsi,r12
    1971:	0f b6 c9             	movzx  ecx,cl
    1974:	89 ca                	mov    edx,ecx
    1976:	48 89 d1             	mov    rcx,rdx
    1979:	48 0f af ce          	imul   rcx,rsi
    197d:	4c 01 e1             	add    rcx,r12
    1980:	4c 89 e6             	mov    rsi,r12
    1983:	4c 29 fe             	sub    rsi,r15
    1986:	48 0f af d6          	imul   rdx,rsi
    198a:	4c 01 fa             	add    rdx,r15
    198d:	41 c6 04 0b 00       	mov    BYTE PTR [r11+rcx*1],0x0
    1992:	4c 89 d9             	mov    rcx,r11
    1995:	48 01 d1             	add    rcx,rdx
    1998:	0f ae 39             	clflush BYTE PTR [rcx]
    199b:	40 8a 30             	mov    sil,BYTE PTR [rax]
    199e:	40 d0 ee             	shr    sil,1
    19a1:	40 80 e6 01          	and    sil,0x1
    19a5:	8b 85 20 fe ff ff    	mov    eax,DWORD PTR [rbp-0x1e0]
    19ab:	48 83 c0 01          	add    rax,0x1
    19af:	48 69 f8 40 04 00 00 	imul   rdi,rax,0x440
    19b6:	4c 89 da             	mov    rdx,r11
    19b9:	48 01 fa             	add    rdx,rdi
    19bc:	8b 85 24 fe ff ff    	mov    eax,DWORD PTR [rbp-0x1dc]
    19c2:	48 83 c0 01          	add    rax,0x1
    19c6:	48 69 c0 40 04 00 00 	imul   rax,rax,0x440
    19cd:	4c 89 d9             	mov    rcx,r11
    19d0:	48 01 c1             	add    rcx,rax
    19d3:	49 89 c0             	mov    r8,rax
    19d6:	49 29 f8             	sub    r8,rdi
    19d9:	40 0f b6 f6          	movzx  esi,sil
    19dd:	41 89 f2             	mov    r10d,esi
    19e0:	4c 89 d6             	mov    rsi,r10
    19e3:	49 0f af f0          	imul   rsi,r8
    19e7:	4c 8b 85 60 fa ff ff 	mov    r8,QWORD PTR [rbp-0x5a0]
    19ee:	48 01 fe             	add    rsi,rdi
    19f1:	48 29 c7             	sub    rdi,rax
    19f4:	4c 0f af d7          	imul   r10,rdi
    19f8:	48 8b bd 50 fa ff ff 	mov    rdi,QWORD PTR [rbp-0x5b0]
    19ff:	49 01 c2             	add    r10,rax
    1a02:	8a 85 4f fa ff ff    	mov    al,BYTE PTR [rbp-0x5b1]
    1a08:	41 c6 04 33 00       	mov    BYTE PTR [r11+rsi*1],0x0
    1a0d:	4c 89 de             	mov    rsi,r11
    1a10:	4c 01 d6             	add    rsi,r10
    1a13:	0f ae 3e             	clflush BYTE PTR [rsi]
    1a16:	49 89 da             	mov    r10,rbx
    1a19:	4d 29 f2             	sub    r10,r14
    1a1c:	0f b6 c0             	movzx  eax,al
    1a1f:	89 c6                	mov    esi,eax
    1a21:	48 89 f0             	mov    rax,rsi
    1a24:	49 0f af c2          	imul   rax,r10
    1a28:	4c 01 f0             	add    rax,r14
    1a2b:	4d 89 f2             	mov    r10,r14
    1a2e:	49 29 da             	sub    r10,rbx
    1a31:	49 0f af f2          	imul   rsi,r10
    1a35:	48 01 de             	add    rsi,rbx
    1a38:	41 c6 04 03 00       	mov    BYTE PTR [r11+rax*1],0x0
    1a3d:	4c 89 d8             	mov    rax,r11
    1a40:	48 01 f0             	add    rax,rsi
    1a43:	0f ae 38             	clflush BYTE PTR [rax]
    1a46:	8b 85 a8 fe ff ff    	mov    eax,DWORD PTR [rbp-0x158]
    1a4c:	48 83 c0 01          	add    rax,0x1
    1a50:	4c 69 d0 40 04 00 00 	imul   r10,rax,0x440
    1a57:	4c 89 d6             	mov    rsi,r10
    1a5a:	48 81 ee 00 01 00 00 	sub    rsi,0x100
    1a61:	4c 89 d8             	mov    rax,r11
    1a64:	4c 01 d0             	add    rax,r10
    1a67:	48 89 85 90 fa ff ff 	mov    QWORD PTR [rbp-0x570],rax
    1a6e:	4d 89 da             	mov    r10,r11
    1a71:	49 01 f2             	add    r10,rsi
    1a74:	0f ae 38             	clflush BYTE PTR [rax]
    1a77:	8b 85 ac fe ff ff    	mov    eax,DWORD PTR [rbp-0x154]
    1a7d:	48 83 c0 01          	add    rax,0x1
    1a81:	48 69 c0 40 04 00 00 	imul   rax,rax,0x440
    1a88:	48 89 c6             	mov    rsi,rax
    1a8b:	48 81 ee 00 01 00 00 	sub    rsi,0x100
    1a92:	49 01 c3             	add    r11,rax
    1a95:	48 8b 85 10 fd ff ff 	mov    rax,QWORD PTR [rbp-0x2f0]
    1a9c:	4c 89 9d 98 fa ff ff 	mov    QWORD PTR [rbp-0x568],r11
    1aa3:	48 01 f0             	add    rax,rsi
    1aa6:	48 8b b5 58 fa ff ff 	mov    rsi,QWORD PTR [rbp-0x5a8]
    1aad:	41 0f ae 3b          	clflush BYTE PTR [r11]
    1ab1:	0f ae f0             	mfence 
    1ab4:	48 83 ec 10          	sub    rsp,0x10
    1ab8:	4c 89 14 24          	mov    QWORD PTR [rsp],r10
    1abc:	48 89 44 24 08       	mov    QWORD PTR [rsp+0x8],rax
    1ac1:	e8 2a 26 00 00       	call   40f0 <__DualGate__3_1_75>
    1ac6:	8a 8d e7 f9 ff ff    	mov    cl,BYTE PTR [rbp-0x619]
    1acc:	48 8b bd e8 f9 ff ff 	mov    rdi,QWORD PTR [rbp-0x618]
    1ad3:	48 8b b5 18 fa ff ff 	mov    rsi,QWORD PTR [rbp-0x5e8]
    1ada:	48 8b 85 b8 fd ff ff 	mov    rax,QWORD PTR [rbp-0x248]
    1ae1:	4c 8b 95 f0 f9 ff ff 	mov    r10,QWORD PTR [rbp-0x610]
    1ae8:	4c 8b 9d 10 fd ff ff 	mov    r11,QWORD PTR [rbp-0x2f0]
    1aef:	48 83 c4 10          	add    rsp,0x10
    1af3:	0f ae f0             	mfence 
    1af6:	49 89 f0             	mov    r8,rsi
    1af9:	49 29 f8             	sub    r8,rdi
    1afc:	0f b6 c9             	movzx  ecx,cl
    1aff:	89 ca                	mov    edx,ecx
    1b01:	48 89 d1             	mov    rcx,rdx
    1b04:	49 0f af c8          	imul   rcx,r8
    1b08:	48 01 f9             	add    rcx,rdi
    1b0b:	48 29 f7             	sub    rdi,rsi
    1b0e:	48 0f af d7          	imul   rdx,rdi
    1b12:	48 01 f2             	add    rdx,rsi
    1b15:	41 c6 04 0b 00       	mov    BYTE PTR [r11+rcx*1],0x0
    1b1a:	4c 89 d9             	mov    rcx,r11
    1b1d:	48 01 d1             	add    rcx,rdx
    1b20:	0f ae 39             	clflush BYTE PTR [rcx]
    1b23:	40 8a 30             	mov    sil,BYTE PTR [rax]
    1b26:	40 c0 ee 02          	shr    sil,0x2
    1b2a:	40 80 e6 01          	and    sil,0x1
    1b2e:	8b 85 08 fe ff ff    	mov    eax,DWORD PTR [rbp-0x1f8]
    1b34:	48 83 c0 01          	add    rax,0x1
    1b38:	4c 69 c0 40 04 00 00 	imul   r8,rax,0x440
    1b3f:	4c 89 da             	mov    rdx,r11
    1b42:	4c 01 c2             	add    rdx,r8
    1b45:	8b 85 0c fe ff ff    	mov    eax,DWORD PTR [rbp-0x1f4]
    1b4b:	48 83 c0 01          	add    rax,0x1
    1b4f:	48 69 c0 40 04 00 00 	imul   rax,rax,0x440
    1b56:	4c 89 d9             	mov    rcx,r11
    1b59:	48 01 c1             	add    rcx,rax
    1b5c:	49 89 c1             	mov    r9,rax
    1b5f:	4d 29 c1             	sub    r9,r8
    1b62:	40 0f b6 f6          	movzx  esi,sil
    1b66:	89 f7                	mov    edi,esi
    1b68:	48 89 fe             	mov    rsi,rdi
    1b6b:	49 0f af f1          	imul   rsi,r9
    1b6f:	4c 8b 8d 10 fa ff ff 	mov    r9,QWORD PTR [rbp-0x5f0]
    1b76:	4c 01 c6             	add    rsi,r8
    1b79:	49 29 c0             	sub    r8,rax
    1b7c:	49 0f af f8          	imul   rdi,r8
    1b80:	4c 8b 85 08 fa ff ff 	mov    r8,QWORD PTR [rbp-0x5f8]
    1b87:	48 01 c7             	add    rdi,rax
    1b8a:	8a 85 3f fa ff ff    	mov    al,BYTE PTR [rbp-0x5c1]
    1b90:	41 c6 04 33 00       	mov    BYTE PTR [r11+rsi*1],0x0
    1b95:	4c 89 de             	mov    rsi,r11
    1b98:	48 01 fe             	add    rsi,rdi
    1b9b:	0f ae 3e             	clflush BYTE PTR [rsi]
    1b9e:	4c 89 ef             	mov    rdi,r13
    1ba1:	4c 29 d7             	sub    rdi,r10
    1ba4:	0f b6 c0             	movzx  eax,al
    1ba7:	89 c6                	mov    esi,eax
    1ba9:	48 89 f0             	mov    rax,rsi
    1bac:	48 0f af c7          	imul   rax,rdi
    1bb0:	48 8b bd f8 f9 ff ff 	mov    rdi,QWORD PTR [rbp-0x608]
    1bb7:	4c 01 d0             	add    rax,r10
    1bba:	4d 29 ea             	sub    r10,r13
    1bbd:	49 0f af f2          	imul   rsi,r10
    1bc1:	4c 01 ee             	add    rsi,r13
    1bc4:	41 c6 04 03 00       	mov    BYTE PTR [r11+rax*1],0x0
    1bc9:	4c 89 d8             	mov    rax,r11
    1bcc:	48 01 f0             	add    rax,rsi
    1bcf:	0f ae 38             	clflush BYTE PTR [rax]
    1bd2:	8b 85 d0 fe ff ff    	mov    eax,DWORD PTR [rbp-0x130]
    1bd8:	48 83 c0 01          	add    rax,0x1
    1bdc:	4c 69 d0 40 04 00 00 	imul   r10,rax,0x440
    1be3:	4c 89 d6             	mov    rsi,r10
    1be6:	48 81 ee 00 01 00 00 	sub    rsi,0x100
    1bed:	4c 89 d8             	mov    rax,r11
    1bf0:	4c 01 d0             	add    rax,r10
    1bf3:	48 89 85 c0 fa ff ff 	mov    QWORD PTR [rbp-0x540],rax
    1bfa:	4d 89 da             	mov    r10,r11
    1bfd:	49 01 f2             	add    r10,rsi
    1c00:	0f ae 38             	clflush BYTE PTR [rax]
    1c03:	8b 85 d4 fe ff ff    	mov    eax,DWORD PTR [rbp-0x12c]
    1c09:	48 83 c0 01          	add    rax,0x1
    1c0d:	48 69 c0 40 04 00 00 	imul   rax,rax,0x440
    1c14:	48 89 c6             	mov    rsi,rax
    1c17:	48 81 ee 00 01 00 00 	sub    rsi,0x100
    1c1e:	49 01 c3             	add    r11,rax
    1c21:	48 8b 85 10 fd ff ff 	mov    rax,QWORD PTR [rbp-0x2f0]
    1c28:	4c 89 9d c8 fa ff ff 	mov    QWORD PTR [rbp-0x538],r11
    1c2f:	48 01 f0             	add    rax,rsi
    1c32:	48 8b b5 00 fa ff ff 	mov    rsi,QWORD PTR [rbp-0x600]
    1c39:	41 0f ae 3b          	clflush BYTE PTR [r11]
    1c3d:	0f ae f0             	mfence 
    1c40:	48 83 ec 10          	sub    rsp,0x10
    1c44:	4c 89 14 24          	mov    QWORD PTR [rsp],r10
    1c48:	48 89 44 24 08       	mov    QWORD PTR [rsp+0x8],rax
    1c4d:	e8 9e 24 00 00       	call   40f0 <__DualGate__3_1_75>
    1c52:	8a 8d 4e fa ff ff    	mov    cl,BYTE PTR [rbp-0x5b2]
    1c58:	48 8b 85 c0 fd ff ff 	mov    rax,QWORD PTR [rbp-0x240]
    1c5f:	4c 8b 8d 68 fa ff ff 	mov    r9,QWORD PTR [rbp-0x598]
    1c66:	4c 8b 9d 10 fd ff ff 	mov    r11,QWORD PTR [rbp-0x2f0]
    1c6d:	48 83 c4 10          	add    rsp,0x10
    1c71:	0f ae f0             	mfence 
    1c74:	4c 89 fe             	mov    rsi,r15
    1c77:	4c 29 e6             	sub    rsi,r12
    1c7a:	0f b6 c9             	movzx  ecx,cl
    1c7d:	89 ca                	mov    edx,ecx
    1c7f:	48 89 d1             	mov    rcx,rdx
    1c82:	48 0f af ce          	imul   rcx,rsi
    1c86:	4c 01 e1             	add    rcx,r12
    1c89:	4c 89 e6             	mov    rsi,r12
    1c8c:	4c 29 fe             	sub    rsi,r15
    1c8f:	48 0f af d6          	imul   rdx,rsi
    1c93:	4c 01 fa             	add    rdx,r15
    1c96:	41 c6 04 0b 00       	mov    BYTE PTR [r11+rcx*1],0x0
    1c9b:	4c 89 d9             	mov    rcx,r11
    1c9e:	48 01 d1             	add    rcx,rdx
    1ca1:	0f ae 39             	clflush BYTE PTR [rcx]
    1ca4:	40 8a 30             	mov    sil,BYTE PTR [rax]
    1ca7:	40 c0 ee 02          	shr    sil,0x2
    1cab:	40 80 e6 01          	and    sil,0x1
    1caf:	8b 85 28 fe ff ff    	mov    eax,DWORD PTR [rbp-0x1d8]
    1cb5:	48 83 c0 01          	add    rax,0x1
    1cb9:	48 69 f8 40 04 00 00 	imul   rdi,rax,0x440
    1cc0:	4c 89 da             	mov    rdx,r11
    1cc3:	48 01 fa             	add    rdx,rdi
    1cc6:	8b 85 2c fe ff ff    	mov    eax,DWORD PTR [rbp-0x1d4]
    1ccc:	48 83 c0 01          	add    rax,0x1
    1cd0:	48 69 c0 40 04 00 00 	imul   rax,rax,0x440
    1cd7:	4c 89 d9             	mov    rcx,r11
    1cda:	48 01 c1             	add    rcx,rax
    1cdd:	49 89 c0             	mov    r8,rax
    1ce0:	49 29 f8             	sub    r8,rdi
    1ce3:	40 0f b6 f6          	movzx  esi,sil
    1ce7:	41 89 f2             	mov    r10d,esi
    1cea:	4c 89 d6             	mov    rsi,r10
    1ced:	49 0f af f0          	imul   rsi,r8
    1cf1:	4c 8b 85 60 fa ff ff 	mov    r8,QWORD PTR [rbp-0x5a0]
    1cf8:	48 01 fe             	add    rsi,rdi
    1cfb:	48 29 c7             	sub    rdi,rax
    1cfe:	4c 0f af d7          	imul   r10,rdi
    1d02:	48 8b bd 50 fa ff ff 	mov    rdi,QWORD PTR [rbp-0x5b0]
    1d09:	49 01 c2             	add    r10,rax
    1d0c:	8a 85 4f fa ff ff    	mov    al,BYTE PTR [rbp-0x5b1]
    1d12:	41 c6 04 33 00       	mov    BYTE PTR [r11+rsi*1],0x0
    1d17:	4c 89 de             	mov    rsi,r11
    1d1a:	4c 01 d6             	add    rsi,r10
    1d1d:	0f ae 3e             	clflush BYTE PTR [rsi]
    1d20:	49 89 da             	mov    r10,rbx
    1d23:	4d 29 f2             	sub    r10,r14
    1d26:	0f b6 c0             	movzx  eax,al
    1d29:	89 c6                	mov    esi,eax
    1d2b:	48 89 f0             	mov    rax,rsi
    1d2e:	49 0f af c2          	imul   rax,r10
    1d32:	4c 01 f0             	add    rax,r14
    1d35:	4d 89 f2             	mov    r10,r14
    1d38:	49 29 da             	sub    r10,rbx
    1d3b:	49 0f af f2          	imul   rsi,r10
    1d3f:	48 01 de             	add    rsi,rbx
    1d42:	41 c6 04 03 00       	mov    BYTE PTR [r11+rax*1],0x0
    1d47:	4c 89 d8             	mov    rax,r11
    1d4a:	48 01 f0             	add    rax,rsi
    1d4d:	0f ae 38             	clflush BYTE PTR [rax]
    1d50:	8b 85 c8 fe ff ff    	mov    eax,DWORD PTR [rbp-0x138]
    1d56:	48 83 c0 01          	add    rax,0x1
    1d5a:	4c 69 d0 40 04 00 00 	imul   r10,rax,0x440
    1d61:	4c 89 d6             	mov    rsi,r10
    1d64:	48 81 ee 00 01 00 00 	sub    rsi,0x100
    1d6b:	4c 89 d8             	mov    rax,r11
    1d6e:	4c 01 d0             	add    rax,r10
    1d71:	48 89 85 b0 fa ff ff 	mov    QWORD PTR [rbp-0x550],rax
    1d78:	4d 89 da             	mov    r10,r11
    1d7b:	49 01 f2             	add    r10,rsi
    1d7e:	0f ae 38             	clflush BYTE PTR [rax]
    1d81:	8b 85 cc fe ff ff    	mov    eax,DWORD PTR [rbp-0x134]
    1d87:	48 83 c0 01          	add    rax,0x1
    1d8b:	48 69 c0 40 04 00 00 	imul   rax,rax,0x440
    1d92:	48 89 c6             	mov    rsi,rax
    1d95:	48 81 ee 00 01 00 00 	sub    rsi,0x100
    1d9c:	49 01 c3             	add    r11,rax
    1d9f:	48 8b 85 10 fd ff ff 	mov    rax,QWORD PTR [rbp-0x2f0]
    1da6:	4c 89 9d b8 fa ff ff 	mov    QWORD PTR [rbp-0x548],r11
    1dad:	48 01 f0             	add    rax,rsi
    1db0:	48 8b b5 58 fa ff ff 	mov    rsi,QWORD PTR [rbp-0x5a8]
    1db7:	41 0f ae 3b          	clflush BYTE PTR [r11]
    1dbb:	0f ae f0             	mfence 
    1dbe:	48 83 ec 10          	sub    rsp,0x10
    1dc2:	4c 89 14 24          	mov    QWORD PTR [rsp],r10
    1dc6:	48 89 44 24 08       	mov    QWORD PTR [rsp+0x8],rax
    1dcb:	e8 20 23 00 00       	call   40f0 <__DualGate__3_1_75>
    1dd0:	8a 95 e7 f9 ff ff    	mov    dl,BYTE PTR [rbp-0x619]
    1dd6:	48 8b 8d e8 f9 ff ff 	mov    rcx,QWORD PTR [rbp-0x618]
    1ddd:	48 8b 85 18 fa ff ff 	mov    rax,QWORD PTR [rbp-0x5e8]
    1de4:	4c 8b 9d f0 f9 ff ff 	mov    r11,QWORD PTR [rbp-0x610]
    1deb:	48 8b bd f8 f9 ff ff 	mov    rdi,QWORD PTR [rbp-0x608]
    1df2:	48 8b b5 00 fa ff ff 	mov    rsi,QWORD PTR [rbp-0x600]
    1df9:	4c 8b 85 08 fa ff ff 	mov    r8,QWORD PTR [rbp-0x5f8]
    1e00:	4c 8b 8d 10 fa ff ff 	mov    r9,QWORD PTR [rbp-0x5f0]
    1e07:	48 83 c4 10          	add    rsp,0x10
    1e0b:	0f ae f0             	mfence 
    1e0e:	48 29 c8             	sub    rax,rcx
    1e11:	0f b6 d2             	movzx  edx,dl
    1e14:	41 89 d2             	mov    r10d,edx
    1e17:	4c 89 d2             	mov    rdx,r10
    1e1a:	48 0f af d0          	imul   rdx,rax
    1e1e:	48 8b 85 18 fa ff ff 	mov    rax,QWORD PTR [rbp-0x5e8]
    1e25:	48 01 ca             	add    rdx,rcx
    1e28:	48 29 c1             	sub    rcx,rax
    1e2b:	4c 0f af d1          	imul   r10,rcx
    1e2f:	48 8b 8d 10 fd ff ff 	mov    rcx,QWORD PTR [rbp-0x2f0]
    1e36:	49 01 c2             	add    r10,rax
    1e39:	48 8b 85 b8 fd ff ff 	mov    rax,QWORD PTR [rbp-0x248]
    1e40:	c6 04 11 00          	mov    BYTE PTR [rcx+rdx*1],0x0
    1e44:	48 89 ca             	mov    rdx,rcx
    1e47:	4c 01 d2             	add    rdx,r10
    1e4a:	0f ae 3a             	clflush BYTE PTR [rdx]
    1e4d:	8a 00                	mov    al,BYTE PTR [rax]
    1e4f:	c0 e8 03             	shr    al,0x3
    1e52:	24 01                	and    al,0x1
    1e54:	8b 95 10 fe ff ff    	mov    edx,DWORD PTR [rbp-0x1f0]
    1e5a:	48 83 c2 01          	add    rdx,0x1
    1e5e:	4c 69 d2 40 04 00 00 	imul   r10,rdx,0x440
    1e65:	4c 89 95 28 fa ff ff 	mov    QWORD PTR [rbp-0x5d8],r10
    1e6c:	48 89 ca             	mov    rdx,rcx
    1e6f:	4c 01 d2             	add    rdx,r10
    1e72:	44 8b 95 14 fe ff ff 	mov    r10d,DWORD PTR [rbp-0x1ec]
    1e79:	49 83 c2 01          	add    r10,0x1
    1e7d:	4d 69 d2 40 04 00 00 	imul   r10,r10,0x440
    1e84:	4c 89 95 20 fa ff ff 	mov    QWORD PTR [rbp-0x5e0],r10
    1e8b:	4c 01 d1             	add    rcx,r10
    1e8e:	4c 8b 95 28 fa ff ff 	mov    r10,QWORD PTR [rbp-0x5d8]
    1e95:	48 89 8d 40 fa ff ff 	mov    QWORD PTR [rbp-0x5c0],rcx
    1e9c:	48 8b 8d 20 fa ff ff 	mov    rcx,QWORD PTR [rbp-0x5e0]
    1ea3:	4c 29 d1             	sub    rcx,r10
    1ea6:	0f b6 c0             	movzx  eax,al
    1ea9:	41 89 c2             	mov    r10d,eax
    1eac:	4c 89 d0             	mov    rax,r10
    1eaf:	48 0f af c1          	imul   rax,rcx
    1eb3:	48 8b 8d 28 fa ff ff 	mov    rcx,QWORD PTR [rbp-0x5d8]
    1eba:	48 01 c8             	add    rax,rcx
    1ebd:	48 8b 8d 20 fa ff ff 	mov    rcx,QWORD PTR [rbp-0x5e0]
    1ec4:	48 89 85 30 fa ff ff 	mov    QWORD PTR [rbp-0x5d0],rax
    1ecb:	48 8b 85 28 fa ff ff 	mov    rax,QWORD PTR [rbp-0x5d8]
    1ed2:	48 29 c8             	sub    rax,rcx
    1ed5:	4c 0f af d0          	imul   r10,rax
    1ed9:	48 8b 85 30 fa ff ff 	mov    rax,QWORD PTR [rbp-0x5d0]
    1ee0:	49 01 ca             	add    r10,rcx
    1ee3:	48 8b 8d 10 fd ff ff 	mov    rcx,QWORD PTR [rbp-0x2f0]
    1eea:	c6 04 01 00          	mov    BYTE PTR [rcx+rax*1],0x0
    1eee:	8a 85 3f fa ff ff    	mov    al,BYTE PTR [rbp-0x5c1]
    1ef4:	4c 01 d1             	add    rcx,r10
    1ef7:	0f ae 39             	clflush BYTE PTR [rcx]
    1efa:	4c 89 e9             	mov    rcx,r13
    1efd:	4c 29 d9             	sub    rcx,r11
    1f00:	0f b6 c0             	movzx  eax,al
    1f03:	41 89 c2             	mov    r10d,eax
    1f06:	4c 89 d0             	mov    rax,r10
    1f09:	48 0f af c1          	imul   rax,rcx
    1f0d:	48 8b 8d 40 fa ff ff 	mov    rcx,QWORD PTR [rbp-0x5c0]
    1f14:	4c 01 d8             	add    rax,r11
    1f17:	4d 29 eb             	sub    r11,r13
    1f1a:	4d 0f af d3          	imul   r10,r11
    1f1e:	4c 8b 9d 10 fd ff ff 	mov    r11,QWORD PTR [rbp-0x2f0]
    1f25:	4d 01 ea             	add    r10,r13
    1f28:	41 c6 04 03 00       	mov    BYTE PTR [r11+rax*1],0x0
    1f2d:	4c 89 d8             	mov    rax,r11
    1f30:	4c 01 d0             	add    rax,r10
    1f33:	0f ae 38             	clflush BYTE PTR [rax]
    1f36:	8b 85 f0 fe ff ff    	mov    eax,DWORD PTR [rbp-0x110]
    1f3c:	48 83 c0 01          	add    rax,0x1
    1f40:	4c 69 d0 40 04 00 00 	imul   r10,rax,0x440
    1f47:	4d 89 d5             	mov    r13,r10
    1f4a:	49 81 ed 00 01 00 00 	sub    r13,0x100
    1f51:	4c 89 d8             	mov    rax,r11
    1f54:	4c 01 d0             	add    rax,r10
    1f57:	48 89 85 68 fc ff ff 	mov    QWORD PTR [rbp-0x398],rax
    1f5e:	4d 89 da             	mov    r10,r11
    1f61:	4d 01 ea             	add    r10,r13
    1f64:	0f ae 38             	clflush BYTE PTR [rax]
    1f67:	8b 85 f4 fe ff ff    	mov    eax,DWORD PTR [rbp-0x10c]
    1f6d:	48 83 c0 01          	add    rax,0x1
    1f71:	48 69 c0 40 04 00 00 	imul   rax,rax,0x440
    1f78:	49 89 c5             	mov    r13,rax
    1f7b:	49 81 ed 00 01 00 00 	sub    r13,0x100
    1f82:	49 01 c3             	add    r11,rax
    1f85:	48 8b 85 10 fd ff ff 	mov    rax,QWORD PTR [rbp-0x2f0]
    1f8c:	4c 89 9d 88 fc ff ff 	mov    QWORD PTR [rbp-0x378],r11
    1f93:	4c 01 e8             	add    rax,r13
    1f96:	41 0f ae 3b          	clflush BYTE PTR [r11]
    1f9a:	0f ae f0             	mfence 
    1f9d:	48 83 ec 10          	sub    rsp,0x10
    1fa1:	4c 89 14 24          	mov    QWORD PTR [rsp],r10
    1fa5:	48 89 44 24 08       	mov    QWORD PTR [rsp+0x8],rax
    1faa:	e8 41 21 00 00       	call   40f0 <__DualGate__3_1_75>
    1faf:	8a 95 4e fa ff ff    	mov    dl,BYTE PTR [rbp-0x5b2]
    1fb5:	48 8b 85 c0 fd ff ff 	mov    rax,QWORD PTR [rbp-0x240]
    1fbc:	44 8a 95 4f fa ff ff 	mov    r10b,BYTE PTR [rbp-0x5b1]
    1fc3:	48 8b bd 50 fa ff ff 	mov    rdi,QWORD PTR [rbp-0x5b0]
    1fca:	48 8b b5 58 fa ff ff 	mov    rsi,QWORD PTR [rbp-0x5a8]
    1fd1:	4c 8b 85 60 fa ff ff 	mov    r8,QWORD PTR [rbp-0x5a0]
    1fd8:	4c 8b 8d 68 fa ff ff 	mov    r9,QWORD PTR [rbp-0x598]
    1fdf:	48 8b 8d 10 fd ff ff 	mov    rcx,QWORD PTR [rbp-0x2f0]
    1fe6:	48 83 c4 10          	add    rsp,0x10
    1fea:	0f ae f0             	mfence 
    1fed:	4d 89 fd             	mov    r13,r15
    1ff0:	4d 29 e5             	sub    r13,r12
    1ff3:	0f b6 d2             	movzx  edx,dl
    1ff6:	41 89 d3             	mov    r11d,edx
    1ff9:	4c 89 da             	mov    rdx,r11
    1ffc:	49 0f af d5          	imul   rdx,r13
    2000:	4c 01 e2             	add    rdx,r12
    2003:	4d 29 fc             	sub    r12,r15
    2006:	4d 0f af dc          	imul   r11,r12
    200a:	4d 01 fb             	add    r11,r15
    200d:	c6 04 11 00          	mov    BYTE PTR [rcx+rdx*1],0x0
    2011:	48 89 ca             	mov    rdx,rcx
    2014:	4c 01 da             	add    rdx,r11
    2017:	0f ae 3a             	clflush BYTE PTR [rdx]
    201a:	44 8a 18             	mov    r11b,BYTE PTR [rax]
    201d:	41 c0 eb 03          	shr    r11b,0x3
    2021:	41 80 e3 01          	and    r11b,0x1
    2025:	8b 85 30 fe ff ff    	mov    eax,DWORD PTR [rbp-0x1d0]
    202b:	48 83 c0 01          	add    rax,0x1
    202f:	4c 69 e8 40 04 00 00 	imul   r13,rax,0x440
    2036:	48 89 ca             	mov    rdx,rcx
    2039:	4c 01 ea             	add    rdx,r13
    203c:	8b 85 34 fe ff ff    	mov    eax,DWORD PTR [rbp-0x1cc]
    2042:	48 83 c0 01          	add    rax,0x1
    2046:	4c 69 e0 40 04 00 00 	imul   r12,rax,0x440
    204d:	4c 01 e1             	add    rcx,r12
    2050:	4c 89 e0             	mov    rax,r12
    2053:	4c 29 e8             	sub    rax,r13
    2056:	45 0f b6 db          	movzx  r11d,r11b
    205a:	45 89 df             	mov    r15d,r11d
    205d:	4d 89 fb             	mov    r11,r15
    2060:	4c 0f af d8          	imul   r11,rax
    2064:	48 8b 85 10 fd ff ff 	mov    rax,QWORD PTR [rbp-0x2f0]
    206b:	4d 01 eb             	add    r11,r13
    206e:	4d 29 e5             	sub    r13,r12
    2071:	4d 0f af fd          	imul   r15,r13
    2075:	4d 01 e7             	add    r15,r12
    2078:	42 c6 04 18 00       	mov    BYTE PTR [rax+r11*1],0x0
    207d:	49 89 c3             	mov    r11,rax
    2080:	4d 01 fb             	add    r11,r15
    2083:	41 0f ae 3b          	clflush BYTE PTR [r11]
    2087:	49 89 df             	mov    r15,rbx
    208a:	4d 29 f7             	sub    r15,r14
    208d:	45 0f b6 d2          	movzx  r10d,r10b
    2091:	45 89 d3             	mov    r11d,r10d
    2094:	4d 89 da             	mov    r10,r11
    2097:	4d 0f af d7          	imul   r10,r15
    209b:	4d 01 f2             	add    r10,r14
    209e:	49 29 de             	sub    r14,rbx
    20a1:	4d 0f af de          	imul   r11,r14
    20a5:	49 01 db             	add    r11,rbx
    20a8:	42 c6 04 10 00       	mov    BYTE PTR [rax+r10*1],0x0
    20ad:	49 89 c2             	mov    r10,rax
    20b0:	4d 01 da             	add    r10,r11
    20b3:	41 0f ae 3a          	clflush BYTE PTR [r10]
    20b7:	44 8b 95 e8 fe ff ff 	mov    r10d,DWORD PTR [rbp-0x118]
    20be:	49 83 c2 01          	add    r10,0x1
    20c2:	4d 69 d2 40 04 00 00 	imul   r10,r10,0x440
    20c9:	4c 89 d3             	mov    rbx,r10
    20cc:	48 81 eb 00 01 00 00 	sub    rbx,0x100
    20d3:	49 89 c3             	mov    r11,rax
    20d6:	4d 01 d3             	add    r11,r10
    20d9:	4c 89 9d 58 fc ff ff 	mov    QWORD PTR [rbp-0x3a8],r11
    20e0:	49 89 c2             	mov    r10,rax
    20e3:	49 01 da             	add    r10,rbx
    20e6:	41 0f ae 3b          	clflush BYTE PTR [r11]
    20ea:	44 8b 9d ec fe ff ff 	mov    r11d,DWORD PTR [rbp-0x114]
    20f1:	49 83 c3 01          	add    r11,0x1
    20f5:	4d 69 f3 40 04 00 00 	imul   r14,r11,0x440
    20fc:	4c 89 f3             	mov    rbx,r14
    20ff:	48 81 eb 00 01 00 00 	sub    rbx,0x100
    2106:	49 89 c3             	mov    r11,rax
    2109:	4d 01 f3             	add    r11,r14
    210c:	4c 89 9d 60 fc ff ff 	mov    QWORD PTR [rbp-0x3a0],r11
    2113:	48 01 d8             	add    rax,rbx
    2116:	41 0f ae 3b          	clflush BYTE PTR [r11]
    211a:	0f ae f0             	mfence 
    211d:	48 83 ec 10          	sub    rsp,0x10
    2121:	4c 89 14 24          	mov    QWORD PTR [rsp],r10
    2125:	48 89 44 24 08       	mov    QWORD PTR [rsp+0x8],rax
    212a:	e8 c1 1f 00 00       	call   40f0 <__DualGate__3_1_75>
    212f:	48 8b bd 70 fa ff ff 	mov    rdi,QWORD PTR [rbp-0x590]
    2136:	48 8b b5 78 fa ff ff 	mov    rsi,QWORD PTR [rbp-0x588]
    213d:	48 8b 85 10 fd ff ff 	mov    rax,QWORD PTR [rbp-0x2f0]
    2144:	48 83 c4 10          	add    rsp,0x10
    2148:	0f ae f0             	mfence 
    214b:	8b 8d 28 ff ff ff    	mov    ecx,DWORD PTR [rbp-0xd8]
    2151:	48 83 c1 01          	add    rcx,0x1
    2155:	48 69 d1 40 04 00 00 	imul   rdx,rcx,0x440
    215c:	49 89 d0             	mov    r8,rdx
    215f:	49 81 e8 00 01 00 00 	sub    r8,0x100
    2166:	48 89 c1             	mov    rcx,rax
    2169:	48 01 d1             	add    rcx,rdx
    216c:	48 89 8d d0 fa ff ff 	mov    QWORD PTR [rbp-0x530],rcx
    2173:	48 89 c2             	mov    rdx,rax
    2176:	4c 01 c2             	add    rdx,r8
    2179:	0f ae 39             	clflush BYTE PTR [rcx]
    217c:	8b 8d 2c ff ff ff    	mov    ecx,DWORD PTR [rbp-0xd4]
    2182:	48 83 c1 01          	add    rcx,0x1
    2186:	48 69 c9 40 04 00 00 	imul   rcx,rcx,0x440
    218d:	49 89 c9             	mov    r9,rcx
    2190:	49 81 e9 00 01 00 00 	sub    r9,0x100
    2197:	49 89 c0             	mov    r8,rax
    219a:	49 01 c8             	add    r8,rcx
    219d:	4c 89 85 d8 fa ff ff 	mov    QWORD PTR [rbp-0x528],r8
    21a4:	48 89 c1             	mov    rcx,rax
    21a7:	4c 01 c9             	add    rcx,r9
    21aa:	41 0f ae 38          	clflush BYTE PTR [r8]
    21ae:	44 8b 85 30 ff ff ff 	mov    r8d,DWORD PTR [rbp-0xd0]
    21b5:	49 83 c0 01          	add    r8,0x1
    21b9:	4d 69 c0 40 04 00 00 	imul   r8,r8,0x440
    21c0:	4d 89 c2             	mov    r10,r8
    21c3:	49 81 ea 00 01 00 00 	sub    r10,0x100
    21ca:	49 89 c1             	mov    r9,rax
    21cd:	4d 01 c1             	add    r9,r8
    21d0:	4c 89 8d f8 fa ff ff 	mov    QWORD PTR [rbp-0x508],r9
    21d7:	49 89 c0             	mov    r8,rax
    21da:	4d 01 d0             	add    r8,r10
    21dd:	41 0f ae 39          	clflush BYTE PTR [r9]
    21e1:	44 8b 8d 34 ff ff ff 	mov    r9d,DWORD PTR [rbp-0xcc]
    21e8:	49 83 c1 01          	add    r9,0x1
    21ec:	4d 69 c9 40 04 00 00 	imul   r9,r9,0x440
    21f3:	4d 89 cb             	mov    r11,r9
    21f6:	49 81 eb 00 01 00 00 	sub    r11,0x100
    21fd:	49 89 c2             	mov    r10,rax
    2200:	4d 01 ca             	add    r10,r9
    2203:	4c 89 95 00 fb ff ff 	mov    QWORD PTR [rbp-0x500],r10
    220a:	49 89 c1             	mov    r9,rax
    220d:	4d 01 d9             	add    r9,r11
    2210:	41 0f ae 3a          	clflush BYTE PTR [r10]
    2214:	44 8b 95 38 ff ff ff 	mov    r10d,DWORD PTR [rbp-0xc8]
    221b:	49 83 c2 01          	add    r10,0x1
    221f:	4d 69 d2 40 04 00 00 	imul   r10,r10,0x440
    2226:	4c 89 d3             	mov    rbx,r10
    2229:	48 81 eb 00 01 00 00 	sub    rbx,0x100
    2230:	49 89 c3             	mov    r11,rax
    2233:	4d 01 d3             	add    r11,r10
    2236:	4c 89 9d 18 fb ff ff 	mov    QWORD PTR [rbp-0x4e8],r11
    223d:	49 89 c2             	mov    r10,rax
    2240:	49 01 da             	add    r10,rbx
    2243:	41 0f ae 3b          	clflush BYTE PTR [r11]
    2247:	44 8b 9d 3c ff ff ff 	mov    r11d,DWORD PTR [rbp-0xc4]
    224e:	49 83 c3 01          	add    r11,0x1
    2252:	4d 69 f3 40 04 00 00 	imul   r14,r11,0x440
    2259:	4c 89 f3             	mov    rbx,r14
    225c:	48 81 eb 00 01 00 00 	sub    rbx,0x100
    2263:	49 89 c3             	mov    r11,rax
    2266:	4d 01 f3             	add    r11,r14
    2269:	4c 89 9d 20 fb ff ff 	mov    QWORD PTR [rbp-0x4e0],r11
    2270:	48 01 d8             	add    rax,rbx
    2273:	41 0f ae 3b          	clflush BYTE PTR [r11]
    2277:	0f ae f0             	mfence 
    227a:	48 83 ec 10          	sub    rsp,0x10
    227e:	4c 89 14 24          	mov    QWORD PTR [rsp],r10
    2282:	48 89 44 24 08       	mov    QWORD PTR [rsp+0x8],rax
    2287:	e8 f4 20 00 00       	call   4380 <__DualGate__1_3_42>
    228c:	48 8b bd 80 fa ff ff 	mov    rdi,QWORD PTR [rbp-0x580]
    2293:	48 8b b5 88 fa ff ff 	mov    rsi,QWORD PTR [rbp-0x578]
    229a:	48 8b 85 10 fd ff ff 	mov    rax,QWORD PTR [rbp-0x2f0]
    22a1:	48 83 c4 10          	add    rsp,0x10
    22a5:	0f ae f0             	mfence 
    22a8:	8b 8d 40 ff ff ff    	mov    ecx,DWORD PTR [rbp-0xc0]
    22ae:	48 83 c1 01          	add    rcx,0x1
    22b2:	48 69 d1 40 04 00 00 	imul   rdx,rcx,0x440
    22b9:	49 89 d0             	mov    r8,rdx
    22bc:	49 81 e8 00 01 00 00 	sub    r8,0x100
    22c3:	48 89 c1             	mov    rcx,rax
    22c6:	48 01 d1             	add    rcx,rdx
    22c9:	48 89 8d e0 fa ff ff 	mov    QWORD PTR [rbp-0x520],rcx
    22d0:	48 89 c2             	mov    rdx,rax
    22d3:	4c 01 c2             	add    rdx,r8
    22d6:	0f ae 39             	clflush BYTE PTR [rcx]
    22d9:	8b 8d 44 ff ff ff    	mov    ecx,DWORD PTR [rbp-0xbc]
    22df:	48 83 c1 01          	add    rcx,0x1
    22e3:	48 69 c9 40 04 00 00 	imul   rcx,rcx,0x440
    22ea:	49 89 c9             	mov    r9,rcx
    22ed:	49 81 e9 00 01 00 00 	sub    r9,0x100
    22f4:	49 89 c0             	mov    r8,rax
    22f7:	49 01 c8             	add    r8,rcx
    22fa:	4c 89 85 e8 fa ff ff 	mov    QWORD PTR [rbp-0x518],r8
    2301:	48 89 c1             	mov    rcx,rax
    2304:	4c 01 c9             	add    rcx,r9
    2307:	41 0f ae 38          	clflush BYTE PTR [r8]
    230b:	44 8b 85 48 ff ff ff 	mov    r8d,DWORD PTR [rbp-0xb8]
    2312:	49 83 c0 01          	add    r8,0x1
    2316:	4d 69 c0 40 04 00 00 	imul   r8,r8,0x440
    231d:	4d 89 c2             	mov    r10,r8
    2320:	49 81 ea 00 01 00 00 	sub    r10,0x100
    2327:	49 89 c1             	mov    r9,rax
    232a:	4d 01 c1             	add    r9,r8
    232d:	4c 89 8d 08 fb ff ff 	mov    QWORD PTR [rbp-0x4f8],r9
    2334:	49 89 c0             	mov    r8,rax
    2337:	4d 01 d0             	add    r8,r10
    233a:	41 0f ae 39          	clflush BYTE PTR [r9]
    233e:	44 8b 8d 4c ff ff ff 	mov    r9d,DWORD PTR [rbp-0xb4]
    2345:	49 83 c1 01          	add    r9,0x1
    2349:	4d 69 c9 40 04 00 00 	imul   r9,r9,0x440
    2350:	4d 89 cb             	mov    r11,r9
    2353:	49 81 eb 00 01 00 00 	sub    r11,0x100
    235a:	49 89 c2             	mov    r10,rax
    235d:	4d 01 ca             	add    r10,r9
    2360:	4c 89 95 10 fb ff ff 	mov    QWORD PTR [rbp-0x4f0],r10
    2367:	49 89 c1             	mov    r9,rax
    236a:	4d 01 d9             	add    r9,r11
    236d:	41 0f ae 3a          	clflush BYTE PTR [r10]
    2371:	44 8b 95 50 ff ff ff 	mov    r10d,DWORD PTR [rbp-0xb0]
    2378:	49 83 c2 01          	add    r10,0x1
    237c:	4d 69 d2 40 04 00 00 	imul   r10,r10,0x440
    2383:	4c 89 d3             	mov    rbx,r10
    2386:	48 81 eb 00 01 00 00 	sub    rbx,0x100
    238d:	49 89 c3             	mov    r11,rax
    2390:	4d 01 d3             	add    r11,r10
    2393:	4c 89 9d 28 fb ff ff 	mov    QWORD PTR [rbp-0x4d8],r11
    239a:	49 89 c2             	mov    r10,rax
    239d:	49 01 da             	add    r10,rbx
    23a0:	41 0f ae 3b          	clflush BYTE PTR [r11]
    23a4:	44 8b 9d 54 ff ff ff 	mov    r11d,DWORD PTR [rbp-0xac]
    23ab:	49 83 c3 01          	add    r11,0x1
    23af:	4d 69 f3 40 04 00 00 	imul   r14,r11,0x440
    23b6:	4c 89 f3             	mov    rbx,r14
    23b9:	48 81 eb 00 01 00 00 	sub    rbx,0x100
    23c0:	49 89 c3             	mov    r11,rax
    23c3:	4d 01 f3             	add    r11,r14
    23c6:	4c 89 9d 50 fb ff ff 	mov    QWORD PTR [rbp-0x4b0],r11
    23cd:	48 01 d8             	add    rax,rbx
    23d0:	41 0f ae 3b          	clflush BYTE PTR [r11]
    23d4:	0f ae f0             	mfence 
    23d7:	48 83 ec 10          	sub    rsp,0x10
    23db:	4c 89 14 24          	mov    QWORD PTR [rsp],r10
    23df:	48 89 44 24 08       	mov    QWORD PTR [rsp+0x8],rax
    23e4:	e8 97 1f 00 00       	call   4380 <__DualGate__1_3_42>
    23e9:	48 8b bd 90 fa ff ff 	mov    rdi,QWORD PTR [rbp-0x570]
    23f0:	48 8b b5 98 fa ff ff 	mov    rsi,QWORD PTR [rbp-0x568]
    23f7:	4c 8b 8d 10 fd ff ff 	mov    r9,QWORD PTR [rbp-0x2f0]
    23fe:	48 83 c4 10          	add    rsp,0x10
    2402:	0f ae f0             	mfence 
    2405:	8b 85 68 ff ff ff    	mov    eax,DWORD PTR [rbp-0x98]
    240b:	48 83 c0 01          	add    rax,0x1
    240f:	48 69 d0 40 04 00 00 	imul   rdx,rax,0x440
    2416:	48 89 d1             	mov    rcx,rdx
    2419:	48 81 e9 00 01 00 00 	sub    rcx,0x100
    2420:	4c 89 c8             	mov    rax,r9
    2423:	48 01 d0             	add    rax,rdx
    2426:	48 89 85 80 fb ff ff 	mov    QWORD PTR [rbp-0x480],rax
    242d:	4c 89 ca             	mov    rdx,r9
    2430:	48 01 ca             	add    rdx,rcx
    2433:	0f ae 38             	clflush BYTE PTR [rax]
    2436:	8b 85 6c ff ff ff    	mov    eax,DWORD PTR [rbp-0x94]
    243c:	48 83 c0 01          	add    rax,0x1
    2440:	48 69 c8 40 04 00 00 	imul   rcx,rax,0x440
    2447:	49 89 c8             	mov    r8,rcx
    244a:	49 81 e8 00 01 00 00 	sub    r8,0x100
    2451:	4c 89 c8             	mov    rax,r9
    2454:	48 01 c8             	add    rax,rcx
    2457:	48 89 85 88 fb ff ff 	mov    QWORD PTR [rbp-0x478],rax
    245e:	4c 89 c9             	mov    rcx,r9
    2461:	4c 01 c1             	add    rcx,r8
    2464:	0f ae 38             	clflush BYTE PTR [rax]
    2467:	8b 85 70 ff ff ff    	mov    eax,DWORD PTR [rbp-0x90]
    246d:	48 83 c0 01          	add    rax,0x1
    2471:	4c 69 c0 40 04 00 00 	imul   r8,rax,0x440
    2478:	4d 89 c2             	mov    r10,r8
    247b:	49 81 ea 00 01 00 00 	sub    r10,0x100
    2482:	4c 89 c8             	mov    rax,r9
    2485:	4c 01 c0             	add    rax,r8
    2488:	48 89 85 30 fb ff ff 	mov    QWORD PTR [rbp-0x4d0],rax
    248f:	4d 89 c8             	mov    r8,r9
    2492:	4d 01 d0             	add    r8,r10
    2495:	0f ae 38             	clflush BYTE PTR [rax]
    2498:	8b 85 74 ff ff ff    	mov    eax,DWORD PTR [rbp-0x8c]
    249e:	48 83 c0 01          	add    rax,0x1
    24a2:	4c 69 d8 40 04 00 00 	imul   r11,rax,0x440
    24a9:	4d 89 da             	mov    r10,r11
    24ac:	49 81 ea 00 01 00 00 	sub    r10,0x100
    24b3:	4c 89 c8             	mov    rax,r9
    24b6:	4c 01 d8             	add    rax,r11
    24b9:	48 89 85 38 fb ff ff 	mov    QWORD PTR [rbp-0x4c8],rax
    24c0:	4d 01 d1             	add    r9,r10
    24c3:	0f ae 38             	clflush BYTE PTR [rax]
    24c6:	0f ae f0             	mfence 
    24c9:	e8 12 21 00 00       	call   45e0 <__DualGate__1_2_10>
    24ce:	48 8b bd a0 fa ff ff 	mov    rdi,QWORD PTR [rbp-0x560]
    24d5:	48 8b b5 a8 fa ff ff 	mov    rsi,QWORD PTR [rbp-0x558]
    24dc:	4c 8b 8d 10 fd ff ff 	mov    r9,QWORD PTR [rbp-0x2f0]
    24e3:	0f ae f0             	mfence 
    24e6:	8b 85 78 ff ff ff    	mov    eax,DWORD PTR [rbp-0x88]
    24ec:	48 83 c0 01          	add    rax,0x1
    24f0:	48 69 d0 40 04 00 00 	imul   rdx,rax,0x440
    24f7:	48 89 d1             	mov    rcx,rdx
    24fa:	48 81 e9 00 01 00 00 	sub    rcx,0x100
    2501:	4c 89 c8             	mov    rax,r9
    2504:	48 01 d0             	add    rax,rdx
    2507:	48 89 85 90 fb ff ff 	mov    QWORD PTR [rbp-0x470],rax
    250e:	4c 89 ca             	mov    rdx,r9
    2511:	48 01 ca             	add    rdx,rcx
    2514:	0f ae 38             	clflush BYTE PTR [rax]
    2517:	8b 85 7c ff ff ff    	mov    eax,DWORD PTR [rbp-0x84]
    251d:	48 83 c0 01          	add    rax,0x1
    2521:	48 69 c8 40 04 00 00 	imul   rcx,rax,0x440
    2528:	49 89 c8             	mov    r8,rcx
    252b:	49 81 e8 00 01 00 00 	sub    r8,0x100
    2532:	4c 89 c8             	mov    rax,r9
    2535:	48 01 c8             	add    rax,rcx
    2538:	48 89 85 98 fb ff ff 	mov    QWORD PTR [rbp-0x468],rax
    253f:	4c 89 c9             	mov    rcx,r9
    2542:	4c 01 c1             	add    rcx,r8
    2545:	0f ae 38             	clflush BYTE PTR [rax]
    2548:	8b 45 80             	mov    eax,DWORD PTR [rbp-0x80]
    254b:	48 83 c0 01          	add    rax,0x1
    254f:	4c 69 c0 40 04 00 00 	imul   r8,rax,0x440
    2556:	4c 89 c0             	mov    rax,r8
    2559:	48 2d 00 01 00 00    	sub    rax,0x100
    255f:	4c 89 cb             	mov    rbx,r9
    2562:	4c 01 c3             	add    rbx,r8
    2565:	4d 89 c8             	mov    r8,r9
    2568:	49 01 c0             	add    r8,rax
    256b:	0f ae 3b             	clflush BYTE PTR [rbx]
    256e:	8b 45 84             	mov    eax,DWORD PTR [rbp-0x7c]
    2571:	48 83 c0 01          	add    rax,0x1
    2575:	4c 69 d8 40 04 00 00 	imul   r11,rax,0x440
    257c:	4d 89 da             	mov    r10,r11
    257f:	49 81 ea 00 01 00 00 	sub    r10,0x100
    2586:	4c 89 c8             	mov    rax,r9
    2589:	4c 01 d8             	add    rax,r11
    258c:	48 89 85 40 fb ff ff 	mov    QWORD PTR [rbp-0x4c0],rax
    2593:	4d 01 d1             	add    r9,r10
    2596:	0f ae 38             	clflush BYTE PTR [rax]
    2599:	0f ae f0             	mfence 
    259c:	e8 3f 20 00 00       	call   45e0 <__DualGate__1_2_10>
    25a1:	48 8b bd b0 fa ff ff 	mov    rdi,QWORD PTR [rbp-0x550]
    25a8:	48 8b b5 b8 fa ff ff 	mov    rsi,QWORD PTR [rbp-0x548]
    25af:	4c 8b 8d 10 fd ff ff 	mov    r9,QWORD PTR [rbp-0x2f0]
    25b6:	0f ae f0             	mfence 
    25b9:	8b 45 98             	mov    eax,DWORD PTR [rbp-0x68]
    25bc:	48 83 c0 01          	add    rax,0x1
    25c0:	48 69 d0 40 04 00 00 	imul   rdx,rax,0x440
    25c7:	48 89 d1             	mov    rcx,rdx
    25ca:	48 81 e9 00 01 00 00 	sub    rcx,0x100
    25d1:	4c 89 c8             	mov    rax,r9
    25d4:	48 01 d0             	add    rax,rdx
    25d7:	48 89 85 b8 fb ff ff 	mov    QWORD PTR [rbp-0x448],rax
    25de:	4c 89 ca             	mov    rdx,r9
    25e1:	48 01 ca             	add    rdx,rcx
    25e4:	0f ae 38             	clflush BYTE PTR [rax]
    25e7:	8b 45 9c             	mov    eax,DWORD PTR [rbp-0x64]
    25ea:	48 83 c0 01          	add    rax,0x1
    25ee:	48 69 c8 40 04 00 00 	imul   rcx,rax,0x440
    25f5:	49 89 c8             	mov    r8,rcx
    25f8:	49 81 e8 00 01 00 00 	sub    r8,0x100
    25ff:	4c 89 c8             	mov    rax,r9
    2602:	48 01 c8             	add    rax,rcx
    2605:	48 89 85 c0 fb ff ff 	mov    QWORD PTR [rbp-0x440],rax
    260c:	4c 89 c9             	mov    rcx,r9
    260f:	4c 01 c1             	add    rcx,r8
    2612:	0f ae 38             	clflush BYTE PTR [rax]
    2615:	8b 45 a0             	mov    eax,DWORD PTR [rbp-0x60]
    2618:	48 83 c0 01          	add    rax,0x1
    261c:	4c 69 c0 40 04 00 00 	imul   r8,rax,0x440
    2623:	4d 89 c2             	mov    r10,r8
    2626:	49 81 ea 00 01 00 00 	sub    r10,0x100
    262d:	4c 89 c8             	mov    rax,r9
    2630:	4c 01 c0             	add    rax,r8
    2633:	48 89 85 e0 fb ff ff 	mov    QWORD PTR [rbp-0x420],rax
    263a:	4d 89 c8             	mov    r8,r9
    263d:	4d 01 d0             	add    r8,r10
    2640:	0f ae 38             	clflush BYTE PTR [rax]
    2643:	8b 45 a4             	mov    eax,DWORD PTR [rbp-0x5c]
    2646:	48 83 c0 01          	add    rax,0x1
    264a:	4c 69 d8 40 04 00 00 	imul   r11,rax,0x440
    2651:	4d 89 da             	mov    r10,r11
    2654:	49 81 ea 00 01 00 00 	sub    r10,0x100
    265b:	4c 89 c8             	mov    rax,r9
    265e:	4c 01 d8             	add    rax,r11
    2661:	48 89 85 e8 fb ff ff 	mov    QWORD PTR [rbp-0x418],rax
    2668:	4d 01 d1             	add    r9,r10
    266b:	0f ae 38             	clflush BYTE PTR [rax]
    266e:	0f ae f0             	mfence 
    2671:	e8 6a 1f 00 00       	call   45e0 <__DualGate__1_2_10>
    2676:	48 8b bd c0 fa ff ff 	mov    rdi,QWORD PTR [rbp-0x540]
    267d:	48 8b b5 c8 fa ff ff 	mov    rsi,QWORD PTR [rbp-0x538]
    2684:	4c 8b 8d 10 fd ff ff 	mov    r9,QWORD PTR [rbp-0x2f0]
    268b:	0f ae f0             	mfence 
    268e:	8b 45 a8             	mov    eax,DWORD PTR [rbp-0x58]
    2691:	48 83 c0 01          	add    rax,0x1
    2695:	48 69 d0 40 04 00 00 	imul   rdx,rax,0x440
    269c:	48 89 d1             	mov    rcx,rdx
    269f:	48 81 e9 00 01 00 00 	sub    rcx,0x100
    26a6:	4c 89 c8             	mov    rax,r9
    26a9:	48 01 d0             	add    rax,rdx
    26ac:	48 89 85 c8 fb ff ff 	mov    QWORD PTR [rbp-0x438],rax
    26b3:	4c 89 ca             	mov    rdx,r9
    26b6:	48 01 ca             	add    rdx,rcx
    26b9:	0f ae 38             	clflush BYTE PTR [rax]
    26bc:	8b 45 ac             	mov    eax,DWORD PTR [rbp-0x54]
    26bf:	48 83 c0 01          	add    rax,0x1
    26c3:	48 69 c8 40 04 00 00 	imul   rcx,rax,0x440
    26ca:	49 89 c8             	mov    r8,rcx
    26cd:	49 81 e8 00 01 00 00 	sub    r8,0x100
    26d4:	4c 89 c8             	mov    rax,r9
    26d7:	48 01 c8             	add    rax,rcx
    26da:	48 89 85 d0 fb ff ff 	mov    QWORD PTR [rbp-0x430],rax
    26e1:	4c 89 c9             	mov    rcx,r9
    26e4:	4c 01 c1             	add    rcx,r8
    26e7:	0f ae 38             	clflush BYTE PTR [rax]
    26ea:	8b 45 b0             	mov    eax,DWORD PTR [rbp-0x50]
    26ed:	48 83 c0 01          	add    rax,0x1
    26f1:	4c 69 c0 40 04 00 00 	imul   r8,rax,0x440
    26f8:	4d 89 c2             	mov    r10,r8
    26fb:	49 81 ea 00 01 00 00 	sub    r10,0x100
    2702:	4c 89 c8             	mov    rax,r9
    2705:	4c 01 c0             	add    rax,r8
    2708:	48 89 85 f0 fb ff ff 	mov    QWORD PTR [rbp-0x410],rax
    270f:	4d 89 c8             	mov    r8,r9
    2712:	4d 01 d0             	add    r8,r10
    2715:	0f ae 38             	clflush BYTE PTR [rax]
    2718:	8b 45 b4             	mov    eax,DWORD PTR [rbp-0x4c]
    271b:	48 83 c0 01          	add    rax,0x1
    271f:	4c 69 d8 40 04 00 00 	imul   r11,rax,0x440
    2726:	4d 89 da             	mov    r10,r11
    2729:	49 81 ea 00 01 00 00 	sub    r10,0x100
    2730:	4c 89 c8             	mov    rax,r9
    2733:	4c 01 d8             	add    rax,r11
    2736:	48 89 85 08 fc ff ff 	mov    QWORD PTR [rbp-0x3f8],rax
    273d:	4d 01 d1             	add    r9,r10
    2740:	0f ae 38             	clflush BYTE PTR [rax]
    2743:	0f ae f0             	mfence 
    2746:	e8 95 1e 00 00       	call   45e0 <__DualGate__1_2_10>
    274b:	48 8b 95 c8 fd ff ff 	mov    rdx,QWORD PTR [rbp-0x238]
    2752:	4c 8b 85 d0 fa ff ff 	mov    r8,QWORD PTR [rbp-0x530]
    2759:	4c 8b 8d d8 fa ff ff 	mov    r9,QWORD PTR [rbp-0x528]
    2760:	48 8b 85 e0 fa ff ff 	mov    rax,QWORD PTR [rbp-0x520]
    2767:	4c 8b 9d e8 fa ff ff 	mov    r11,QWORD PTR [rbp-0x518]
    276e:	48 8b 8d 10 fd ff ff 	mov    rcx,QWORD PTR [rbp-0x2f0]
    2775:	0f ae f0             	mfence 
    2778:	40 8a 32             	mov    sil,BYTE PTR [rdx]
    277b:	40 c0 ee 05          	shr    sil,0x5
    277f:	40 80 e6 01          	and    sil,0x1
    2783:	40 88 b5 d7 fc ff ff 	mov    BYTE PTR [rbp-0x329],sil
    278a:	8b bd 60 fe ff ff    	mov    edi,DWORD PTR [rbp-0x1a0]
    2790:	48 83 c7 01          	add    rdi,0x1
    2794:	4c 69 e7 40 04 00 00 	imul   r12,rdi,0x440
    279b:	48 89 cf             	mov    rdi,rcx
    279e:	4c 01 e7             	add    rdi,r12
    27a1:	48 89 bd e8 fc ff ff 	mov    QWORD PTR [rbp-0x318],rdi
    27a8:	44 8b 95 64 fe ff ff 	mov    r10d,DWORD PTR [rbp-0x19c]
    27af:	49 83 c2 01          	add    r10,0x1
    27b3:	4d 69 fa 40 04 00 00 	imul   r15,r10,0x440
    27ba:	49 89 ca             	mov    r10,rcx
    27bd:	4d 01 fa             	add    r10,r15
    27c0:	4c 89 95 f0 fc ff ff 	mov    QWORD PTR [rbp-0x310],r10
    27c7:	4d 89 fe             	mov    r14,r15
    27ca:	4d 29 e6             	sub    r14,r12
    27cd:	40 0f b6 f6          	movzx  esi,sil
    27d1:	41 89 f2             	mov    r10d,esi
    27d4:	4c 89 d6             	mov    rsi,r10
    27d7:	49 0f af f6          	imul   rsi,r14
    27db:	4c 01 e6             	add    rsi,r12
    27de:	4d 89 e6             	mov    r14,r12
    27e1:	4d 29 fe             	sub    r14,r15
    27e4:	4d 0f af d6          	imul   r10,r14
    27e8:	4d 01 fa             	add    r10,r15
    27eb:	c6 04 31 00          	mov    BYTE PTR [rcx+rsi*1],0x0
    27ef:	48 89 ce             	mov    rsi,rcx
    27f2:	4c 01 d6             	add    rsi,r10
    27f5:	0f ae 3e             	clflush BYTE PTR [rsi]
    27f8:	8a 12                	mov    dl,BYTE PTR [rdx]
    27fa:	c0 ea 04             	shr    dl,0x4
    27fd:	80 e2 01             	and    dl,0x1
    2800:	88 95 57 fc ff ff    	mov    BYTE PTR [rbp-0x3a9],dl
    2806:	8b b5 58 fe ff ff    	mov    esi,DWORD PTR [rbp-0x1a8]
    280c:	48 83 c6 01          	add    rsi,0x1
    2810:	4c 69 f6 40 04 00 00 	imul   r14,rsi,0x440
    2817:	48 89 ce             	mov    rsi,rcx
    281a:	4c 01 f6             	add    rsi,r14
    281d:	48 89 b5 70 fc ff ff 	mov    QWORD PTR [rbp-0x390],rsi
    2824:	8b b5 5c fe ff ff    	mov    esi,DWORD PTR [rbp-0x1a4]
    282a:	48 83 c6 01          	add    rsi,0x1
    282e:	4c 69 ee 40 04 00 00 	imul   r13,rsi,0x440
    2835:	48 89 ce             	mov    rsi,rcx
    2838:	4c 01 ee             	add    rsi,r13
    283b:	48 89 b5 78 fc ff ff 	mov    QWORD PTR [rbp-0x388],rsi
    2842:	4d 89 ea             	mov    r10,r13
    2845:	4d 29 f2             	sub    r10,r14
    2848:	0f b6 d2             	movzx  edx,dl
    284b:	89 d6                	mov    esi,edx
    284d:	48 89 f2             	mov    rdx,rsi
    2850:	49 0f af d2          	imul   rdx,r10
    2854:	4c 01 f2             	add    rdx,r14
    2857:	4d 89 f2             	mov    r10,r14
    285a:	4d 29 ea             	sub    r10,r13
    285d:	49 0f af f2          	imul   rsi,r10
    2861:	4c 01 ee             	add    rsi,r13
    2864:	c6 04 11 00          	mov    BYTE PTR [rcx+rdx*1],0x0
    2868:	48 89 ca             	mov    rdx,rcx
    286b:	48 01 f2             	add    rdx,rsi
    286e:	0f ae 3a             	clflush BYTE PTR [rdx]
    2871:	8b 95 68 fe ff ff    	mov    edx,DWORD PTR [rbp-0x198]
    2877:	48 83 c2 01          	add    rdx,0x1
    287b:	4c 69 d2 40 04 00 00 	imul   r10,rdx,0x440
    2882:	4c 89 d6             	mov    rsi,r10
    2885:	48 81 ee 00 01 00 00 	sub    rsi,0x100
    288c:	48 89 ca             	mov    rdx,rcx
    288f:	4c 01 d2             	add    rdx,r10
    2892:	48 89 95 60 fb ff ff 	mov    QWORD PTR [rbp-0x4a0],rdx
    2899:	49 89 ca             	mov    r10,rcx
    289c:	49 01 f2             	add    r10,rsi
    289f:	0f ae 3a             	clflush BYTE PTR [rdx]
    28a2:	8b 95 6c fe ff ff    	mov    edx,DWORD PTR [rbp-0x194]
    28a8:	48 83 c2 01          	add    rdx,0x1
    28ac:	48 69 f2 40 04 00 00 	imul   rsi,rdx,0x440
    28b3:	48 89 f2             	mov    rdx,rsi
    28b6:	48 81 ea 00 01 00 00 	sub    rdx,0x100
    28bd:	48 01 f1             	add    rcx,rsi
    28c0:	48 8b b5 f0 fc ff ff 	mov    rsi,QWORD PTR [rbp-0x310]
    28c7:	48 89 8d 68 fb ff ff 	mov    QWORD PTR [rbp-0x498],rcx
    28ce:	48 8b 8d 10 fd ff ff 	mov    rcx,QWORD PTR [rbp-0x2f0]
    28d5:	48 01 d1             	add    rcx,rdx
    28d8:	48 8b 95 70 fc ff ff 	mov    rdx,QWORD PTR [rbp-0x390]
    28df:	48 89 8d f0 fa ff ff 	mov    QWORD PTR [rbp-0x510],rcx
    28e6:	48 8b 8d 68 fb ff ff 	mov    rcx,QWORD PTR [rbp-0x498]
    28ed:	0f ae 39             	clflush BYTE PTR [rcx]
    28f0:	48 8b 8d 78 fc ff ff 	mov    rcx,QWORD PTR [rbp-0x388]
    28f7:	0f ae f0             	mfence 
    28fa:	48 83 ec 20          	sub    rsp,0x20
    28fe:	48 89 04 24          	mov    QWORD PTR [rsp],rax
    2902:	48 8b 85 f0 fa ff ff 	mov    rax,QWORD PTR [rbp-0x510]
    2909:	4c 89 5c 24 08       	mov    QWORD PTR [rsp+0x8],r11
    290e:	4c 89 54 24 10       	mov    QWORD PTR [rsp+0x10],r10
    2913:	48 89 44 24 18       	mov    QWORD PTR [rsp+0x18],rax
    2918:	e8 03 1f 00 00       	call   4820 <__DualGate__4_1_40545>
    291d:	48 8b bd f8 fa ff ff 	mov    rdi,QWORD PTR [rbp-0x508]
    2924:	48 8b b5 00 fb ff ff 	mov    rsi,QWORD PTR [rbp-0x500]
    292b:	48 8b 95 08 fb ff ff 	mov    rdx,QWORD PTR [rbp-0x4f8]
    2932:	48 8b 8d 10 fb ff ff 	mov    rcx,QWORD PTR [rbp-0x4f0]
    2939:	4c 8b 8d 10 fd ff ff 	mov    r9,QWORD PTR [rbp-0x2f0]
    2940:	48 83 c4 20          	add    rsp,0x20
    2944:	0f ae f0             	mfence 
    2947:	8b 85 b8 fe ff ff    	mov    eax,DWORD PTR [rbp-0x148]
    294d:	48 83 c0 01          	add    rax,0x1
    2951:	4c 69 c0 40 04 00 00 	imul   r8,rax,0x440
    2958:	4d 89 c2             	mov    r10,r8
    295b:	49 81 ea 00 01 00 00 	sub    r10,0x100
    2962:	4c 89 c8             	mov    rax,r9
    2965:	4c 01 c0             	add    rax,r8
    2968:	48 89 85 a8 fb ff ff 	mov    QWORD PTR [rbp-0x458],rax
    296f:	4d 89 c8             	mov    r8,r9
    2972:	4d 01 d0             	add    r8,r10
    2975:	0f ae 38             	clflush BYTE PTR [rax]
    2978:	8b 85 bc fe ff ff    	mov    eax,DWORD PTR [rbp-0x144]
    297e:	48 83 c0 01          	add    rax,0x1
    2982:	4c 69 d8 40 04 00 00 	imul   r11,rax,0x440
    2989:	4d 89 da             	mov    r10,r11
    298c:	49 81 ea 00 01 00 00 	sub    r10,0x100
    2993:	4c 89 c8             	mov    rax,r9
    2996:	4c 01 d8             	add    rax,r11
    2999:	48 89 85 a0 fb ff ff 	mov    QWORD PTR [rbp-0x460],rax
    29a0:	4d 01 d1             	add    r9,r10
    29a3:	0f ae 38             	clflush BYTE PTR [rax]
    29a6:	0f ae f0             	mfence 
    29a9:	e8 c2 21 00 00       	call   4b70 <__DualGate__2_1_1>
    29ae:	48 8b bd 18 fb ff ff 	mov    rdi,QWORD PTR [rbp-0x4e8]
    29b5:	48 8b b5 20 fb ff ff 	mov    rsi,QWORD PTR [rbp-0x4e0]
    29bc:	48 8b 95 28 fb ff ff 	mov    rdx,QWORD PTR [rbp-0x4d8]
    29c3:	4c 8b 85 30 fb ff ff 	mov    r8,QWORD PTR [rbp-0x4d0]
    29ca:	4c 8b 8d 38 fb ff ff 	mov    r9,QWORD PTR [rbp-0x4c8]
    29d1:	4c 8b 9d 40 fb ff ff 	mov    r11,QWORD PTR [rbp-0x4c0]
    29d8:	48 8b 85 10 fd ff ff 	mov    rax,QWORD PTR [rbp-0x2f0]
    29df:	0f ae f0             	mfence 
    29e2:	8b 8d d8 fe ff ff    	mov    ecx,DWORD PTR [rbp-0x128]
    29e8:	48 83 c1 01          	add    rcx,0x1
    29ec:	4c 69 d1 40 04 00 00 	imul   r10,rcx,0x440
    29f3:	4c 89 d1             	mov    rcx,r10
    29f6:	48 81 e9 00 01 00 00 	sub    rcx,0x100
    29fd:	4c 01 d0             	add    rax,r10
    2a00:	4c 8b 95 10 fd ff ff 	mov    r10,QWORD PTR [rbp-0x2f0]
    2a07:	48 89 85 70 fb ff ff 	mov    QWORD PTR [rbp-0x490],rax
    2a0e:	49 01 ca             	add    r10,rcx
    2a11:	0f ae 38             	clflush BYTE PTR [rax]
    2a14:	8b 85 dc fe ff ff    	mov    eax,DWORD PTR [rbp-0x124]
    2a1a:	48 83 c0 01          	add    rax,0x1
    2a1e:	48 69 c8 40 04 00 00 	imul   rcx,rax,0x440
    2a25:	48 89 c8             	mov    rax,rcx
    2a28:	48 2d 00 01 00 00    	sub    rax,0x100
    2a2e:	48 89 85 48 fb ff ff 	mov    QWORD PTR [rbp-0x4b8],rax
    2a35:	48 8b 85 10 fd ff ff 	mov    rax,QWORD PTR [rbp-0x2f0]
    2a3c:	48 01 c8             	add    rax,rcx
    2a3f:	48 8b 8d 48 fb ff ff 	mov    rcx,QWORD PTR [rbp-0x4b8]
    2a46:	48 89 85 78 fb ff ff 	mov    QWORD PTR [rbp-0x488],rax
    2a4d:	48 8b 85 10 fd ff ff 	mov    rax,QWORD PTR [rbp-0x2f0]
    2a54:	48 01 c8             	add    rax,rcx
    2a57:	48 8b 8d 50 fb ff ff 	mov    rcx,QWORD PTR [rbp-0x4b0]
    2a5e:	48 89 85 58 fb ff ff 	mov    QWORD PTR [rbp-0x4a8],rax
    2a65:	48 8b 85 78 fb ff ff 	mov    rax,QWORD PTR [rbp-0x488]
    2a6c:	0f ae 38             	clflush BYTE PTR [rax]
    2a6f:	48 8b 85 58 fb ff ff 	mov    rax,QWORD PTR [rbp-0x4a8]
    2a76:	0f ae f0             	mfence 
    2a79:	48 83 ec 20          	sub    rsp,0x20
    2a7d:	48 89 1c 24          	mov    QWORD PTR [rsp],rbx
    2a81:	4c 89 5c 24 08       	mov    QWORD PTR [rsp+0x8],r11
    2a86:	4c 89 54 24 10       	mov    QWORD PTR [rsp+0x10],r10
    2a8b:	48 89 44 24 18       	mov    QWORD PTR [rsp+0x18],rax
    2a90:	e8 1b 23 00 00       	call   4db0 <__DualGate__4_1_61160>
    2a95:	48 8b bd 60 fb ff ff 	mov    rdi,QWORD PTR [rbp-0x4a0]
    2a9c:	48 8b b5 68 fb ff ff 	mov    rsi,QWORD PTR [rbp-0x498]
    2aa3:	4c 8b 8d 10 fd ff ff 	mov    r9,QWORD PTR [rbp-0x2f0]
    2aaa:	48 83 c4 20          	add    rsp,0x20
    2aae:	0f ae f0             	mfence 
    2ab1:	8b 85 08 ff ff ff    	mov    eax,DWORD PTR [rbp-0xf8]
    2ab7:	48 83 c0 01          	add    rax,0x1
    2abb:	48 69 d0 40 04 00 00 	imul   rdx,rax,0x440
    2ac2:	48 89 d1             	mov    rcx,rdx
    2ac5:	48 81 e9 00 01 00 00 	sub    rcx,0x100
    2acc:	4c 89 c8             	mov    rax,r9
    2acf:	48 01 d0             	add    rax,rdx
    2ad2:	48 89 85 a0 fc ff ff 	mov    QWORD PTR [rbp-0x360],rax
    2ad9:	4c 89 ca             	mov    rdx,r9
    2adc:	48 01 ca             	add    rdx,rcx
    2adf:	0f ae 38             	clflush BYTE PTR [rax]
    2ae2:	8b 85 0c ff ff ff    	mov    eax,DWORD PTR [rbp-0xf4]
    2ae8:	48 83 c0 01          	add    rax,0x1
    2aec:	48 69 c8 40 04 00 00 	imul   rcx,rax,0x440
    2af3:	49 89 c8             	mov    r8,rcx
    2af6:	49 81 e8 00 01 00 00 	sub    r8,0x100
    2afd:	4c 89 c8             	mov    rax,r9
    2b00:	48 01 c8             	add    rax,rcx
    2b03:	48 89 85 a8 fc ff ff 	mov    QWORD PTR [rbp-0x358],rax
    2b0a:	4c 89 c9             	mov    rcx,r9
    2b0d:	4c 01 c1             	add    rcx,r8
    2b10:	0f ae 38             	clflush BYTE PTR [rax]
    2b13:	8b 85 10 ff ff ff    	mov    eax,DWORD PTR [rbp-0xf0]
    2b19:	48 83 c0 01          	add    rax,0x1
    2b1d:	4c 69 c0 40 04 00 00 	imul   r8,rax,0x440
    2b24:	4d 89 c2             	mov    r10,r8
    2b27:	49 81 ea 00 01 00 00 	sub    r10,0x100
    2b2e:	4c 89 c8             	mov    rax,r9
    2b31:	4c 01 c0             	add    rax,r8
    2b34:	48 89 85 30 fd ff ff 	mov    QWORD PTR [rbp-0x2d0],rax
    2b3b:	4d 89 c8             	mov    r8,r9
    2b3e:	4d 01 d0             	add    r8,r10
    2b41:	0f ae 38             	clflush BYTE PTR [rax]
    2b44:	8b 85 14 ff ff ff    	mov    eax,DWORD PTR [rbp-0xec]
    2b4a:	48 83 c0 01          	add    rax,0x1
    2b4e:	4c 69 d8 40 04 00 00 	imul   r11,rax,0x440
    2b55:	4d 89 da             	mov    r10,r11
    2b58:	49 81 ea 00 01 00 00 	sub    r10,0x100
    2b5f:	4c 89 c8             	mov    rax,r9
    2b62:	4c 01 d8             	add    rax,r11
    2b65:	48 89 85 28 fd ff ff 	mov    QWORD PTR [rbp-0x2d8],rax
    2b6c:	4d 01 d1             	add    r9,r10
    2b6f:	0f ae 38             	clflush BYTE PTR [rax]
    2b72:	0f ae f0             	mfence 
    2b75:	e8 66 1a 00 00       	call   45e0 <__DualGate__1_2_10>
    2b7a:	48 8b bd 70 fb ff ff 	mov    rdi,QWORD PTR [rbp-0x490]
    2b81:	48 8b b5 78 fb ff ff 	mov    rsi,QWORD PTR [rbp-0x488]
    2b88:	4c 8b 8d 10 fd ff ff 	mov    r9,QWORD PTR [rbp-0x2f0]
    2b8f:	0f ae f0             	mfence 
    2b92:	8b 45 b8             	mov    eax,DWORD PTR [rbp-0x48]
    2b95:	48 83 c0 01          	add    rax,0x1
    2b99:	48 69 c8 40 04 00 00 	imul   rcx,rax,0x440
    2ba0:	48 89 c8             	mov    rax,rcx
    2ba3:	48 2d 00 01 00 00    	sub    rax,0x100
    2ba9:	4c 89 cb             	mov    rbx,r9
    2bac:	48 01 cb             	add    rbx,rcx
    2baf:	4c 89 ca             	mov    rdx,r9
    2bb2:	48 01 c2             	add    rdx,rax
    2bb5:	0f ae 3b             	clflush BYTE PTR [rbx]
    2bb8:	8b 45 bc             	mov    eax,DWORD PTR [rbp-0x44]
    2bbb:	48 83 c0 01          	add    rax,0x1
    2bbf:	48 69 c8 40 04 00 00 	imul   rcx,rax,0x440
    2bc6:	49 89 c8             	mov    r8,rcx
    2bc9:	49 81 e8 00 01 00 00 	sub    r8,0x100
    2bd0:	4c 89 c8             	mov    rax,r9
    2bd3:	48 01 c8             	add    rax,rcx
    2bd6:	48 89 85 d8 fb ff ff 	mov    QWORD PTR [rbp-0x428],rax
    2bdd:	4c 89 c9             	mov    rcx,r9
    2be0:	4c 01 c1             	add    rcx,r8
    2be3:	0f ae 38             	clflush BYTE PTR [rax]
    2be6:	8b 45 c0             	mov    eax,DWORD PTR [rbp-0x40]
    2be9:	48 83 c0 01          	add    rax,0x1
    2bed:	4c 69 c0 40 04 00 00 	imul   r8,rax,0x440
    2bf4:	4d 89 c2             	mov    r10,r8
    2bf7:	49 81 ea 00 01 00 00 	sub    r10,0x100
    2bfe:	4c 89 c8             	mov    rax,r9
    2c01:	4c 01 c0             	add    rax,r8
    2c04:	48 89 85 f8 fb ff ff 	mov    QWORD PTR [rbp-0x408],rax
    2c0b:	4d 89 c8             	mov    r8,r9
    2c0e:	4d 01 d0             	add    r8,r10
    2c11:	0f ae 38             	clflush BYTE PTR [rax]
    2c14:	8b 45 c4             	mov    eax,DWORD PTR [rbp-0x3c]
    2c17:	48 83 c0 01          	add    rax,0x1
    2c1b:	4c 69 d8 40 04 00 00 	imul   r11,rax,0x440
    2c22:	4d 89 da             	mov    r10,r11
    2c25:	49 81 ea 00 01 00 00 	sub    r10,0x100
    2c2c:	4c 89 c8             	mov    rax,r9
    2c2f:	4c 01 d8             	add    rax,r11
    2c32:	48 89 85 00 fc ff ff 	mov    QWORD PTR [rbp-0x400],rax
    2c39:	4d 01 d1             	add    r9,r10
    2c3c:	0f ae 38             	clflush BYTE PTR [rax]
    2c3f:	0f ae f0             	mfence 
    2c42:	e8 99 19 00 00       	call   45e0 <__DualGate__1_2_10>
    2c47:	48 8b bd 80 fb ff ff 	mov    rdi,QWORD PTR [rbp-0x480]
    2c4e:	48 8b b5 88 fb ff ff 	mov    rsi,QWORD PTR [rbp-0x478]
    2c55:	48 8b 95 90 fb ff ff 	mov    rdx,QWORD PTR [rbp-0x470]
    2c5c:	48 8b 8d 98 fb ff ff 	mov    rcx,QWORD PTR [rbp-0x468]
    2c63:	4c 8b 9d a0 fb ff ff 	mov    r11,QWORD PTR [rbp-0x460]
    2c6a:	8a 85 57 fc ff ff    	mov    al,BYTE PTR [rbp-0x3a9]
    2c70:	4c 8b 85 10 fd ff ff 	mov    r8,QWORD PTR [rbp-0x2f0]
    2c77:	0f ae f0             	mfence 
    2c7a:	4d 89 ea             	mov    r10,r13
    2c7d:	4d 29 f2             	sub    r10,r14
    2c80:	0f b6 c0             	movzx  eax,al
    2c83:	41 89 c1             	mov    r9d,eax
    2c86:	4c 89 c8             	mov    rax,r9
    2c89:	49 0f af c2          	imul   rax,r10
    2c8d:	4c 01 f0             	add    rax,r14
    2c90:	4d 89 f2             	mov    r10,r14
    2c93:	4d 29 ea             	sub    r10,r13
    2c96:	4d 0f af ca          	imul   r9,r10
    2c9a:	4d 01 e9             	add    r9,r13
    2c9d:	41 c6 04 00 00       	mov    BYTE PTR [r8+rax*1],0x0
    2ca2:	4c 89 c0             	mov    rax,r8
    2ca5:	4c 01 c8             	add    rax,r9
    2ca8:	0f ae 38             	clflush BYTE PTR [rax]
    2cab:	8b 85 a0 fe ff ff    	mov    eax,DWORD PTR [rbp-0x160]
    2cb1:	48 83 c0 01          	add    rax,0x1
    2cb5:	4c 69 d0 40 04 00 00 	imul   r10,rax,0x440
    2cbc:	4d 89 d1             	mov    r9,r10
    2cbf:	49 81 e9 00 01 00 00 	sub    r9,0x100
    2cc6:	4c 89 c0             	mov    rax,r8
    2cc9:	4c 01 d0             	add    rax,r10
    2ccc:	48 89 85 10 fc ff ff 	mov    QWORD PTR [rbp-0x3f0],rax
    2cd3:	4d 89 c2             	mov    r10,r8
    2cd6:	4d 01 ca             	add    r10,r9
    2cd9:	0f ae 38             	clflush BYTE PTR [rax]
    2cdc:	8b 85 a4 fe ff ff    	mov    eax,DWORD PTR [rbp-0x15c]
    2ce2:	48 83 c0 01          	add    rax,0x1
    2ce6:	48 69 c0 40 04 00 00 	imul   rax,rax,0x440
    2ced:	49 89 c1             	mov    r9,rax
    2cf0:	49 81 e9 00 01 00 00 	sub    r9,0x100
    2cf7:	49 01 c0             	add    r8,rax
    2cfa:	48 8b 85 a8 fb ff ff 	mov    rax,QWORD PTR [rbp-0x458]
    2d01:	4c 89 85 18 fc ff ff 	mov    QWORD PTR [rbp-0x3e8],r8
    2d08:	4c 8b 85 10 fd ff ff 	mov    r8,QWORD PTR [rbp-0x2f0]
    2d0f:	4d 01 c8             	add    r8,r9
    2d12:	4c 8b 8d 78 fc ff ff 	mov    r9,QWORD PTR [rbp-0x388]
    2d19:	4c 89 85 b0 fb ff ff 	mov    QWORD PTR [rbp-0x450],r8
    2d20:	4c 8b 85 18 fc ff ff 	mov    r8,QWORD PTR [rbp-0x3e8]
    2d27:	41 0f ae 38          	clflush BYTE PTR [r8]
    2d2b:	4c 8b 85 70 fc ff ff 	mov    r8,QWORD PTR [rbp-0x390]
    2d32:	0f ae f0             	mfence 
    2d35:	48 83 ec 20          	sub    rsp,0x20
    2d39:	48 89 04 24          	mov    QWORD PTR [rsp],rax
    2d3d:	48 8b 85 b0 fb ff ff 	mov    rax,QWORD PTR [rbp-0x450]
    2d44:	4c 89 5c 24 08       	mov    QWORD PTR [rsp+0x8],r11
    2d49:	4c 89 54 24 10       	mov    QWORD PTR [rsp+0x10],r10
    2d4e:	48 89 44 24 18       	mov    QWORD PTR [rsp+0x18],rax
    2d53:	e8 28 23 00 00       	call   5080 <__DualGate__4_1_31668>
    2d58:	48 8b bd b8 fb ff ff 	mov    rdi,QWORD PTR [rbp-0x448]
    2d5f:	48 8b b5 c0 fb ff ff 	mov    rsi,QWORD PTR [rbp-0x440]
    2d66:	48 8b 95 c8 fb ff ff 	mov    rdx,QWORD PTR [rbp-0x438]
    2d6d:	48 8b 8d d0 fb ff ff 	mov    rcx,QWORD PTR [rbp-0x430]
    2d74:	4c 8b 9d d8 fb ff ff 	mov    r11,QWORD PTR [rbp-0x428]
    2d7b:	44 8a 85 57 fc ff ff 	mov    r8b,BYTE PTR [rbp-0x3a9]
    2d82:	48 8b 85 10 fd ff ff 	mov    rax,QWORD PTR [rbp-0x2f0]
    2d89:	48 83 c4 20          	add    rsp,0x20
    2d8d:	0f ae f0             	mfence 
    2d90:	4d 89 ea             	mov    r10,r13
    2d93:	4d 29 f2             	sub    r10,r14
    2d96:	45 0f b6 c0          	movzx  r8d,r8b
    2d9a:	45 89 c1             	mov    r9d,r8d
    2d9d:	4d 89 c8             	mov    r8,r9
    2da0:	4d 0f af c2          	imul   r8,r10
    2da4:	4d 01 f0             	add    r8,r14
    2da7:	4d 89 f2             	mov    r10,r14
    2daa:	4d 29 ea             	sub    r10,r13
    2dad:	4d 0f af ca          	imul   r9,r10
    2db1:	4d 01 e9             	add    r9,r13
    2db4:	42 c6 04 00 00       	mov    BYTE PTR [rax+r8*1],0x0
    2db9:	49 89 c0             	mov    r8,rax
    2dbc:	4d 01 c8             	add    r8,r9
    2dbf:	41 0f ae 38          	clflush BYTE PTR [r8]
    2dc3:	44 8b 85 c0 fe ff ff 	mov    r8d,DWORD PTR [rbp-0x140]
    2dca:	49 83 c0 01          	add    r8,0x1
    2dce:	4d 69 d0 40 04 00 00 	imul   r10,r8,0x440
    2dd5:	4d 89 d1             	mov    r9,r10
    2dd8:	49 81 e9 00 01 00 00 	sub    r9,0x100
    2ddf:	49 89 c0             	mov    r8,rax
    2de2:	4d 01 d0             	add    r8,r10
    2de5:	4c 89 85 20 fc ff ff 	mov    QWORD PTR [rbp-0x3e0],r8
    2dec:	49 89 c2             	mov    r10,rax
    2def:	4d 01 ca             	add    r10,r9
    2df2:	41 0f ae 38          	clflush BYTE PTR [r8]
    2df6:	44 8b 85 c4 fe ff ff 	mov    r8d,DWORD PTR [rbp-0x13c]
    2dfd:	49 83 c0 01          	add    r8,0x1
    2e01:	4d 69 c8 40 04 00 00 	imul   r9,r8,0x440
    2e08:	4d 89 c8             	mov    r8,r9
    2e0b:	49 81 e8 00 01 00 00 	sub    r8,0x100
    2e12:	4c 01 c8             	add    rax,r9
    2e15:	4c 8b 8d 78 fc ff ff 	mov    r9,QWORD PTR [rbp-0x388]
    2e1c:	48 89 85 28 fc ff ff 	mov    QWORD PTR [rbp-0x3d8],rax
    2e23:	48 8b 85 10 fd ff ff 	mov    rax,QWORD PTR [rbp-0x2f0]
    2e2a:	4c 01 c0             	add    rax,r8
    2e2d:	4c 8b 85 28 fc ff ff 	mov    r8,QWORD PTR [rbp-0x3d8]
    2e34:	41 0f ae 38          	clflush BYTE PTR [r8]
    2e38:	4c 8b 85 70 fc ff ff 	mov    r8,QWORD PTR [rbp-0x390]
    2e3f:	0f ae f0             	mfence 
    2e42:	48 83 ec 20          	sub    rsp,0x20
    2e46:	48 89 1c 24          	mov    QWORD PTR [rsp],rbx
    2e4a:	4c 89 5c 24 08       	mov    QWORD PTR [rsp+0x8],r11
    2e4f:	4c 89 54 24 10       	mov    QWORD PTR [rsp+0x10],r10
    2e54:	48 89 44 24 18       	mov    QWORD PTR [rsp+0x18],rax
    2e59:	e8 32 25 00 00       	call   5390 <__DualGate__4_1_46968>
    2e5e:	48 8b bd e0 fb ff ff 	mov    rdi,QWORD PTR [rbp-0x420]
    2e65:	48 8b b5 e8 fb ff ff 	mov    rsi,QWORD PTR [rbp-0x418]
    2e6c:	48 8b 95 f0 fb ff ff 	mov    rdx,QWORD PTR [rbp-0x410]
    2e73:	4c 8b 85 f8 fb ff ff 	mov    r8,QWORD PTR [rbp-0x408]
    2e7a:	4c 8b 8d 00 fc ff ff 	mov    r9,QWORD PTR [rbp-0x400]
    2e81:	48 8b 85 10 fd ff ff 	mov    rax,QWORD PTR [rbp-0x2f0]
    2e88:	48 83 c4 20          	add    rsp,0x20
    2e8c:	0f ae f0             	mfence 
    2e8f:	8b 8d f8 fe ff ff    	mov    ecx,DWORD PTR [rbp-0x108]
    2e95:	48 83 c1 01          	add    rcx,0x1
    2e99:	4c 69 d1 40 04 00 00 	imul   r10,rcx,0x440
    2ea0:	4c 89 d1             	mov    rcx,r10
    2ea3:	48 81 e9 00 01 00 00 	sub    rcx,0x100
    2eaa:	48 89 c3             	mov    rbx,rax
    2ead:	4c 01 d3             	add    rbx,r10
    2eb0:	49 89 c2             	mov    r10,rax
    2eb3:	49 01 ca             	add    r10,rcx
    2eb6:	0f ae 3b             	clflush BYTE PTR [rbx]
    2eb9:	8b 8d fc fe ff ff    	mov    ecx,DWORD PTR [rbp-0x104]
    2ebf:	48 83 c1 01          	add    rcx,0x1
    2ec3:	48 69 c9 40 04 00 00 	imul   rcx,rcx,0x440
    2eca:	49 89 cb             	mov    r11,rcx
    2ecd:	49 81 eb 00 01 00 00 	sub    r11,0x100
    2ed4:	48 01 c8             	add    rax,rcx
    2ed7:	48 8b 8d 08 fc ff ff 	mov    rcx,QWORD PTR [rbp-0x3f8]
    2ede:	48 89 85 80 fc ff ff 	mov    QWORD PTR [rbp-0x380],rax
    2ee5:	48 8b 85 10 fd ff ff 	mov    rax,QWORD PTR [rbp-0x2f0]
    2eec:	4c 01 d8             	add    rax,r11
    2eef:	4c 8b 9d 80 fc ff ff 	mov    r11,QWORD PTR [rbp-0x380]
    2ef6:	41 0f ae 3b          	clflush BYTE PTR [r11]
    2efa:	0f ae f0             	mfence 
    2efd:	48 83 ec 10          	sub    rsp,0x10
    2f01:	4c 89 14 24          	mov    QWORD PTR [rsp],r10
    2f05:	48 89 44 24 08       	mov    QWORD PTR [rsp+0x8],rax
    2f0a:	e8 91 27 00 00       	call   56a0 <__DualGate__3_1_232>
    2f0f:	48 8b bd 10 fc ff ff 	mov    rdi,QWORD PTR [rbp-0x3f0]
    2f16:	48 8b b5 18 fc ff ff 	mov    rsi,QWORD PTR [rbp-0x3e8]
    2f1d:	4c 8b 8d 10 fd ff ff 	mov    r9,QWORD PTR [rbp-0x2f0]
    2f24:	48 83 c4 10          	add    rsp,0x10
    2f28:	0f ae f0             	mfence 
    2f2b:	8b 85 58 ff ff ff    	mov    eax,DWORD PTR [rbp-0xa8]
    2f31:	48 83 c0 01          	add    rax,0x1
    2f35:	48 69 d0 40 04 00 00 	imul   rdx,rax,0x440
    2f3c:	48 89 d1             	mov    rcx,rdx
    2f3f:	48 81 e9 00 01 00 00 	sub    rcx,0x100
    2f46:	4c 89 c8             	mov    rax,r9
    2f49:	48 01 d0             	add    rax,rdx
    2f4c:	48 89 85 30 fc ff ff 	mov    QWORD PTR [rbp-0x3d0],rax
    2f53:	4c 89 ca             	mov    rdx,r9
    2f56:	48 01 ca             	add    rdx,rcx
    2f59:	0f ae 38             	clflush BYTE PTR [rax]
    2f5c:	8b 85 5c ff ff ff    	mov    eax,DWORD PTR [rbp-0xa4]
    2f62:	48 83 c0 01          	add    rax,0x1
    2f66:	48 69 c8 40 04 00 00 	imul   rcx,rax,0x440
    2f6d:	49 89 c8             	mov    r8,rcx
    2f70:	49 81 e8 00 01 00 00 	sub    r8,0x100
    2f77:	4c 89 c8             	mov    rax,r9
    2f7a:	48 01 c8             	add    rax,rcx
    2f7d:	48 89 85 38 fc ff ff 	mov    QWORD PTR [rbp-0x3c8],rax
    2f84:	4c 89 c9             	mov    rcx,r9
    2f87:	4c 01 c1             	add    rcx,r8
    2f8a:	0f ae 38             	clflush BYTE PTR [rax]
    2f8d:	8b 85 60 ff ff ff    	mov    eax,DWORD PTR [rbp-0xa0]
    2f93:	48 83 c0 01          	add    rax,0x1
    2f97:	4c 69 c0 40 04 00 00 	imul   r8,rax,0x440
    2f9e:	4d 89 c2             	mov    r10,r8
    2fa1:	49 81 ea 00 01 00 00 	sub    r10,0x100
    2fa8:	4c 89 c8             	mov    rax,r9
    2fab:	4c 01 c0             	add    rax,r8
    2fae:	48 89 85 90 fc ff ff 	mov    QWORD PTR [rbp-0x370],rax
    2fb5:	4d 89 c8             	mov    r8,r9
    2fb8:	4d 01 d0             	add    r8,r10
    2fbb:	0f ae 38             	clflush BYTE PTR [rax]
    2fbe:	8b 85 64 ff ff ff    	mov    eax,DWORD PTR [rbp-0x9c]
    2fc4:	48 83 c0 01          	add    rax,0x1
    2fc8:	4c 69 d8 40 04 00 00 	imul   r11,rax,0x440
    2fcf:	4d 89 da             	mov    r10,r11
    2fd2:	49 81 ea 00 01 00 00 	sub    r10,0x100
    2fd9:	4c 89 c8             	mov    rax,r9
    2fdc:	4c 01 d8             	add    rax,r11
    2fdf:	48 89 85 98 fc ff ff 	mov    QWORD PTR [rbp-0x368],rax
    2fe6:	4d 01 d1             	add    r9,r10
    2fe9:	0f ae 38             	clflush BYTE PTR [rax]
    2fec:	0f ae f0             	mfence 
    2fef:	e8 ec 15 00 00       	call   45e0 <__DualGate__1_2_10>
    2ff4:	48 8b bd 20 fc ff ff 	mov    rdi,QWORD PTR [rbp-0x3e0]
    2ffb:	48 8b b5 28 fc ff ff 	mov    rsi,QWORD PTR [rbp-0x3d8]
    3002:	4c 8b 8d 10 fd ff ff 	mov    r9,QWORD PTR [rbp-0x2f0]
    3009:	0f ae f0             	mfence 
    300c:	8b 45 88             	mov    eax,DWORD PTR [rbp-0x78]
    300f:	48 83 c0 01          	add    rax,0x1
    3013:	48 69 d0 40 04 00 00 	imul   rdx,rax,0x440
    301a:	48 89 d1             	mov    rcx,rdx
    301d:	48 81 e9 00 01 00 00 	sub    rcx,0x100
    3024:	4c 89 c8             	mov    rax,r9
    3027:	48 01 d0             	add    rax,rdx
    302a:	48 89 85 40 fc ff ff 	mov    QWORD PTR [rbp-0x3c0],rax
    3031:	4c 89 ca             	mov    rdx,r9
    3034:	48 01 ca             	add    rdx,rcx
    3037:	0f ae 38             	clflush BYTE PTR [rax]
    303a:	8b 45 8c             	mov    eax,DWORD PTR [rbp-0x74]
    303d:	48 83 c0 01          	add    rax,0x1
    3041:	48 69 c8 40 04 00 00 	imul   rcx,rax,0x440
    3048:	49 89 c8             	mov    r8,rcx
    304b:	49 81 e8 00 01 00 00 	sub    r8,0x100
    3052:	4c 89 c8             	mov    rax,r9
    3055:	48 01 c8             	add    rax,rcx
    3058:	48 89 85 48 fc ff ff 	mov    QWORD PTR [rbp-0x3b8],rax
    305f:	4c 89 c9             	mov    rcx,r9
    3062:	4c 01 c1             	add    rcx,r8
    3065:	0f ae 38             	clflush BYTE PTR [rax]
    3068:	8b 45 90             	mov    eax,DWORD PTR [rbp-0x70]
    306b:	48 83 c0 01          	add    rax,0x1
    306f:	4c 69 c0 40 04 00 00 	imul   r8,rax,0x440
    3076:	4d 89 c2             	mov    r10,r8
    3079:	49 81 ea 00 01 00 00 	sub    r10,0x100
    3080:	4c 89 c8             	mov    rax,r9
    3083:	4c 01 c0             	add    rax,r8
    3086:	48 89 85 f8 fc ff ff 	mov    QWORD PTR [rbp-0x308],rax
    308d:	4d 89 c8             	mov    r8,r9
    3090:	4d 01 d0             	add    r8,r10
    3093:	0f ae 38             	clflush BYTE PTR [rax]
    3096:	8b 45 94             	mov    eax,DWORD PTR [rbp-0x6c]
    3099:	48 83 c0 01          	add    rax,0x1
    309d:	4c 69 d8 40 04 00 00 	imul   r11,rax,0x440
    30a4:	4d 89 da             	mov    r10,r11
    30a7:	49 81 ea 00 01 00 00 	sub    r10,0x100
    30ae:	4c 89 c8             	mov    rax,r9
    30b1:	4c 01 d8             	add    rax,r11
    30b4:	48 89 85 00 fd ff ff 	mov    QWORD PTR [rbp-0x300],rax
    30bb:	4d 01 d1             	add    r9,r10
    30be:	0f ae 38             	clflush BYTE PTR [rax]
    30c1:	0f ae f0             	mfence 
    30c4:	e8 17 15 00 00       	call   45e0 <__DualGate__1_2_10>
    30c9:	48 8b 95 30 fc ff ff 	mov    rdx,QWORD PTR [rbp-0x3d0]
    30d0:	48 8b 8d 38 fc ff ff 	mov    rcx,QWORD PTR [rbp-0x3c8]
    30d7:	8a 85 d7 fc ff ff    	mov    al,BYTE PTR [rbp-0x329]
    30dd:	48 8b bd e8 fc ff ff 	mov    rdi,QWORD PTR [rbp-0x318]
    30e4:	48 8b b5 f0 fc ff ff 	mov    rsi,QWORD PTR [rbp-0x310]
    30eb:	4c 8b 8d 10 fd ff ff 	mov    r9,QWORD PTR [rbp-0x2f0]
    30f2:	0f ae f0             	mfence 
    30f5:	4d 89 fa             	mov    r10,r15
    30f8:	4d 29 e2             	sub    r10,r12
    30fb:	0f b6 c0             	movzx  eax,al
    30fe:	41 89 c0             	mov    r8d,eax
    3101:	4c 89 c0             	mov    rax,r8
    3104:	49 0f af c2          	imul   rax,r10
    3108:	4c 01 e0             	add    rax,r12
    310b:	4d 89 e2             	mov    r10,r12
    310e:	4d 29 fa             	sub    r10,r15
    3111:	4d 0f af c2          	imul   r8,r10
    3115:	4d 01 f8             	add    r8,r15
    3118:	41 c6 04 01 00       	mov    BYTE PTR [r9+rax*1],0x0
    311d:	4c 89 c8             	mov    rax,r9
    3120:	4c 01 c0             	add    rax,r8
    3123:	0f ae 38             	clflush BYTE PTR [rax]
    3126:	8b 85 70 fe ff ff    	mov    eax,DWORD PTR [rbp-0x190]
    312c:	48 83 c0 01          	add    rax,0x1
    3130:	4c 69 c0 40 04 00 00 	imul   r8,rax,0x440
    3137:	4d 89 c2             	mov    r10,r8
    313a:	49 81 ea 00 01 00 00 	sub    r10,0x100
    3141:	4c 89 c8             	mov    rax,r9
    3144:	4c 01 c0             	add    rax,r8
    3147:	48 89 85 40 fd ff ff 	mov    QWORD PTR [rbp-0x2c0],rax
    314e:	4d 89 c8             	mov    r8,r9
    3151:	4d 01 d0             	add    r8,r10
    3154:	0f ae 38             	clflush BYTE PTR [rax]
    3157:	8b 85 74 fe ff ff    	mov    eax,DWORD PTR [rbp-0x18c]
    315d:	48 83 c0 01          	add    rax,0x1
    3161:	4c 69 d8 40 04 00 00 	imul   r11,rax,0x440
    3168:	4d 89 da             	mov    r10,r11
    316b:	49 81 ea 00 01 00 00 	sub    r10,0x100
    3172:	4c 89 c8             	mov    rax,r9
    3175:	4c 01 d8             	add    rax,r11
    3178:	48 89 85 38 fd ff ff 	mov    QWORD PTR [rbp-0x2c8],rax
    317f:	4d 01 d1             	add    r9,r10
    3182:	0f ae 38             	clflush BYTE PTR [rax]
    3185:	0f ae f0             	mfence 
    3188:	e8 a3 27 00 00       	call   5930 <__DualGate__2_1_9>
    318d:	48 8b 95 40 fc ff ff 	mov    rdx,QWORD PTR [rbp-0x3c0]
    3194:	48 8b 8d 48 fc ff ff 	mov    rcx,QWORD PTR [rbp-0x3b8]
    319b:	8a 85 d7 fc ff ff    	mov    al,BYTE PTR [rbp-0x329]
    31a1:	48 8b bd e8 fc ff ff 	mov    rdi,QWORD PTR [rbp-0x318]
    31a8:	48 8b b5 f0 fc ff ff 	mov    rsi,QWORD PTR [rbp-0x310]
    31af:	4c 8b 8d 10 fd ff ff 	mov    r9,QWORD PTR [rbp-0x2f0]
    31b6:	0f ae f0             	mfence 
    31b9:	4d 89 fa             	mov    r10,r15
    31bc:	4d 29 e2             	sub    r10,r12
    31bf:	0f b6 c0             	movzx  eax,al
    31c2:	41 89 c0             	mov    r8d,eax
    31c5:	4c 89 c0             	mov    rax,r8
    31c8:	49 0f af c2          	imul   rax,r10
    31cc:	4c 01 e0             	add    rax,r12
    31cf:	4d 89 e2             	mov    r10,r12
    31d2:	4d 29 fa             	sub    r10,r15
    31d5:	4d 0f af c2          	imul   r8,r10
    31d9:	4d 01 f8             	add    r8,r15
    31dc:	41 c6 04 01 00       	mov    BYTE PTR [r9+rax*1],0x0
    31e1:	4c 89 c8             	mov    rax,r9
    31e4:	4c 01 c0             	add    rax,r8
    31e7:	0f ae 38             	clflush BYTE PTR [rax]
    31ea:	8b 85 78 fe ff ff    	mov    eax,DWORD PTR [rbp-0x188]
    31f0:	48 83 c0 01          	add    rax,0x1
    31f4:	4c 69 c0 40 04 00 00 	imul   r8,rax,0x440
    31fb:	4d 89 c2             	mov    r10,r8
    31fe:	49 81 ea 00 01 00 00 	sub    r10,0x100
    3205:	4c 89 c8             	mov    rax,r9
    3208:	4c 01 c0             	add    rax,r8
    320b:	48 89 85 50 fd ff ff 	mov    QWORD PTR [rbp-0x2b0],rax
    3212:	4d 89 c8             	mov    r8,r9
    3215:	4d 01 d0             	add    r8,r10
    3218:	0f ae 38             	clflush BYTE PTR [rax]
    321b:	8b 85 7c fe ff ff    	mov    eax,DWORD PTR [rbp-0x184]
    3221:	48 83 c0 01          	add    rax,0x1
    3225:	4c 69 d8 40 04 00 00 	imul   r11,rax,0x440
    322c:	4d 89 da             	mov    r10,r11
    322f:	49 81 ea 00 01 00 00 	sub    r10,0x100
    3236:	4c 89 c8             	mov    rax,r9
    3239:	4c 01 d8             	add    rax,r11
    323c:	48 89 85 48 fd ff ff 	mov    QWORD PTR [rbp-0x2b8],rax
    3243:	4d 01 d1             	add    r9,r10
    3246:	0f ae 38             	clflush BYTE PTR [rax]
    3249:	0f ae f0             	mfence 
    324c:	e8 df 26 00 00       	call   5930 <__DualGate__2_1_9>
    3251:	8a 85 57 fc ff ff    	mov    al,BYTE PTR [rbp-0x3a9]
    3257:	48 8b bd 58 fc ff ff 	mov    rdi,QWORD PTR [rbp-0x3a8]
    325e:	48 8b b5 60 fc ff ff 	mov    rsi,QWORD PTR [rbp-0x3a0]
    3265:	48 8b 95 68 fc ff ff 	mov    rdx,QWORD PTR [rbp-0x398]
    326c:	4c 8b 85 70 fc ff ff 	mov    r8,QWORD PTR [rbp-0x390]
    3273:	4c 8b 8d 78 fc ff ff 	mov    r9,QWORD PTR [rbp-0x388]
    327a:	4c 8b 9d 80 fc ff ff 	mov    r11,QWORD PTR [rbp-0x380]
    3281:	0f ae f0             	mfence 
    3284:	4c 89 e9             	mov    rcx,r13
    3287:	4c 29 f1             	sub    rcx,r14
    328a:	0f b6 c0             	movzx  eax,al
    328d:	41 89 c2             	mov    r10d,eax
    3290:	4c 89 d0             	mov    rax,r10
    3293:	48 0f af c1          	imul   rax,rcx
    3297:	48 8b 8d 88 fc ff ff 	mov    rcx,QWORD PTR [rbp-0x378]
    329e:	4c 01 f0             	add    rax,r14
    32a1:	4d 29 ee             	sub    r14,r13
    32a4:	4d 0f af d6          	imul   r10,r14
    32a8:	4c 8b b5 10 fd ff ff 	mov    r14,QWORD PTR [rbp-0x2f0]
    32af:	4d 01 ea             	add    r10,r13
    32b2:	41 c6 04 06 00       	mov    BYTE PTR [r14+rax*1],0x0
    32b7:	4c 89 f0             	mov    rax,r14
    32ba:	4c 01 d0             	add    rax,r10
    32bd:	0f ae 38             	clflush BYTE PTR [rax]
    32c0:	8b 85 e0 fe ff ff    	mov    eax,DWORD PTR [rbp-0x120]
    32c6:	48 83 c0 01          	add    rax,0x1
    32ca:	4c 69 d0 40 04 00 00 	imul   r10,rax,0x440
    32d1:	4d 89 d5             	mov    r13,r10
    32d4:	49 81 ed 00 01 00 00 	sub    r13,0x100
    32db:	4c 89 f0             	mov    rax,r14
    32de:	4c 01 d0             	add    rax,r10
    32e1:	48 89 85 b0 fc ff ff 	mov    QWORD PTR [rbp-0x350],rax
    32e8:	4d 89 f2             	mov    r10,r14
    32eb:	4d 01 ea             	add    r10,r13
    32ee:	0f ae 38             	clflush BYTE PTR [rax]
    32f1:	8b 85 e4 fe ff ff    	mov    eax,DWORD PTR [rbp-0x11c]
    32f7:	48 83 c0 01          	add    rax,0x1
    32fb:	48 69 c0 40 04 00 00 	imul   rax,rax,0x440
    3302:	49 89 c5             	mov    r13,rax
    3305:	49 81 ed 00 01 00 00 	sub    r13,0x100
    330c:	49 01 c6             	add    r14,rax
    330f:	48 8b 85 10 fd ff ff 	mov    rax,QWORD PTR [rbp-0x2f0]
    3316:	4c 89 b5 b8 fc ff ff 	mov    QWORD PTR [rbp-0x348],r14
    331d:	4c 01 e8             	add    rax,r13
    3320:	41 0f ae 3e          	clflush BYTE PTR [r14]
    3324:	0f ae f0             	mfence 
    3327:	48 83 ec 20          	sub    rsp,0x20
    332b:	48 89 1c 24          	mov    QWORD PTR [rsp],rbx
    332f:	4c 89 5c 24 08       	mov    QWORD PTR [rsp+0x8],r11
    3334:	4c 89 54 24 10       	mov    QWORD PTR [rsp+0x10],r10
    3339:	48 89 44 24 18       	mov    QWORD PTR [rsp+0x18],rax
    333e:	e8 4d 20 00 00       	call   5390 <__DualGate__4_1_46968>
    3343:	48 8b 95 90 fc ff ff 	mov    rdx,QWORD PTR [rbp-0x370]
    334a:	48 8b 8d 98 fc ff ff 	mov    rcx,QWORD PTR [rbp-0x368]
    3351:	4c 8b 85 a0 fc ff ff 	mov    r8,QWORD PTR [rbp-0x360]
    3358:	4c 8b 8d a8 fc ff ff 	mov    r9,QWORD PTR [rbp-0x358]
    335f:	44 8a 95 d7 fc ff ff 	mov    r10b,BYTE PTR [rbp-0x329]
    3366:	48 8b bd e8 fc ff ff 	mov    rdi,QWORD PTR [rbp-0x318]
    336d:	48 8b b5 f0 fc ff ff 	mov    rsi,QWORD PTR [rbp-0x310]
    3374:	48 8b 85 10 fd ff ff 	mov    rax,QWORD PTR [rbp-0x2f0]
    337b:	48 83 c4 20          	add    rsp,0x20
    337f:	0f ae f0             	mfence 
    3382:	4c 89 fb             	mov    rbx,r15
    3385:	4c 29 e3             	sub    rbx,r12
    3388:	45 0f b6 d2          	movzx  r10d,r10b
    338c:	45 89 d3             	mov    r11d,r10d
    338f:	4d 89 da             	mov    r10,r11
    3392:	4c 0f af d3          	imul   r10,rbx
    3396:	4d 01 e2             	add    r10,r12
    3399:	4c 89 e3             	mov    rbx,r12
    339c:	4c 29 fb             	sub    rbx,r15
    339f:	4c 0f af db          	imul   r11,rbx
    33a3:	4d 01 fb             	add    r11,r15
    33a6:	42 c6 04 10 00       	mov    BYTE PTR [rax+r10*1],0x0
    33ab:	49 89 c2             	mov    r10,rax
    33ae:	4d 01 da             	add    r10,r11
    33b1:	41 0f ae 3a          	clflush BYTE PTR [r10]
    33b5:	44 8b 95 00 ff ff ff 	mov    r10d,DWORD PTR [rbp-0x100]
    33bc:	49 83 c2 01          	add    r10,0x1
    33c0:	4d 69 d2 40 04 00 00 	imul   r10,r10,0x440
    33c7:	4c 89 d3             	mov    rbx,r10
    33ca:	48 81 eb 00 01 00 00 	sub    rbx,0x100
    33d1:	49 89 c3             	mov    r11,rax
    33d4:	4d 01 d3             	add    r11,r10
    33d7:	4c 89 9d d8 fc ff ff 	mov    QWORD PTR [rbp-0x328],r11
    33de:	49 89 c2             	mov    r10,rax
    33e1:	49 01 da             	add    r10,rbx
    33e4:	41 0f ae 3b          	clflush BYTE PTR [r11]
    33e8:	44 8b 9d 04 ff ff ff 	mov    r11d,DWORD PTR [rbp-0xfc]
    33ef:	49 83 c3 01          	add    r11,0x1
    33f3:	4d 69 f3 40 04 00 00 	imul   r14,r11,0x440
    33fa:	4c 89 f3             	mov    rbx,r14
    33fd:	48 81 eb 00 01 00 00 	sub    rbx,0x100
    3404:	49 89 c3             	mov    r11,rax
    3407:	4d 01 f3             	add    r11,r14
    340a:	4c 89 9d e0 fc ff ff 	mov    QWORD PTR [rbp-0x320],r11
    3411:	48 01 d8             	add    rax,rbx
    3414:	41 0f ae 3b          	clflush BYTE PTR [r11]
    3418:	0f ae f0             	mfence 
    341b:	48 83 ec 10          	sub    rsp,0x10
    341f:	4c 89 14 24          	mov    QWORD PTR [rsp],r10
    3423:	48 89 44 24 08       	mov    QWORD PTR [rsp+0x8],rax
    3428:	e8 63 27 00 00       	call   5b90 <__DualGate__3_1_20>
    342d:	48 8b bd b0 fc ff ff 	mov    rdi,QWORD PTR [rbp-0x350]
    3434:	48 8b b5 b8 fc ff ff 	mov    rsi,QWORD PTR [rbp-0x348]
    343b:	4c 8b 8d 10 fd ff ff 	mov    r9,QWORD PTR [rbp-0x2f0]
    3442:	48 83 c4 10          	add    rsp,0x10
    3446:	0f ae f0             	mfence 
    3449:	8b 45 c8             	mov    eax,DWORD PTR [rbp-0x38]
    344c:	48 83 c0 01          	add    rax,0x1
    3450:	48 69 d0 40 04 00 00 	imul   rdx,rax,0x440
    3457:	48 89 d1             	mov    rcx,rdx
    345a:	48 81 e9 00 01 00 00 	sub    rcx,0x100
    3461:	4c 89 c8             	mov    rax,r9
    3464:	48 01 d0             	add    rax,rdx
    3467:	48 89 85 c0 fc ff ff 	mov    QWORD PTR [rbp-0x340],rax
    346e:	4c 89 ca             	mov    rdx,r9
    3471:	48 01 ca             	add    rdx,rcx
    3474:	0f ae 38             	clflush BYTE PTR [rax]
    3477:	8b 45 cc             	mov    eax,DWORD PTR [rbp-0x34]
    347a:	48 83 c0 01          	add    rax,0x1
    347e:	48 69 c8 40 04 00 00 	imul   rcx,rax,0x440
    3485:	49 89 c8             	mov    r8,rcx
    3488:	49 81 e8 00 01 00 00 	sub    r8,0x100
    348f:	4c 89 c8             	mov    rax,r9
    3492:	48 01 c8             	add    rax,rcx
    3495:	48 89 85 c8 fc ff ff 	mov    QWORD PTR [rbp-0x338],rax
    349c:	4c 89 c9             	mov    rcx,r9
    349f:	4c 01 c1             	add    rcx,r8
    34a2:	0f ae 38             	clflush BYTE PTR [rax]
    34a5:	8b 45 d0             	mov    eax,DWORD PTR [rbp-0x30]
    34a8:	48 83 c0 01          	add    rax,0x1
    34ac:	4c 69 c0 40 04 00 00 	imul   r8,rax,0x440
    34b3:	4c 89 c0             	mov    rax,r8
    34b6:	48 2d 00 01 00 00    	sub    rax,0x100
    34bc:	4c 89 cb             	mov    rbx,r9
    34bf:	4c 01 c3             	add    rbx,r8
    34c2:	4d 89 c8             	mov    r8,r9
    34c5:	49 01 c0             	add    r8,rax
    34c8:	0f ae 3b             	clflush BYTE PTR [rbx]
    34cb:	8b 45 d4             	mov    eax,DWORD PTR [rbp-0x2c]
    34ce:	48 83 c0 01          	add    rax,0x1
    34d2:	4c 69 d8 40 04 00 00 	imul   r11,rax,0x440
    34d9:	4d 89 da             	mov    r10,r11
    34dc:	49 81 ea 00 01 00 00 	sub    r10,0x100
    34e3:	4c 89 c8             	mov    rax,r9
    34e6:	4c 01 d8             	add    rax,r11
    34e9:	48 89 85 08 fd ff ff 	mov    QWORD PTR [rbp-0x2f8],rax
    34f0:	4d 01 d1             	add    r9,r10
    34f3:	0f ae 38             	clflush BYTE PTR [rax]
    34f6:	0f ae f0             	mfence 
    34f9:	e8 e2 10 00 00       	call   45e0 <__DualGate__1_2_10>
    34fe:	48 8b 95 c0 fc ff ff 	mov    rdx,QWORD PTR [rbp-0x340]
    3505:	48 8b 8d c8 fc ff ff 	mov    rcx,QWORD PTR [rbp-0x338]
    350c:	8a 85 d7 fc ff ff    	mov    al,BYTE PTR [rbp-0x329]
    3512:	48 8b bd e8 fc ff ff 	mov    rdi,QWORD PTR [rbp-0x318]
    3519:	48 8b b5 f0 fc ff ff 	mov    rsi,QWORD PTR [rbp-0x310]
    3520:	4c 8b 8d 10 fd ff ff 	mov    r9,QWORD PTR [rbp-0x2f0]
    3527:	0f ae f0             	mfence 
    352a:	4d 89 fa             	mov    r10,r15
    352d:	4d 29 e2             	sub    r10,r12
    3530:	0f b6 c0             	movzx  eax,al
    3533:	41 89 c0             	mov    r8d,eax
    3536:	4c 89 c0             	mov    rax,r8
    3539:	49 0f af c2          	imul   rax,r10
    353d:	4c 01 e0             	add    rax,r12
    3540:	4d 89 e2             	mov    r10,r12
    3543:	4d 29 fa             	sub    r10,r15
    3546:	4d 0f af c2          	imul   r8,r10
    354a:	4d 01 f8             	add    r8,r15
    354d:	41 c6 04 01 00       	mov    BYTE PTR [r9+rax*1],0x0
    3552:	4c 89 c8             	mov    rax,r9
    3555:	4c 01 c0             	add    rax,r8
    3558:	0f ae 38             	clflush BYTE PTR [rax]
    355b:	8b 85 88 fe ff ff    	mov    eax,DWORD PTR [rbp-0x178]
    3561:	48 83 c0 01          	add    rax,0x1
    3565:	4c 69 c0 40 04 00 00 	imul   r8,rax,0x440
    356c:	4d 89 c2             	mov    r10,r8
    356f:	49 81 ea 00 01 00 00 	sub    r10,0x100
    3576:	4c 89 c8             	mov    rax,r9
    3579:	4c 01 c0             	add    rax,r8
    357c:	48 89 85 18 fd ff ff 	mov    QWORD PTR [rbp-0x2e8],rax
    3583:	4d 89 c8             	mov    r8,r9
    3586:	4d 01 d0             	add    r8,r10
    3589:	0f ae 38             	clflush BYTE PTR [rax]
    358c:	8b 85 8c fe ff ff    	mov    eax,DWORD PTR [rbp-0x174]
    3592:	48 83 c0 01          	add    rax,0x1
    3596:	4c 69 d8 40 04 00 00 	imul   r11,rax,0x440
    359d:	4d 89 da             	mov    r10,r11
    35a0:	49 81 ea 00 01 00 00 	sub    r10,0x100
    35a7:	4c 89 c8             	mov    rax,r9
    35aa:	4c 01 d8             	add    rax,r11
    35ad:	48 89 85 20 fd ff ff 	mov    QWORD PTR [rbp-0x2e0],rax
    35b4:	4d 01 d1             	add    r9,r10
    35b7:	0f ae 38             	clflush BYTE PTR [rax]
    35ba:	0f ae f0             	mfence 
    35bd:	e8 6e 23 00 00       	call   5930 <__DualGate__2_1_9>
    35c2:	44 8a 95 d7 fc ff ff 	mov    r10b,BYTE PTR [rbp-0x329]
    35c9:	48 8b bd d8 fc ff ff 	mov    rdi,QWORD PTR [rbp-0x328]
    35d0:	48 8b b5 e0 fc ff ff 	mov    rsi,QWORD PTR [rbp-0x320]
    35d7:	48 8b 95 e8 fc ff ff 	mov    rdx,QWORD PTR [rbp-0x318]
    35de:	48 8b 8d f0 fc ff ff 	mov    rcx,QWORD PTR [rbp-0x310]
    35e5:	4c 8b 85 f8 fc ff ff 	mov    r8,QWORD PTR [rbp-0x308]
    35ec:	4c 8b 8d 00 fd ff ff 	mov    r9,QWORD PTR [rbp-0x300]
    35f3:	4c 8b 9d 08 fd ff ff 	mov    r11,QWORD PTR [rbp-0x2f8]
    35fa:	48 8b 85 10 fd ff ff 	mov    rax,QWORD PTR [rbp-0x2f0]
    3601:	0f ae f0             	mfence 
    3604:	4d 89 fd             	mov    r13,r15
    3607:	4d 29 e5             	sub    r13,r12
    360a:	45 0f b6 d2          	movzx  r10d,r10b
    360e:	45 89 d6             	mov    r14d,r10d
    3611:	4d 89 f2             	mov    r10,r14
    3614:	4d 0f af d5          	imul   r10,r13
    3618:	4d 01 e2             	add    r10,r12
    361b:	4d 29 fc             	sub    r12,r15
    361e:	4d 0f af f4          	imul   r14,r12
    3622:	4d 01 fe             	add    r14,r15
    3625:	42 c6 04 10 00       	mov    BYTE PTR [rax+r10*1],0x0
    362a:	49 89 c2             	mov    r10,rax
    362d:	4d 01 f2             	add    r10,r14
    3630:	41 0f ae 3a          	clflush BYTE PTR [r10]
    3634:	44 8b 95 80 fe ff ff 	mov    r10d,DWORD PTR [rbp-0x180]
    363b:	49 83 c2 01          	add    r10,0x1
    363f:	4d 69 d2 40 04 00 00 	imul   r10,r10,0x440
    3646:	4d 89 d7             	mov    r15,r10
    3649:	49 81 ef 00 01 00 00 	sub    r15,0x100
    3650:	49 89 c6             	mov    r14,rax
    3653:	4d 01 d6             	add    r14,r10
    3656:	4c 89 b5 80 fd ff ff 	mov    QWORD PTR [rbp-0x280],r14
    365d:	49 89 c2             	mov    r10,rax
    3660:	4d 01 fa             	add    r10,r15
    3663:	41 0f ae 3e          	clflush BYTE PTR [r14]
    3667:	44 8b b5 84 fe ff ff 	mov    r14d,DWORD PTR [rbp-0x17c]
    366e:	49 83 c6 01          	add    r14,0x1
    3672:	4d 69 e6 40 04 00 00 	imul   r12,r14,0x440
    3679:	4d 89 e7             	mov    r15,r12
    367c:	49 81 ef 00 01 00 00 	sub    r15,0x100
    3683:	49 89 c6             	mov    r14,rax
    3686:	4d 01 e6             	add    r14,r12
    3689:	4c 89 b5 70 fd ff ff 	mov    QWORD PTR [rbp-0x290],r14
    3690:	4c 01 f8             	add    rax,r15
    3693:	41 0f ae 3e          	clflush BYTE PTR [r14]
    3697:	0f ae f0             	mfence 
    369a:	48 83 ec 20          	sub    rsp,0x20
    369e:	48 89 1c 24          	mov    QWORD PTR [rsp],rbx
    36a2:	4c 89 5c 24 08       	mov    QWORD PTR [rsp+0x8],r11
    36a7:	4c 89 54 24 10       	mov    QWORD PTR [rsp+0x10],r10
    36ac:	48 89 44 24 18       	mov    QWORD PTR [rsp+0x18],rax
    36b1:	e8 5a 27 00 00       	call   5e10 <__DualGate__4_1_6144>
    36b6:	4c 8b 8d 10 fd ff ff 	mov    r9,QWORD PTR [rbp-0x2f0]
    36bd:	48 8b bd 18 fd ff ff 	mov    rdi,QWORD PTR [rbp-0x2e8]
    36c4:	48 8b b5 20 fd ff ff 	mov    rsi,QWORD PTR [rbp-0x2e0]
    36cb:	48 83 c4 20          	add    rsp,0x20
    36cf:	0f ae f0             	mfence 
    36d2:	8b 85 18 ff ff ff    	mov    eax,DWORD PTR [rbp-0xe8]
    36d8:	48 83 c0 01          	add    rax,0x1
    36dc:	48 69 d0 40 04 00 00 	imul   rdx,rax,0x440
    36e3:	48 89 d1             	mov    rcx,rdx
    36e6:	48 81 e9 00 01 00 00 	sub    rcx,0x100
    36ed:	4c 89 c8             	mov    rax,r9
    36f0:	48 01 d0             	add    rax,rdx
    36f3:	48 89 85 68 fd ff ff 	mov    QWORD PTR [rbp-0x298],rax
    36fa:	4c 89 ca             	mov    rdx,r9
    36fd:	48 01 ca             	add    rdx,rcx
    3700:	0f ae 38             	clflush BYTE PTR [rax]
    3703:	8b 85 1c ff ff ff    	mov    eax,DWORD PTR [rbp-0xe4]
    3709:	48 83 c0 01          	add    rax,0x1
    370d:	48 69 c8 40 04 00 00 	imul   rcx,rax,0x440
    3714:	49 89 c8             	mov    r8,rcx
    3717:	49 81 e8 00 01 00 00 	sub    r8,0x100
    371e:	4c 89 c8             	mov    rax,r9
    3721:	48 01 c8             	add    rax,rcx
    3724:	48 89 85 58 fd ff ff 	mov    QWORD PTR [rbp-0x2a8],rax
    372b:	4c 89 c9             	mov    rcx,r9
    372e:	4c 01 c1             	add    rcx,r8
    3731:	0f ae 38             	clflush BYTE PTR [rax]
    3734:	8b 85 20 ff ff ff    	mov    eax,DWORD PTR [rbp-0xe0]
    373a:	48 83 c0 01          	add    rax,0x1
    373e:	4c 69 c0 40 04 00 00 	imul   r8,rax,0x440
    3745:	4d 89 c2             	mov    r10,r8
    3748:	49 81 ea 00 01 00 00 	sub    r10,0x100
    374f:	4c 89 c8             	mov    rax,r9
    3752:	4c 01 c0             	add    rax,r8
    3755:	48 89 85 98 fd ff ff 	mov    QWORD PTR [rbp-0x268],rax
    375c:	4d 89 c8             	mov    r8,r9
    375f:	4d 01 d0             	add    r8,r10
    3762:	0f ae 38             	clflush BYTE PTR [rax]
    3765:	8b 85 24 ff ff ff    	mov    eax,DWORD PTR [rbp-0xdc]
    376b:	48 83 c0 01          	add    rax,0x1
    376f:	4c 69 d8 40 04 00 00 	imul   r11,rax,0x440
    3776:	4d 89 da             	mov    r10,r11
    3779:	49 81 ea 00 01 00 00 	sub    r10,0x100
    3780:	4c 89 c8             	mov    rax,r9
    3783:	4c 01 d8             	add    rax,r11
    3786:	48 89 85 88 fd ff ff 	mov    QWORD PTR [rbp-0x278],rax
    378d:	4d 01 d1             	add    r9,r10
    3790:	0f ae 38             	clflush BYTE PTR [rax]
    3793:	0f ae f0             	mfence 
    3796:	e8 45 0e 00 00       	call   45e0 <__DualGate__1_2_10>
    379b:	48 8b bd 28 fd ff ff 	mov    rdi,QWORD PTR [rbp-0x2d8]
    37a2:	0f ae f0             	mfence 
    37a5:	e8 16 09 00 00       	call   40c0 <timer>
    37aa:	48 8b bd 30 fd ff ff 	mov    rdi,QWORD PTR [rbp-0x2d0]
    37b1:	48 3d b5 00 00 00    	cmp    rax,0xb5
    37b7:	0f 92 c0             	setb   al
    37ba:	88 85 a5 fd ff ff    	mov    BYTE PTR [rbp-0x25b],al
    37c0:	e8 fb 08 00 00       	call   40c0 <timer>
    37c5:	48 8b bd 38 fd ff ff 	mov    rdi,QWORD PTR [rbp-0x2c8]
    37cc:	48 89 c1             	mov    rcx,rax
    37cf:	8a 85 a5 fd ff ff    	mov    al,BYTE PTR [rbp-0x25b]
    37d5:	48 81 f9 b5 00 00 00 	cmp    rcx,0xb5
    37dc:	0f 92 c3             	setb   bl
    37df:	30 c3                	xor    bl,al
    37e1:	80 f3 ff             	xor    bl,0xff
    37e4:	e8 d7 08 00 00       	call   40c0 <timer>
    37e9:	48 8b bd 40 fd ff ff 	mov    rdi,QWORD PTR [rbp-0x2c0]
    37f0:	48 3d b5 00 00 00    	cmp    rax,0xb5
    37f6:	0f 92 c0             	setb   al
    37f9:	88 85 a6 fd ff ff    	mov    BYTE PTR [rbp-0x25a],al
    37ff:	e8 bc 08 00 00       	call   40c0 <timer>
    3804:	48 8b bd 48 fd ff ff 	mov    rdi,QWORD PTR [rbp-0x2b8]
    380b:	48 89 c1             	mov    rcx,rax
    380e:	8a 85 a6 fd ff ff    	mov    al,BYTE PTR [rbp-0x25a]
    3814:	48 81 f9 b5 00 00 00 	cmp    rcx,0xb5
    381b:	0f 92 c1             	setb   cl
    381e:	30 c1                	xor    cl,al
    3820:	80 f1 ff             	xor    cl,0xff
    3823:	88 8d a4 fd ff ff    	mov    BYTE PTR [rbp-0x25c],cl
    3829:	88 d8                	mov    al,bl
    382b:	08 c8                	or     al,cl
    382d:	88 85 67 fd ff ff    	mov    BYTE PTR [rbp-0x299],al
    3833:	e8 88 08 00 00       	call   40c0 <timer>
    3838:	48 8b bd 50 fd ff ff 	mov    rdi,QWORD PTR [rbp-0x2b0]
    383f:	48 3d b5 00 00 00    	cmp    rax,0xb5
    3845:	0f 92 c0             	setb   al
    3848:	88 85 a7 fd ff ff    	mov    BYTE PTR [rbp-0x259],al
    384e:	e8 6d 08 00 00       	call   40c0 <timer>
    3853:	48 8b bd 58 fd ff ff 	mov    rdi,QWORD PTR [rbp-0x2a8]
    385a:	8a 8d a7 fd ff ff    	mov    cl,BYTE PTR [rbp-0x259]
    3860:	48 89 c2             	mov    rdx,rax
    3863:	8a 85 67 fd ff ff    	mov    al,BYTE PTR [rbp-0x299]
    3869:	48 81 fa b5 00 00 00 	cmp    rdx,0xb5
    3870:	41 0f 92 c5          	setb   r13b
    3874:	41 30 cd             	xor    r13b,cl
    3877:	41 80 f5 ff          	xor    r13b,0xff
    387b:	44 08 e8             	or     al,r13b
    387e:	88 85 7f fd ff ff    	mov    BYTE PTR [rbp-0x281],al
    3884:	e8 37 08 00 00       	call   40c0 <timer>
    3889:	48 8b bd 68 fd ff ff 	mov    rdi,QWORD PTR [rbp-0x298]
    3890:	48 3d b5 00 00 00    	cmp    rax,0xb5
    3896:	0f 92 c0             	setb   al
    3899:	88 85 a8 fd ff ff    	mov    BYTE PTR [rbp-0x258],al
    389f:	e8 1c 08 00 00       	call   40c0 <timer>
    38a4:	48 8b bd 70 fd ff ff 	mov    rdi,QWORD PTR [rbp-0x290]
    38ab:	8a 8d a8 fd ff ff    	mov    cl,BYTE PTR [rbp-0x258]
    38b1:	48 89 c2             	mov    rdx,rax
    38b4:	8a 85 7f fd ff ff    	mov    al,BYTE PTR [rbp-0x281]
    38ba:	48 81 fa b5 00 00 00 	cmp    rdx,0xb5
    38c1:	41 0f 92 c4          	setb   r12b
    38c5:	41 30 cc             	xor    r12b,cl
    38c8:	41 80 f4 ff          	xor    r12b,0xff
    38cc:	44 08 e0             	or     al,r12b
    38cf:	88 85 97 fd ff ff    	mov    BYTE PTR [rbp-0x269],al
    38d5:	e8 e6 07 00 00       	call   40c0 <timer>
    38da:	48 8b bd 80 fd ff ff 	mov    rdi,QWORD PTR [rbp-0x280]
    38e1:	48 3d b5 00 00 00    	cmp    rax,0xb5
    38e7:	0f 92 c0             	setb   al
    38ea:	88 85 a9 fd ff ff    	mov    BYTE PTR [rbp-0x257],al
    38f0:	e8 cb 07 00 00       	call   40c0 <timer>
    38f5:	48 8b bd 88 fd ff ff 	mov    rdi,QWORD PTR [rbp-0x278]
    38fc:	8a 8d a9 fd ff ff    	mov    cl,BYTE PTR [rbp-0x257]
    3902:	48 89 c2             	mov    rdx,rax
    3905:	8a 85 97 fd ff ff    	mov    al,BYTE PTR [rbp-0x269]
    390b:	48 81 fa b5 00 00 00 	cmp    rdx,0xb5
    3912:	41 0f 92 c7          	setb   r15b
    3916:	41 30 cf             	xor    r15b,cl
    3919:	41 80 f7 ff          	xor    r15b,0xff
    391d:	44 08 f8             	or     al,r15b
    3920:	88 85 ab fd ff ff    	mov    BYTE PTR [rbp-0x255],al
    3926:	e8 95 07 00 00       	call   40c0 <timer>
    392b:	48 8b bd 98 fd ff ff 	mov    rdi,QWORD PTR [rbp-0x268]
    3932:	48 3d b5 00 00 00    	cmp    rax,0xb5
    3938:	0f 92 c0             	setb   al
    393b:	88 85 aa fd ff ff    	mov    BYTE PTR [rbp-0x256],al
    3941:	e8 7a 07 00 00       	call   40c0 <timer>
    3946:	8a 8d a4 fd ff ff    	mov    cl,BYTE PTR [rbp-0x25c]
    394c:	4c 8b 9d d8 fd ff ff 	mov    r11,QWORD PTR [rbp-0x228]
    3953:	8a 95 a5 fd ff ff    	mov    dl,BYTE PTR [rbp-0x25b]
    3959:	44 8a 95 a6 fd ff ff 	mov    r10b,BYTE PTR [rbp-0x25a]
    3960:	44 8a 8d a7 fd ff ff 	mov    r9b,BYTE PTR [rbp-0x259]
    3967:	44 8a 85 a8 fd ff ff 	mov    r8b,BYTE PTR [rbp-0x258]
    396e:	40 8a bd a9 fd ff ff 	mov    dil,BYTE PTR [rbp-0x257]
    3975:	40 8a b5 aa fd ff ff 	mov    sil,BYTE PTR [rbp-0x256]
    397c:	49 89 c6             	mov    r14,rax
    397f:	8a 85 ab fd ff ff    	mov    al,BYTE PTR [rbp-0x255]
    3985:	49 81 fe b5 00 00 00 	cmp    r14,0xb5
    398c:	41 0f 92 c6          	setb   r14b
    3990:	41 30 f6             	xor    r14b,sil
    3993:	41 80 f6 ff          	xor    r14b,0xff
    3997:	44 08 f0             	or     al,r14b
    399a:	80 e3 01             	and    bl,0x1
    399d:	80 e1 01             	and    cl,0x1
    39a0:	d0 e1                	shl    cl,1
    39a2:	08 cb                	or     bl,cl
    39a4:	48 8b 8d d0 fd ff ff 	mov    rcx,QWORD PTR [rbp-0x230]
    39ab:	41 80 e5 01          	and    r13b,0x1
    39af:	41 c0 e5 02          	shl    r13b,0x2
    39b3:	44 08 eb             	or     bl,r13b
    39b6:	41 80 e4 01          	and    r12b,0x1
    39ba:	41 c0 e4 03          	shl    r12b,0x3
    39be:	44 08 e3             	or     bl,r12b
    39c1:	41 80 e7 01          	and    r15b,0x1
    39c5:	41 c0 e7 04          	shl    r15b,0x4
    39c9:	44 08 fb             	or     bl,r15b
    39cc:	41 80 e6 01          	and    r14b,0x1
    39d0:	41 c0 e6 05          	shl    r14b,0x5
    39d4:	44 08 f3             	or     bl,r14b
    39d7:	41 88 1b             	mov    BYTE PTR [r11],bl
    39da:	80 e2 01             	and    dl,0x1
    39dd:	41 80 e2 01          	and    r10b,0x1
    39e1:	41 d0 e2             	shl    r10b,1
    39e4:	44 08 d2             	or     dl,r10b
    39e7:	41 80 e1 01          	and    r9b,0x1
    39eb:	41 c0 e1 02          	shl    r9b,0x2
    39ef:	44 08 ca             	or     dl,r9b
    39f2:	41 80 e0 01          	and    r8b,0x1
    39f6:	41 c0 e0 03          	shl    r8b,0x3
    39fa:	44 08 c2             	or     dl,r8b
    39fd:	40 80 e7 01          	and    dil,0x1
    3a01:	40 c0 e7 04          	shl    dil,0x4
    3a05:	40 08 fa             	or     dl,dil
    3a08:	40 80 e6 01          	and    sil,0x1
    3a0c:	40 c0 e6 05          	shl    sil,0x5
    3a10:	40 08 f2             	or     dl,sil
    3a13:	88 11                	mov    BYTE PTR [rcx],dl
    3a15:	24 01                	and    al,0x1
    3a17:	0f b6 c0             	movzx  eax,al
    3a1a:	48 8d 65 d8          	lea    rsp,[rbp-0x28]
    3a1e:	5b                   	pop    rbx
    3a1f:	41 5c                	pop    r12
    3a21:	41 5d                	pop    r13
    3a23:	41 5e                	pop    r14
    3a25:	41 5f                	pop    r15
    3a27:	5d                   	pop    rbp
    3a28:	c3                   	ret    
    3a29:	0f 1f 80 00 00 00 00 	nop    DWORD PTR [rax+0x0]

0000000000003a30 <_Z12update_votesPhS_Pc>:
    3a30:	48 89 7c 24 d8       	mov    QWORD PTR [rsp-0x28],rdi
    3a35:	48 89 74 24 e0       	mov    QWORD PTR [rsp-0x20],rsi
    3a3a:	48 89 54 24 e8       	mov    QWORD PTR [rsp-0x18],rdx
    3a3f:	31 c0                	xor    eax,eax
    3a41:	89 c1                	mov    ecx,eax
    3a43:	b0 01                	mov    al,0x1
    3a45:	48 89 4c 24 f0       	mov    QWORD PTR [rsp-0x10],rcx
    3a4a:	88 44 24 ff          	mov    BYTE PTR [rsp-0x1],al
    3a4e:	e9 11 00 00 00       	jmp    3a64 <_Z12update_votesPhS_Pc+0x34>
    3a53:	8a 44 24 d7          	mov    al,BYTE PTR [rsp-0x29]
    3a57:	24 01                	and    al,0x1
    3a59:	3c 00                	cmp    al,0x0
    3a5b:	0f 95 c0             	setne  al
    3a5e:	24 01                	and    al,0x1
    3a60:	0f b6 c0             	movzx  eax,al
    3a63:	c3                   	ret    
    3a64:	48 8b 44 24 f0       	mov    rax,QWORD PTR [rsp-0x10]
    3a69:	8a 4c 24 ff          	mov    cl,BYTE PTR [rsp-0x1]
    3a6d:	88 4c 24 c7          	mov    BYTE PTR [rsp-0x39],cl
    3a71:	48 89 44 24 c8       	mov    QWORD PTR [rsp-0x38],rax
    3a76:	89 c1                	mov    ecx,eax
    3a78:	b8 01 00 00 00       	mov    eax,0x1
    3a7d:	d3 e0                	shl    eax,cl
    3a7f:	48 8b 4c 24 e0       	mov    rcx,QWORD PTR [rsp-0x20]
    3a84:	89 44 24 d0          	mov    DWORD PTR [rsp-0x30],eax
    3a88:	0f b6 09             	movzx  ecx,BYTE PTR [rcx]
    3a8b:	21 c8                	and    eax,ecx
    3a8d:	83 f8 00             	cmp    eax,0x0
    3a90:	0f 85 6f 00 00 00    	jne    3b05 <_Z12update_votesPhS_Pc+0xd5>
    3a96:	48 8b 4c 24 e8       	mov    rcx,QWORD PTR [rsp-0x18]
    3a9b:	48 8b 54 24 c8       	mov    rdx,QWORD PTR [rsp-0x38]
    3aa0:	8b 44 24 d0          	mov    eax,DWORD PTR [rsp-0x30]
    3aa4:	48 8b 74 24 d8       	mov    rsi,QWORD PTR [rsp-0x28]
    3aa9:	0f b6 36             	movzx  esi,BYTE PTR [rsi]
    3aac:	21 f0                	and    eax,esi
    3aae:	48 89 ce             	mov    rsi,rcx
    3ab1:	48 01 d6             	add    rsi,rdx
    3ab4:	48 89 74 24 b8       	mov    QWORD PTR [rsp-0x48],rsi
    3ab9:	8a 0c 11             	mov    cl,BYTE PTR [rcx+rdx*1]
    3abc:	88 4c 24 c6          	mov    BYTE PTR [rsp-0x3a],cl
    3ac0:	83 f8 00             	cmp    eax,0x0
    3ac3:	0f 84 18 00 00 00    	je     3ae1 <_Z12update_votesPhS_Pc+0xb1>
    3ac9:	8a 4c 24 c6          	mov    cl,BYTE PTR [rsp-0x3a]
    3acd:	b0 01                	mov    al,0x1
    3acf:	80 f9 7e             	cmp    cl,0x7e
    3ad2:	88 44 24 b7          	mov    BYTE PTR [rsp-0x49],al
    3ad6:	0f 8c 18 00 00 00    	jl     3af4 <_Z12update_votesPhS_Pc+0xc4>
    3adc:	e9 24 00 00 00       	jmp    3b05 <_Z12update_votesPhS_Pc+0xd5>
    3ae1:	8a 4c 24 c6          	mov    cl,BYTE PTR [rsp-0x3a]
    3ae5:	b0 ff                	mov    al,0xff
    3ae7:	80 f9 82             	cmp    cl,0x82
    3aea:	88 44 24 b7          	mov    BYTE PTR [rsp-0x49],al
    3aee:	0f 8e 11 00 00 00    	jle    3b05 <_Z12update_votesPhS_Pc+0xd5>
    3af4:	48 8b 44 24 b8       	mov    rax,QWORD PTR [rsp-0x48]
    3af9:	8a 4c 24 c6          	mov    cl,BYTE PTR [rsp-0x3a]
    3afd:	8a 54 24 b7          	mov    dl,BYTE PTR [rsp-0x49]
    3b01:	00 d1                	add    cl,dl
    3b03:	88 08                	mov    BYTE PTR [rax],cl
    3b05:	48 8b 44 24 e8       	mov    rax,QWORD PTR [rsp-0x18]
    3b0a:	48 8b 4c 24 c8       	mov    rcx,QWORD PTR [rsp-0x38]
    3b0f:	8a 0c 08             	mov    cl,BYTE PTR [rax+rcx*1]
    3b12:	80 c1 01             	add    cl,0x1
    3b15:	31 c0                	xor    eax,eax
    3b17:	80 f9 03             	cmp    cl,0x3
    3b1a:	88 44 24 b6          	mov    BYTE PTR [rsp-0x4a],al
    3b1e:	0f 82 08 00 00 00    	jb     3b2c <_Z12update_votesPhS_Pc+0xfc>
    3b24:	8a 44 24 c7          	mov    al,BYTE PTR [rsp-0x39]
    3b28:	88 44 24 b6          	mov    BYTE PTR [rsp-0x4a],al
    3b2c:	48 8b 4c 24 c8       	mov    rcx,QWORD PTR [rsp-0x38]
    3b31:	8a 44 24 b6          	mov    al,BYTE PTR [rsp-0x4a]
    3b35:	88 44 24 d7          	mov    BYTE PTR [rsp-0x29],al
    3b39:	48 83 c1 01          	add    rcx,0x1
    3b3d:	48 83 f9 06          	cmp    rcx,0x6
    3b41:	48 89 4c 24 f0       	mov    QWORD PTR [rsp-0x10],rcx
    3b46:	88 44 24 ff          	mov    BYTE PTR [rsp-0x1],al
    3b4a:	0f 84 03 ff ff ff    	je     3a53 <_Z12update_votesPhS_Pc+0x23>
    3b50:	e9 0f ff ff ff       	jmp    3a64 <_Z12update_votesPhS_Pc+0x34>
    3b55:	66 66 2e 0f 1f 84 00 	data16 cs nop WORD PTR [rax+rax*1+0x0]
    3b5c:	00 00 00 00 

0000000000003b60 <_Z12merge_outputPhPc>:
    3b60:	48 89 7c 24 e8       	mov    QWORD PTR [rsp-0x18],rdi
    3b65:	48 89 74 24 f0       	mov    QWORD PTR [rsp-0x10],rsi
    3b6a:	31 c0                	xor    eax,eax
    3b6c:	48 89 44 24 f8       	mov    QWORD PTR [rsp-0x8],rax
    3b71:	e9 01 00 00 00       	jmp    3b77 <_Z12merge_outputPhPc+0x17>
    3b76:	c3                   	ret    
    3b77:	48 8b 44 24 f0       	mov    rax,QWORD PTR [rsp-0x10]
    3b7c:	48 8b 4c 24 f8       	mov    rcx,QWORD PTR [rsp-0x8]
    3b81:	48 89 4c 24 d8       	mov    QWORD PTR [rsp-0x28],rcx
    3b86:	8a 04 08             	mov    al,BYTE PTR [rax+rcx*1]
    3b89:	88 44 24 e7          	mov    BYTE PTR [rsp-0x19],al
    3b8d:	3c 01                	cmp    al,0x1
    3b8f:	0f 8e 20 00 00 00    	jle    3bb5 <_Z12merge_outputPhPc+0x55>
    3b95:	48 8b 44 24 e8       	mov    rax,QWORD PTR [rsp-0x18]
    3b9a:	48 8b 4c 24 d8       	mov    rcx,QWORD PTR [rsp-0x28]
    3b9f:	ba 01 00 00 00       	mov    edx,0x1
    3ba4:	d3 e2                	shl    edx,cl
    3ba6:	89 d1                	mov    ecx,edx
    3ba8:	8a 00                	mov    al,BYTE PTR [rax]
    3baa:	08 c8                	or     al,cl
    3bac:	88 44 24 d7          	mov    BYTE PTR [rsp-0x29],al
    3bb0:	e9 2a 00 00 00       	jmp    3bdf <_Z12merge_outputPhPc+0x7f>
    3bb5:	8a 44 24 e7          	mov    al,BYTE PTR [rsp-0x19]
    3bb9:	3c ff                	cmp    al,0xff
    3bbb:	0f 8d 29 00 00 00    	jge    3bea <_Z12merge_outputPhPc+0x8a>
    3bc1:	48 8b 44 24 e8       	mov    rax,QWORD PTR [rsp-0x18]
    3bc6:	48 8b 4c 24 d8       	mov    rcx,QWORD PTR [rsp-0x28]
    3bcb:	ba 01 00 00 00       	mov    edx,0x1
    3bd0:	d3 e2                	shl    edx,cl
    3bd2:	89 d1                	mov    ecx,edx
    3bd4:	8a 00                	mov    al,BYTE PTR [rax]
    3bd6:	80 f1 ff             	xor    cl,0xff
    3bd9:	20 c8                	and    al,cl
    3bdb:	88 44 24 d7          	mov    BYTE PTR [rsp-0x29],al
    3bdf:	48 8b 44 24 e8       	mov    rax,QWORD PTR [rsp-0x18]
    3be4:	8a 4c 24 d7          	mov    cl,BYTE PTR [rsp-0x29]
    3be8:	88 08                	mov    BYTE PTR [rax],cl
    3bea:	48 8b 44 24 d8       	mov    rax,QWORD PTR [rsp-0x28]
    3bef:	48 83 c0 01          	add    rax,0x1
    3bf3:	48 83 f8 06          	cmp    rax,0x6
    3bf7:	48 89 44 24 f8       	mov    QWORD PTR [rsp-0x8],rax
    3bfc:	0f 84 74 ff ff ff    	je     3b76 <_Z12merge_outputPhPc+0x16>
    3c02:	e9 70 ff ff ff       	jmp    3b77 <_Z12merge_outputPhPc+0x17>
    3c07:	66 0f 1f 84 00 00 00 	nop    WORD PTR [rax+rax*1+0x0]
    3c0e:	00 00 

0000000000003c10 <_Z8test_accPFbPhS_S_S_S_E>:
    3c10:	48 81 ec b8 00 00 00 	sub    rsp,0xb8
    3c17:	48 89 7c 24 60       	mov    QWORD PTR [rsp+0x60],rdi
    3c1c:	8b 0d 2e 54 00 00    	mov    ecx,DWORD PTR [rip+0x542e]        # 9050 <tot_trials>
    3c22:	31 c0                	xor    eax,eax
    3c24:	89 c2                	mov    edx,eax
    3c26:	31 c0                	xor    eax,eax
    3c28:	83 f9 00             	cmp    ecx,0x0
    3c2b:	48 89 54 24 68       	mov    QWORD PTR [rsp+0x68],rdx
    3c30:	89 c2                	mov    edx,eax
    3c32:	89 54 24 74          	mov    DWORD PTR [rsp+0x74],edx
    3c36:	89 c2                	mov    edx,eax
    3c38:	89 54 24 78          	mov    DWORD PTR [rsp+0x78],edx
    3c3c:	89 c2                	mov    edx,eax
    3c3e:	89 54 24 7c          	mov    DWORD PTR [rsp+0x7c],edx
    3c42:	89 8c 24 80 00 00 00 	mov    DWORD PTR [rsp+0x80],ecx
    3c49:	89 84 24 84 00 00 00 	mov    DWORD PTR [rsp+0x84],eax
    3c50:	0f 85 2d 01 00 00    	jne    3d83 <_Z8test_accPFbPhS_S_S_S_E+0x173>
    3c56:	48 8b 44 24 68       	mov    rax,QWORD PTR [rsp+0x68]
    3c5b:	8b 54 24 74          	mov    edx,DWORD PTR [rsp+0x74]
    3c5f:	8b 74 24 78          	mov    esi,DWORD PTR [rsp+0x78]
    3c63:	8b 7c 24 7c          	mov    edi,DWORD PTR [rsp+0x7c]
    3c67:	8b 8c 24 80 00 00 00 	mov    ecx,DWORD PTR [rsp+0x80]
    3c6e:	89 7c 24 40          	mov    DWORD PTR [rsp+0x40],edi
    3c72:	89 74 24 44          	mov    DWORD PTR [rsp+0x44],esi
    3c76:	89 54 24 54          	mov    DWORD PTR [rsp+0x54],edx
    3c7a:	89 c9                	mov    ecx,ecx
    3c7c:	31 d2                	xor    edx,edx
    3c7e:	48 f7 f1             	div    rcx
    3c81:	48 89 44 24 58       	mov    QWORD PTR [rsp+0x58],rax
    3c86:	48 8d 3d 3c 34 00 00 	lea    rdi,[rip+0x343c]        # 70c9 <_IO_stdin_used+0xc9>
    3c8d:	e8 ee d3 ff ff       	call   1080 <puts@plt>
    3c92:	8b 44 24 40          	mov    eax,DWORD PTR [rsp+0x40]
    3c96:	89 c0                	mov    eax,eax
    3c98:	f2 48 0f 2a c0       	cvtsi2sd xmm0,rax
    3c9d:	8b 05 ad 53 00 00    	mov    eax,DWORD PTR [rip+0x53ad]        # 9050 <tot_trials>
    3ca3:	f2 48 0f 2a c8       	cvtsi2sd xmm1,rax
    3ca8:	f2 0f 5e c1          	divsd  xmm0,xmm1
    3cac:	f2 0f 10 0d 54 33 00 	movsd  xmm1,QWORD PTR [rip+0x3354]        # 7008 <_IO_stdin_used+0x8>
    3cb3:	00 
    3cb4:	f2 0f 11 4c 24 48    	movsd  QWORD PTR [rsp+0x48],xmm1
    3cba:	f2 0f 59 c1          	mulsd  xmm0,xmm1
    3cbe:	48 8d 3d 4b 33 00 00 	lea    rdi,[rip+0x334b]        # 7010 <_IO_stdin_used+0x10>
    3cc5:	b0 01                	mov    al,0x1
    3cc7:	88 44 24 53          	mov    BYTE PTR [rsp+0x53],al
    3ccb:	e8 60 d3 ff ff       	call   1030 <printf@plt>
    3cd0:	8b 4c 24 44          	mov    ecx,DWORD PTR [rsp+0x44]
    3cd4:	f2 0f 10 4c 24 48    	movsd  xmm1,QWORD PTR [rsp+0x48]
    3cda:	8a 44 24 53          	mov    al,BYTE PTR [rsp+0x53]
    3cde:	89 c9                	mov    ecx,ecx
    3ce0:	f2 48 0f 2a c1       	cvtsi2sd xmm0,rcx
    3ce5:	8b 0d 65 53 00 00    	mov    ecx,DWORD PTR [rip+0x5365]        # 9050 <tot_trials>
    3ceb:	f2 48 0f 2a d1       	cvtsi2sd xmm2,rcx
    3cf0:	f2 0f 5e c2          	divsd  xmm0,xmm2
    3cf4:	f2 0f 59 c1          	mulsd  xmm0,xmm1
    3cf8:	48 8d 3d 24 33 00 00 	lea    rdi,[rip+0x3324]        # 7023 <_IO_stdin_used+0x23>
    3cff:	e8 2c d3 ff ff       	call   1030 <printf@plt>
    3d04:	8b 44 24 54          	mov    eax,DWORD PTR [rsp+0x54]
    3d08:	89 c0                	mov    eax,eax
    3d0a:	f2 48 0f 2a c0       	cvtsi2sd xmm0,rax
    3d0f:	8b 05 3b 53 00 00    	mov    eax,DWORD PTR [rip+0x533b]        # 9050 <tot_trials>
    3d15:	f2 48 0f 2a c8       	cvtsi2sd xmm1,rax
    3d1a:	f2 0f 5e c1          	divsd  xmm0,xmm1
    3d1e:	f2 0f 10 0d e2 32 00 	movsd  xmm1,QWORD PTR [rip+0x32e2]        # 7008 <_IO_stdin_used+0x8>
    3d25:	00 
    3d26:	f2 0f 59 c1          	mulsd  xmm0,xmm1
    3d2a:	48 8d 3d 0b 33 00 00 	lea    rdi,[rip+0x330b]        # 703c <_IO_stdin_used+0x3c>
    3d31:	b0 01                	mov    al,0x1
    3d33:	e8 f8 d2 ff ff       	call   1030 <printf@plt>
    3d38:	48 8b 44 24 58       	mov    rax,QWORD PTR [rsp+0x58]
    3d3d:	b9 e8 03 00 00       	mov    ecx,0x3e8
    3d42:	31 d2                	xor    edx,edx
    3d44:	48 f7 f1             	div    rcx
    3d47:	48 89 c6             	mov    rsi,rax
    3d4a:	48 8b 44 24 58       	mov    rax,QWORD PTR [rsp+0x58]
    3d4f:	b9 e8 03 00 00       	mov    ecx,0x3e8
    3d54:	31 d2                	xor    edx,edx
    3d56:	48 f7 f1             	div    rcx
    3d59:	48 8d 3d f6 32 00 00 	lea    rdi,[rip+0x32f6]        # 7056 <_IO_stdin_used+0x56>
    3d60:	b0 00                	mov    al,0x0
    3d62:	e8 c9 d2 ff ff       	call   1030 <printf@plt>
    3d67:	8b 35 e3 52 00 00    	mov    esi,DWORD PTR [rip+0x52e3]        # 9050 <tot_trials>
    3d6d:	48 8d 3d fc 32 00 00 	lea    rdi,[rip+0x32fc]        # 7070 <_IO_stdin_used+0x70>
    3d74:	b0 00                	mov    al,0x0
    3d76:	e8 b5 d2 ff ff       	call   1030 <printf@plt>
    3d7b:	48 81 c4 b8 00 00 00 	add    rsp,0xb8
    3d82:	c3                   	ret    
    3d83:	8b 44 24 7c          	mov    eax,DWORD PTR [rsp+0x7c]
    3d87:	8b 4c 24 78          	mov    ecx,DWORD PTR [rsp+0x78]
    3d8b:	8b 54 24 74          	mov    edx,DWORD PTR [rsp+0x74]
    3d8f:	8b b4 24 84 00 00 00 	mov    esi,DWORD PTR [rsp+0x84]
    3d96:	48 8b 7c 24 68       	mov    rdi,QWORD PTR [rsp+0x68]
    3d9b:	48 89 7c 24 28       	mov    QWORD PTR [rsp+0x28],rdi
    3da0:	89 74 24 3c          	mov    DWORD PTR [rsp+0x3c],esi
    3da4:	89 54 24 30          	mov    DWORD PTR [rsp+0x30],edx
    3da8:	89 4c 24 34          	mov    DWORD PTR [rsp+0x34],ecx
    3dac:	89 44 24 38          	mov    DWORD PTR [rsp+0x38],eax
    3db0:	c6 84 24 b4 00 00 00 	mov    BYTE PTR [rsp+0xb4],0x0
    3db7:	00 
    3db8:	c6 84 24 b3 00 00 00 	mov    BYTE PTR [rsp+0xb3],0x0
    3dbf:	00 
    3dc0:	c6 84 24 af 00 00 00 	mov    BYTE PTR [rsp+0xaf],0x0
    3dc7:	00 
    3dc8:	48 8d bc 24 a9 00 00 	lea    rdi,[rsp+0xa9]
    3dcf:	00 
    3dd0:	31 f6                	xor    esi,esi
    3dd2:	ba 06 00 00 00       	mov    edx,0x6
    3dd7:	e8 84 d2 ff ff       	call   1060 <memset@plt>
    3ddc:	8b 44 24 3c          	mov    eax,DWORD PTR [rsp+0x3c]
    3de0:	88 c1                	mov    cl,al
    3de2:	88 ca                	mov    dl,cl
    3de4:	80 e2 0f             	and    dl,0xf
    3de7:	88 94 24 b7 00 00 00 	mov    BYTE PTR [rsp+0xb7],dl
    3dee:	88 94 24 b2 00 00 00 	mov    BYTE PTR [rsp+0xb2],dl
    3df5:	c0 e9 04             	shr    cl,0x4
    3df8:	88 8c 24 b6 00 00 00 	mov    BYTE PTR [rsp+0xb6],cl
    3dff:	88 8c 24 b1 00 00 00 	mov    BYTE PTR [rsp+0xb1],cl
    3e06:	c1 e8 08             	shr    eax,0x8
    3e09:	24 3f                	and    al,0x3f
    3e0b:	88 84 24 b5 00 00 00 	mov    BYTE PTR [rsp+0xb5],al
    3e12:	88 84 24 b0 00 00 00 	mov    BYTE PTR [rsp+0xb0],al
    3e19:	bf 01 00 00 00       	mov    edi,0x1
    3e1e:	48 8d b4 24 98 00 00 	lea    rsi,[rsp+0x98]
    3e25:	00 
    3e26:	e8 45 d2 ff ff       	call   1070 <clock_gettime@plt>
    3e2b:	48 8b 44 24 60       	mov    rax,QWORD PTR [rsp+0x60]
    3e30:	48 8d bc 24 b7 00 00 	lea    rdi,[rsp+0xb7]
    3e37:	00 
    3e38:	48 8d b4 24 b6 00 00 	lea    rsi,[rsp+0xb6]
    3e3f:	00 
    3e40:	48 8d 94 24 b5 00 00 	lea    rdx,[rsp+0xb5]
    3e47:	00 
    3e48:	48 8d 8c 24 b4 00 00 	lea    rcx,[rsp+0xb4]
    3e4f:	00 
    3e50:	4c 8d 84 24 b3 00 00 	lea    r8,[rsp+0xb3]
    3e57:	00 
    3e58:	ff d0                	call   rax
    3e5a:	88 44 24 26          	mov    BYTE PTR [rsp+0x26],al
    3e5e:	48 8d bc 24 b4 00 00 	lea    rdi,[rsp+0xb4]
    3e65:	00 
    3e66:	48 8d b4 24 b3 00 00 	lea    rsi,[rsp+0xb3]
    3e6d:	00 
    3e6e:	48 8d 94 24 a9 00 00 	lea    rdx,[rsp+0xa9]
    3e75:	00 
    3e76:	e8 b5 fb ff ff       	call   3a30 <_Z12update_votesPhS_Pc>
    3e7b:	88 c1                	mov    cl,al
    3e7d:	8a 44 24 26          	mov    al,BYTE PTR [rsp+0x26]
    3e81:	80 f1 ff             	xor    cl,0xff
    3e84:	20 c8                	and    al,cl
    3e86:	88 44 24 27          	mov    BYTE PTR [rsp+0x27],al
    3e8a:	80 3d c2 52 00 00 00 	cmp    BYTE PTR [rip+0x52c2],0x0        # 9153 <retry>
    3e91:	0f 95 c1             	setne  cl
    3e94:	20 c8                	and    al,cl
    3e96:	a8 01                	test   al,0x1
    3e98:	0f 85 8d ff ff ff    	jne    3e2b <_Z8test_accPFbPhS_S_S_S_E+0x21b>
    3e9e:	48 8d bc 24 b4 00 00 	lea    rdi,[rsp+0xb4]
    3ea5:	00 
    3ea6:	48 8d b4 24 a9 00 00 	lea    rsi,[rsp+0xa9]
    3ead:	00 
    3eae:	e8 ad fc ff ff       	call   3b60 <_Z12merge_outputPhPc>
    3eb3:	bf 01 00 00 00       	mov    edi,0x1
    3eb8:	48 8d b4 24 88 00 00 	lea    rsi,[rsp+0x88]
    3ebf:	00 
    3ec0:	e8 ab d1 ff ff       	call   1070 <clock_gettime@plt>
    3ec5:	48 8d bc 24 98 00 00 	lea    rdi,[rsp+0x98]
    3ecc:	00 
    3ecd:	48 8d b4 24 88 00 00 	lea    rsi,[rsp+0x88]
    3ed4:	00 
    3ed5:	e8 e6 d2 ff ff       	call   11c0 <_Z12time_elaspedP8timespecS0_>
    3eda:	48 8b 4c 24 28       	mov    rcx,QWORD PTR [rsp+0x28]
    3edf:	48 01 c8             	add    rax,rcx
    3ee2:	48 89 44 24 18       	mov    QWORD PTR [rsp+0x18],rax
    3ee7:	48 8d bc 24 b2 00 00 	lea    rdi,[rsp+0xb2]
    3eee:	00 
    3eef:	48 8d b4 24 b1 00 00 	lea    rsi,[rsp+0xb1]
    3ef6:	00 
    3ef7:	48 8d 94 24 b0 00 00 	lea    rdx,[rsp+0xb0]
    3efe:	00 
    3eff:	48 8d 8c 24 af 00 00 	lea    rcx,[rsp+0xaf]
    3f06:	00 
    3f07:	e8 d4 d2 ff ff       	call   11e0 <_Z7ref_aluPhS_S_S_>
    3f0c:	8a 44 24 27          	mov    al,BYTE PTR [rsp+0x27]
    3f10:	a8 01                	test   al,0x1
    3f12:	0f 85 05 00 00 00    	jne    3f1d <_Z8test_accPFbPhS_S_S_S_E+0x30d>
    3f18:	e9 20 00 00 00       	jmp    3f3d <_Z8test_accPFbPhS_S_S_S_E+0x32d>
    3f1d:	8b 44 24 38          	mov    eax,DWORD PTR [rsp+0x38]
    3f21:	8b 54 24 30          	mov    edx,DWORD PTR [rsp+0x30]
    3f25:	8b 4c 24 34          	mov    ecx,DWORD PTR [rsp+0x34]
    3f29:	83 c1 01             	add    ecx,0x1
    3f2c:	89 54 24 0c          	mov    DWORD PTR [rsp+0xc],edx
    3f30:	89 4c 24 10          	mov    DWORD PTR [rsp+0x10],ecx
    3f34:	89 44 24 14          	mov    DWORD PTR [rsp+0x14],eax
    3f38:	e9 53 00 00 00       	jmp    3f90 <_Z8test_accPFbPhS_S_S_S_E+0x380>
    3f3d:	8a 84 24 b4 00 00 00 	mov    al,BYTE PTR [rsp+0xb4]
    3f44:	32 84 24 af 00 00 00 	xor    al,BYTE PTR [rsp+0xaf]
    3f4b:	24 3f                	and    al,0x3f
    3f4d:	3c 00                	cmp    al,0x0
    3f4f:	0f 85 20 00 00 00    	jne    3f75 <_Z8test_accPFbPhS_S_S_S_E+0x365>
    3f55:	8b 4c 24 34          	mov    ecx,DWORD PTR [rsp+0x34]
    3f59:	8b 54 24 30          	mov    edx,DWORD PTR [rsp+0x30]
    3f5d:	8b 44 24 38          	mov    eax,DWORD PTR [rsp+0x38]
    3f61:	83 c0 01             	add    eax,0x1
    3f64:	89 54 24 0c          	mov    DWORD PTR [rsp+0xc],edx
    3f68:	89 4c 24 10          	mov    DWORD PTR [rsp+0x10],ecx
    3f6c:	89 44 24 14          	mov    DWORD PTR [rsp+0x14],eax
    3f70:	e9 1b 00 00 00       	jmp    3f90 <_Z8test_accPFbPhS_S_S_S_E+0x380>
    3f75:	8b 44 24 38          	mov    eax,DWORD PTR [rsp+0x38]
    3f79:	8b 4c 24 34          	mov    ecx,DWORD PTR [rsp+0x34]
    3f7d:	8b 54 24 30          	mov    edx,DWORD PTR [rsp+0x30]
    3f81:	83 c2 01             	add    edx,0x1
    3f84:	89 54 24 0c          	mov    DWORD PTR [rsp+0xc],edx
    3f88:	89 4c 24 10          	mov    DWORD PTR [rsp+0x10],ecx
    3f8c:	89 44 24 14          	mov    DWORD PTR [rsp+0x14],eax
    3f90:	4c 8b 44 24 18       	mov    r8,QWORD PTR [rsp+0x18]
    3f95:	8b 44 24 3c          	mov    eax,DWORD PTR [rsp+0x3c]
    3f99:	8b 7c 24 0c          	mov    edi,DWORD PTR [rsp+0xc]
    3f9d:	8b 74 24 10          	mov    esi,DWORD PTR [rsp+0x10]
    3fa1:	8b 54 24 14          	mov    edx,DWORD PTR [rsp+0x14]
    3fa5:	83 c0 01             	add    eax,0x1
    3fa8:	8b 0d a2 50 00 00    	mov    ecx,DWORD PTR [rip+0x50a2]        # 9050 <tot_trials>
    3fae:	39 c8                	cmp    eax,ecx
    3fb0:	4c 89 44 24 68       	mov    QWORD PTR [rsp+0x68],r8
    3fb5:	89 7c 24 74          	mov    DWORD PTR [rsp+0x74],edi
    3fb9:	89 74 24 78          	mov    DWORD PTR [rsp+0x78],esi
    3fbd:	89 54 24 7c          	mov    DWORD PTR [rsp+0x7c],edx
    3fc1:	89 8c 24 80 00 00 00 	mov    DWORD PTR [rsp+0x80],ecx
    3fc8:	89 84 24 84 00 00 00 	mov    DWORD PTR [rsp+0x84],eax
    3fcf:	0f 82 ae fd ff ff    	jb     3d83 <_Z8test_accPFbPhS_S_S_S_E+0x173>
    3fd5:	e9 7c fc ff ff       	jmp    3c56 <_Z8test_accPFbPhS_S_S_S_E+0x46>
    3fda:	66 0f 1f 44 00 00    	nop    WORD PTR [rax+rax*1+0x0]

0000000000003fe0 <main>:
    3fe0:	50                   	push   rax
    3fe1:	48 89 f2             	mov    rdx,rsi
    3fe4:	89 fe                	mov    esi,edi
    3fe6:	48 8d 3d 6b 50 00 00 	lea    rdi,[rip+0x506b]        # 9058 <_ZL4argp>
    3fed:	31 c9                	xor    ecx,ecx
    3fef:	31 c0                	xor    eax,eax
    3ff1:	41 89 c1             	mov    r9d,eax
    3ff4:	4d 89 c8             	mov    r8,r9
    3ff7:	e8 44 d0 ff ff       	call   1040 <argp_parse@plt>
    3ffc:	48 8d 3d cd d2 ff ff 	lea    rdi,[rip+0xffffffffffffd2cd]        # 12d0 <_Z12__weird__aluPhS_S_S_S_>
    4003:	e8 08 fc ff ff       	call   3c10 <_Z8test_accPFbPhS_S_S_S_E>
    4008:	31 c0                	xor    eax,eax
    400a:	59                   	pop    rcx
    400b:	c3                   	ret    
    400c:	0f 1f 40 00          	nop    DWORD PTR [rax+0x0]

0000000000004010 <_ZL9parse_optiPcP10argp_state>:
    4010:	48 83 ec 18          	sub    rsp,0x18
    4014:	89 7c 24 04          	mov    DWORD PTR [rsp+0x4],edi
    4018:	48 89 74 24 08       	mov    QWORD PTR [rsp+0x8],rsi
    401d:	85 ff                	test   edi,edi
    401f:	89 7c 24 14          	mov    DWORD PTR [rsp+0x14],edi
    4023:	0f 84 64 00 00 00    	je     408d <_ZL9parse_optiPcP10argp_state+0x7d>
    4029:	e9 00 00 00 00       	jmp    402e <_ZL9parse_optiPcP10argp_state+0x1e>
    402e:	8b 44 24 04          	mov    eax,DWORD PTR [rsp+0x4]
    4032:	83 e8 72             	sub    eax,0x72
    4035:	0f 84 17 00 00 00    	je     4052 <_ZL9parse_optiPcP10argp_state+0x42>
    403b:	e9 00 00 00 00       	jmp    4040 <_ZL9parse_optiPcP10argp_state+0x30>
    4040:	8b 44 24 04          	mov    eax,DWORD PTR [rsp+0x4]
    4044:	83 e8 74             	sub    eax,0x74
    4047:	0f 84 17 00 00 00    	je     4064 <_ZL9parse_optiPcP10argp_state+0x54>
    404d:	e9 2d 00 00 00       	jmp    407f <_ZL9parse_optiPcP10argp_state+0x6f>
    4052:	c6 05 fa 50 00 00 01 	mov    BYTE PTR [rip+0x50fa],0x1        # 9153 <retry>
    4059:	31 c0                	xor    eax,eax
    405b:	89 44 24 14          	mov    DWORD PTR [rsp+0x14],eax
    405f:	e9 29 00 00 00       	jmp    408d <_ZL9parse_optiPcP10argp_state+0x7d>
    4064:	48 8b 7c 24 08       	mov    rdi,QWORD PTR [rsp+0x8]
    4069:	e8 22 d0 ff ff       	call   1090 <atoi@plt>
    406e:	89 05 dc 4f 00 00    	mov    DWORD PTR [rip+0x4fdc],eax        # 9050 <tot_trials>
    4074:	31 c0                	xor    eax,eax
    4076:	89 44 24 14          	mov    DWORD PTR [rsp+0x14],eax
    407a:	e9 0e 00 00 00       	jmp    408d <_ZL9parse_optiPcP10argp_state+0x7d>
    407f:	b8 07 00 00 00       	mov    eax,0x7
    4084:	89 44 24 14          	mov    DWORD PTR [rsp+0x14],eax
    4088:	e9 00 00 00 00       	jmp    408d <_ZL9parse_optiPcP10argp_state+0x7d>
    408d:	8b 44 24 14          	mov    eax,DWORD PTR [rsp+0x14]
    4091:	48 83 c4 18          	add    rsp,0x18
    4095:	c3                   	ret    
    4096:	66 2e 0f 1f 84 00 00 	cs nop WORD PTR [rax+rax*1+0x0]
    409d:	00 00 00 

00000000000040a0 <delay>:
    40a0:	c7 44 24 fc 00 00 00 	mov    DWORD PTR [rsp-0x4],0x0
    40a7:	00 
    40a8:	8b 44 24 fc          	mov    eax,DWORD PTR [rsp-0x4]
    40ac:	83 c0 01             	add    eax,0x1
    40af:	89 44 24 fc          	mov    DWORD PTR [rsp-0x4],eax
    40b3:	3d 00 01 00 00       	cmp    eax,0x100
    40b8:	0f 8c ea ff ff ff    	jl     40a8 <delay+0x8>
    40be:	c3                   	ret    
    40bf:	90                   	nop

00000000000040c0 <timer>:
    40c0:	0f 01 f9             	rdtscp 
    40c3:	48 c1 e2 20          	shl    rdx,0x20
    40c7:	48 89 d6             	mov    rsi,rdx
    40ca:	09 c6                	or     esi,eax
    40cc:	8a 07                	mov    al,BYTE PTR [rdi]
    40ce:	0f 01 f9             	rdtscp 
    40d1:	48 c1 e2 20          	shl    rdx,0x20
    40d5:	09 c2                	or     edx,eax
    40d7:	48 29 f2             	sub    rdx,rsi
    40da:	48 89 d7             	mov    rdi,rdx
    40dd:	48 89 7c 24 f8       	mov    QWORD PTR [rsp-0x8],rdi
    40e2:	48 8b 44 24 f8       	mov    rax,QWORD PTR [rsp-0x8]
    40e7:	c3                   	ret    
    40e8:	0f 1f 84 00 00 00 00 	nop    DWORD PTR [rax+rax*1+0x0]
    40ef:	00 

00000000000040f0 <__DualGate__3_1_75>:
    40f0:	41 57                	push   r15
    40f2:	41 56                	push   r14
    40f4:	53                   	push   rbx
    40f5:	4c 89 cb             	mov    rbx,r9
    40f8:	4d 89 c3             	mov    r11,r8
    40fb:	49 89 c9             	mov    r9,rcx
    40fe:	49 89 d0             	mov    r8,rdx
    4101:	4c 8b 7c 24 28       	mov    r15,QWORD PTR [rsp+0x28]
    4106:	4c 8b 74 24 20       	mov    r14,QWORD PTR [rsp+0x20]
    410b:	e8 90 d0 ff ff       	call   11a0 <mod_ret_addr>
    4110:	48 0f b6 3f          	movzx  rdi,BYTE PTR [rdi]
    4114:	48 0f b6 36          	movzx  rsi,BYTE PTR [rsi]
    4118:	4d 0f b6 00          	movzx  r8,BYTE PTR [r8]
    411c:	4d 0f b6 09          	movzx  r9,BYTE PTR [r9]
    4120:	4d 0f b6 1b          	movzx  r11,BYTE PTR [r11]
    4124:	48 0f b6 1b          	movzx  rbx,BYTE PTR [rbx]
    4128:	4d 8d 14 3f          	lea    r10,[r15+rdi*1]
    412c:	45 8a 94 1a 00 01 00 	mov    r10b,BYTE PTR [r10+rbx*1+0x100]
    4133:	00 
    4134:	4d 8d 14 3f          	lea    r10,[r15+rdi*1]
    4138:	47 8a 94 02 00 01 00 	mov    r10b,BYTE PTR [r10+r8*1+0x100]
    413f:	00 
    4140:	4d 8d 14 37          	lea    r10,[r15+rsi*1]
    4144:	4d 01 da             	add    r10,r11
    4147:	47 8a 94 0a 00 01 00 	mov    r10b,BYTE PTR [r10+r9*1+0x100]
    414e:	00 
    414f:	4d 8d 14 3e          	lea    r10,[r14+rdi*1]
    4153:	4d 01 da             	add    r10,r11
    4156:	47 8a 94 0a 00 01 00 	mov    r10b,BYTE PTR [r10+r9*1+0x100]
    415d:	00 
    415e:	4d 8d 14 36          	lea    r10,[r14+rsi*1]
    4162:	45 8a 94 1a 00 01 00 	mov    r10b,BYTE PTR [r10+rbx*1+0x100]
    4169:	00 
    416a:	4d 8d 14 36          	lea    r10,[r14+rsi*1]
    416e:	47 8a 94 02 00 01 00 	mov    r10b,BYTE PTR [r10+r8*1+0x100]
    4175:	00 
    4176:	90                   	nop
    4177:	90                   	nop
    4178:	90                   	nop
    4179:	90                   	nop
    417a:	90                   	nop
    417b:	90                   	nop
    417c:	90                   	nop
    417d:	90                   	nop
    417e:	90                   	nop
    417f:	90                   	nop
    4180:	90                   	nop
    4181:	90                   	nop
    4182:	90                   	nop
    4183:	90                   	nop
    4184:	90                   	nop
    4185:	90                   	nop
    4186:	90                   	nop
    4187:	90                   	nop
    4188:	90                   	nop
    4189:	90                   	nop
    418a:	90                   	nop
    418b:	90                   	nop
    418c:	90                   	nop
    418d:	90                   	nop
    418e:	90                   	nop
    418f:	90                   	nop
    4190:	90                   	nop
    4191:	90                   	nop
    4192:	90                   	nop
    4193:	90                   	nop
    4194:	90                   	nop
    4195:	90                   	nop
    4196:	90                   	nop
    4197:	90                   	nop
    4198:	90                   	nop
    4199:	90                   	nop
    419a:	90                   	nop
    419b:	90                   	nop
    419c:	90                   	nop
    419d:	90                   	nop
    419e:	90                   	nop
    419f:	90                   	nop
    41a0:	90                   	nop
    41a1:	90                   	nop
    41a2:	90                   	nop
    41a3:	90                   	nop
    41a4:	90                   	nop
    41a5:	90                   	nop
    41a6:	90                   	nop
    41a7:	90                   	nop
    41a8:	90                   	nop
    41a9:	90                   	nop
    41aa:	90                   	nop
    41ab:	90                   	nop
    41ac:	90                   	nop
    41ad:	90                   	nop
    41ae:	90                   	nop
    41af:	90                   	nop
    41b0:	90                   	nop
    41b1:	90                   	nop
    41b2:	90                   	nop
    41b3:	90                   	nop
    41b4:	90                   	nop
    41b5:	90                   	nop
    41b6:	90                   	nop
    41b7:	90                   	nop
    41b8:	90                   	nop
    41b9:	90                   	nop
    41ba:	90                   	nop
    41bb:	90                   	nop
    41bc:	90                   	nop
    41bd:	90                   	nop
    41be:	90                   	nop
    41bf:	90                   	nop
    41c0:	90                   	nop
    41c1:	90                   	nop
    41c2:	90                   	nop
    41c3:	90                   	nop
    41c4:	90                   	nop
    41c5:	90                   	nop
    41c6:	90                   	nop
    41c7:	90                   	nop
    41c8:	90                   	nop
    41c9:	90                   	nop
    41ca:	90                   	nop
    41cb:	90                   	nop
    41cc:	90                   	nop
    41cd:	90                   	nop
    41ce:	90                   	nop
    41cf:	90                   	nop
    41d0:	90                   	nop
    41d1:	90                   	nop
    41d2:	90                   	nop
    41d3:	90                   	nop
    41d4:	90                   	nop
    41d5:	90                   	nop
    41d6:	90                   	nop
    41d7:	90                   	nop
    41d8:	90                   	nop
    41d9:	90                   	nop
    41da:	90                   	nop
    41db:	90                   	nop
    41dc:	90                   	nop
    41dd:	90                   	nop
    41de:	90                   	nop
    41df:	90                   	nop
    41e0:	90                   	nop
    41e1:	90                   	nop
    41e2:	90                   	nop
    41e3:	90                   	nop
    41e4:	90                   	nop
    41e5:	90                   	nop
    41e6:	90                   	nop
    41e7:	90                   	nop
    41e8:	90                   	nop
    41e9:	90                   	nop
    41ea:	90                   	nop
    41eb:	90                   	nop
    41ec:	90                   	nop
    41ed:	90                   	nop
    41ee:	90                   	nop
    41ef:	90                   	nop
    41f0:	90                   	nop
    41f1:	90                   	nop
    41f2:	90                   	nop
    41f3:	90                   	nop
    41f4:	90                   	nop
    41f5:	90                   	nop
    41f6:	90                   	nop
    41f7:	90                   	nop
    41f8:	90                   	nop
    41f9:	90                   	nop
    41fa:	90                   	nop
    41fb:	90                   	nop
    41fc:	90                   	nop
    41fd:	90                   	nop
    41fe:	90                   	nop
    41ff:	90                   	nop
    4200:	90                   	nop
    4201:	90                   	nop
    4202:	90                   	nop
    4203:	90                   	nop
    4204:	90                   	nop
    4205:	90                   	nop
    4206:	90                   	nop
    4207:	90                   	nop
    4208:	90                   	nop
    4209:	90                   	nop
    420a:	90                   	nop
    420b:	90                   	nop
    420c:	90                   	nop
    420d:	90                   	nop
    420e:	90                   	nop
    420f:	90                   	nop
    4210:	90                   	nop
    4211:	90                   	nop
    4212:	90                   	nop
    4213:	90                   	nop
    4214:	90                   	nop
    4215:	90                   	nop
    4216:	90                   	nop
    4217:	90                   	nop
    4218:	90                   	nop
    4219:	90                   	nop
    421a:	90                   	nop
    421b:	90                   	nop
    421c:	90                   	nop
    421d:	90                   	nop
    421e:	90                   	nop
    421f:	90                   	nop
    4220:	90                   	nop
    4221:	90                   	nop
    4222:	90                   	nop
    4223:	90                   	nop
    4224:	90                   	nop
    4225:	90                   	nop
    4226:	90                   	nop
    4227:	90                   	nop
    4228:	90                   	nop
    4229:	90                   	nop
    422a:	90                   	nop
    422b:	90                   	nop
    422c:	90                   	nop
    422d:	90                   	nop
    422e:	90                   	nop
    422f:	90                   	nop
    4230:	90                   	nop
    4231:	90                   	nop
    4232:	90                   	nop
    4233:	90                   	nop
    4234:	90                   	nop
    4235:	90                   	nop
    4236:	90                   	nop
    4237:	90                   	nop
    4238:	90                   	nop
    4239:	90                   	nop
    423a:	90                   	nop
    423b:	90                   	nop
    423c:	90                   	nop
    423d:	90                   	nop
    423e:	90                   	nop
    423f:	90                   	nop
    4240:	90                   	nop
    4241:	90                   	nop
    4242:	90                   	nop
    4243:	90                   	nop
    4244:	90                   	nop
    4245:	90                   	nop
    4246:	90                   	nop
    4247:	90                   	nop
    4248:	90                   	nop
    4249:	90                   	nop
    424a:	90                   	nop
    424b:	90                   	nop
    424c:	90                   	nop
    424d:	90                   	nop
    424e:	90                   	nop
    424f:	90                   	nop
    4250:	90                   	nop
    4251:	90                   	nop
    4252:	90                   	nop
    4253:	90                   	nop
    4254:	90                   	nop
    4255:	90                   	nop
    4256:	90                   	nop
    4257:	90                   	nop
    4258:	90                   	nop
    4259:	90                   	nop
    425a:	90                   	nop
    425b:	90                   	nop
    425c:	90                   	nop
    425d:	90                   	nop
    425e:	90                   	nop
    425f:	90                   	nop
    4260:	90                   	nop
    4261:	90                   	nop
    4262:	90                   	nop
    4263:	90                   	nop
    4264:	90                   	nop
    4265:	90                   	nop
    4266:	90                   	nop
    4267:	90                   	nop
    4268:	90                   	nop
    4269:	90                   	nop
    426a:	90                   	nop
    426b:	90                   	nop
    426c:	90                   	nop
    426d:	90                   	nop
    426e:	90                   	nop
    426f:	90                   	nop
    4270:	90                   	nop
    4271:	90                   	nop
    4272:	90                   	nop
    4273:	90                   	nop
    4274:	90                   	nop
    4275:	90                   	nop
    4276:	90                   	nop
    4277:	90                   	nop
    4278:	90                   	nop
    4279:	90                   	nop
    427a:	90                   	nop
    427b:	90                   	nop
    427c:	90                   	nop
    427d:	90                   	nop
    427e:	90                   	nop
    427f:	90                   	nop
    4280:	90                   	nop
    4281:	90                   	nop
    4282:	90                   	nop
    4283:	90                   	nop
    4284:	90                   	nop
    4285:	90                   	nop
    4286:	90                   	nop
    4287:	90                   	nop
    4288:	90                   	nop
    4289:	90                   	nop
    428a:	90                   	nop
    428b:	90                   	nop
    428c:	90                   	nop
    428d:	90                   	nop
    428e:	90                   	nop
    428f:	90                   	nop
    4290:	90                   	nop
    4291:	90                   	nop
    4292:	90                   	nop
    4293:	90                   	nop
    4294:	90                   	nop
    4295:	90                   	nop
    4296:	90                   	nop
    4297:	90                   	nop
    4298:	90                   	nop
    4299:	90                   	nop
    429a:	90                   	nop
    429b:	90                   	nop
    429c:	90                   	nop
    429d:	90                   	nop
    429e:	90                   	nop
    429f:	90                   	nop
    42a0:	90                   	nop
    42a1:	90                   	nop
    42a2:	90                   	nop
    42a3:	90                   	nop
    42a4:	90                   	nop
    42a5:	90                   	nop
    42a6:	90                   	nop
    42a7:	90                   	nop
    42a8:	90                   	nop
    42a9:	90                   	nop
    42aa:	90                   	nop
    42ab:	90                   	nop
    42ac:	90                   	nop
    42ad:	90                   	nop
    42ae:	90                   	nop
    42af:	90                   	nop
    42b0:	90                   	nop
    42b1:	90                   	nop
    42b2:	90                   	nop
    42b3:	90                   	nop
    42b4:	90                   	nop
    42b5:	90                   	nop
    42b6:	90                   	nop
    42b7:	90                   	nop
    42b8:	90                   	nop
    42b9:	90                   	nop
    42ba:	90                   	nop
    42bb:	90                   	nop
    42bc:	90                   	nop
    42bd:	90                   	nop
    42be:	90                   	nop
    42bf:	90                   	nop
    42c0:	90                   	nop
    42c1:	90                   	nop
    42c2:	90                   	nop
    42c3:	90                   	nop
    42c4:	90                   	nop
    42c5:	90                   	nop
    42c6:	90                   	nop
    42c7:	90                   	nop
    42c8:	90                   	nop
    42c9:	90                   	nop
    42ca:	90                   	nop
    42cb:	90                   	nop
    42cc:	90                   	nop
    42cd:	90                   	nop
    42ce:	90                   	nop
    42cf:	90                   	nop
    42d0:	90                   	nop
    42d1:	90                   	nop
    42d2:	90                   	nop
    42d3:	90                   	nop
    42d4:	90                   	nop
    42d5:	90                   	nop
    42d6:	90                   	nop
    42d7:	90                   	nop
    42d8:	90                   	nop
    42d9:	90                   	nop
    42da:	90                   	nop
    42db:	90                   	nop
    42dc:	90                   	nop
    42dd:	90                   	nop
    42de:	90                   	nop
    42df:	90                   	nop
    42e0:	90                   	nop
    42e1:	90                   	nop
    42e2:	90                   	nop
    42e3:	90                   	nop
    42e4:	90                   	nop
    42e5:	90                   	nop
    42e6:	90                   	nop
    42e7:	90                   	nop
    42e8:	90                   	nop
    42e9:	90                   	nop
    42ea:	90                   	nop
    42eb:	90                   	nop
    42ec:	90                   	nop
    42ed:	90                   	nop
    42ee:	90                   	nop
    42ef:	90                   	nop
    42f0:	90                   	nop
    42f1:	90                   	nop
    42f2:	90                   	nop
    42f3:	90                   	nop
    42f4:	90                   	nop
    42f5:	90                   	nop
    42f6:	90                   	nop
    42f7:	90                   	nop
    42f8:	90                   	nop
    42f9:	90                   	nop
    42fa:	90                   	nop
    42fb:	90                   	nop
    42fc:	90                   	nop
    42fd:	90                   	nop
    42fe:	90                   	nop
    42ff:	90                   	nop
    4300:	90                   	nop
    4301:	90                   	nop
    4302:	90                   	nop
    4303:	90                   	nop
    4304:	90                   	nop
    4305:	90                   	nop
    4306:	90                   	nop
    4307:	90                   	nop
    4308:	90                   	nop
    4309:	90                   	nop
    430a:	90                   	nop
    430b:	90                   	nop
    430c:	90                   	nop
    430d:	90                   	nop
    430e:	90                   	nop
    430f:	90                   	nop
    4310:	90                   	nop
    4311:	90                   	nop
    4312:	90                   	nop
    4313:	90                   	nop
    4314:	90                   	nop
    4315:	90                   	nop
    4316:	90                   	nop
    4317:	90                   	nop
    4318:	90                   	nop
    4319:	90                   	nop
    431a:	90                   	nop
    431b:	90                   	nop
    431c:	90                   	nop
    431d:	90                   	nop
    431e:	90                   	nop
    431f:	90                   	nop
    4320:	90                   	nop
    4321:	90                   	nop
    4322:	90                   	nop
    4323:	90                   	nop
    4324:	90                   	nop
    4325:	90                   	nop
    4326:	90                   	nop
    4327:	90                   	nop
    4328:	90                   	nop
    4329:	90                   	nop
    432a:	90                   	nop
    432b:	90                   	nop
    432c:	90                   	nop
    432d:	90                   	nop
    432e:	90                   	nop
    432f:	90                   	nop
    4330:	90                   	nop
    4331:	90                   	nop
    4332:	90                   	nop
    4333:	90                   	nop
    4334:	90                   	nop
    4335:	90                   	nop
    4336:	90                   	nop
    4337:	90                   	nop
    4338:	90                   	nop
    4339:	90                   	nop
    433a:	90                   	nop
    433b:	90                   	nop
    433c:	90                   	nop
    433d:	90                   	nop
    433e:	90                   	nop
    433f:	90                   	nop
    4340:	90                   	nop
    4341:	90                   	nop
    4342:	90                   	nop
    4343:	90                   	nop
    4344:	90                   	nop
    4345:	90                   	nop
    4346:	90                   	nop
    4347:	90                   	nop
    4348:	90                   	nop
    4349:	90                   	nop
    434a:	90                   	nop
    434b:	90                   	nop
    434c:	90                   	nop
    434d:	90                   	nop
    434e:	90                   	nop
    434f:	90                   	nop
    4350:	90                   	nop
    4351:	90                   	nop
    4352:	90                   	nop
    4353:	90                   	nop
    4354:	90                   	nop
    4355:	90                   	nop
    4356:	90                   	nop
    4357:	90                   	nop
    4358:	90                   	nop
    4359:	90                   	nop
    435a:	90                   	nop
    435b:	90                   	nop
    435c:	90                   	nop
    435d:	90                   	nop
    435e:	90                   	nop
    435f:	90                   	nop
    4360:	90                   	nop
    4361:	90                   	nop
    4362:	90                   	nop
    4363:	90                   	nop
    4364:	90                   	nop
    4365:	90                   	nop
    4366:	90                   	nop
    4367:	90                   	nop
    4368:	90                   	nop
    4369:	90                   	nop
    436a:	90                   	nop
    436b:	90                   	nop
    436c:	90                   	nop
    436d:	90                   	nop
    436e:	90                   	nop
    436f:	90                   	nop
    4370:	90                   	nop
    4371:	90                   	nop
    4372:	90                   	nop
    4373:	90                   	nop
    4374:	90                   	nop
    4375:	90                   	nop
    4376:	5b                   	pop    rbx
    4377:	41 5e                	pop    r14
    4379:	41 5f                	pop    r15
    437b:	c3                   	ret    
    437c:	0f 1f 40 00          	nop    DWORD PTR [rax+0x0]

0000000000004380 <__DualGate__1_3_42>:
    4380:	41 57                	push   r15
    4382:	41 56                	push   r14
    4384:	53                   	push   rbx
    4385:	4c 89 cb             	mov    rbx,r9
    4388:	4d 89 c3             	mov    r11,r8
    438b:	49 89 c9             	mov    r9,rcx
    438e:	49 89 d0             	mov    r8,rdx
    4391:	4c 8b 7c 24 28       	mov    r15,QWORD PTR [rsp+0x28]
    4396:	4c 8b 74 24 20       	mov    r14,QWORD PTR [rsp+0x20]
    439b:	e8 00 ce ff ff       	call   11a0 <mod_ret_addr>
    43a0:	48 0f b6 3f          	movzx  rdi,BYTE PTR [rdi]
    43a4:	48 0f b6 36          	movzx  rsi,BYTE PTR [rsi]
    43a8:	45 8a 94 31 00 01 00 	mov    r10b,BYTE PTR [r9+rsi*1+0x100]
    43af:	00 
    43b0:	45 8a 94 38 00 01 00 	mov    r10b,BYTE PTR [r8+rdi*1+0x100]
    43b7:	00 
    43b8:	44 8a 94 33 00 01 00 	mov    r10b,BYTE PTR [rbx+rsi*1+0x100]
    43bf:	00 
    43c0:	45 8a 94 3b 00 01 00 	mov    r10b,BYTE PTR [r11+rdi*1+0x100]
    43c7:	00 
    43c8:	45 8a 94 37 00 01 00 	mov    r10b,BYTE PTR [r15+rsi*1+0x100]
    43cf:	00 
    43d0:	45 8a 94 3e 00 01 00 	mov    r10b,BYTE PTR [r14+rdi*1+0x100]
    43d7:	00 
    43d8:	90                   	nop
    43d9:	90                   	nop
    43da:	90                   	nop
    43db:	90                   	nop
    43dc:	90                   	nop
    43dd:	90                   	nop
    43de:	90                   	nop
    43df:	90                   	nop
    43e0:	90                   	nop
    43e1:	90                   	nop
    43e2:	90                   	nop
    43e3:	90                   	nop
    43e4:	90                   	nop
    43e5:	90                   	nop
    43e6:	90                   	nop
    43e7:	90                   	nop
    43e8:	90                   	nop
    43e9:	90                   	nop
    43ea:	90                   	nop
    43eb:	90                   	nop
    43ec:	90                   	nop
    43ed:	90                   	nop
    43ee:	90                   	nop
    43ef:	90                   	nop
    43f0:	90                   	nop
    43f1:	90                   	nop
    43f2:	90                   	nop
    43f3:	90                   	nop
    43f4:	90                   	nop
    43f5:	90                   	nop
    43f6:	90                   	nop
    43f7:	90                   	nop
    43f8:	90                   	nop
    43f9:	90                   	nop
    43fa:	90                   	nop
    43fb:	90                   	nop
    43fc:	90                   	nop
    43fd:	90                   	nop
    43fe:	90                   	nop
    43ff:	90                   	nop
    4400:	90                   	nop
    4401:	90                   	nop
    4402:	90                   	nop
    4403:	90                   	nop
    4404:	90                   	nop
    4405:	90                   	nop
    4406:	90                   	nop
    4407:	90                   	nop
    4408:	90                   	nop
    4409:	90                   	nop
    440a:	90                   	nop
    440b:	90                   	nop
    440c:	90                   	nop
    440d:	90                   	nop
    440e:	90                   	nop
    440f:	90                   	nop
    4410:	90                   	nop
    4411:	90                   	nop
    4412:	90                   	nop
    4413:	90                   	nop
    4414:	90                   	nop
    4415:	90                   	nop
    4416:	90                   	nop
    4417:	90                   	nop
    4418:	90                   	nop
    4419:	90                   	nop
    441a:	90                   	nop
    441b:	90                   	nop
    441c:	90                   	nop
    441d:	90                   	nop
    441e:	90                   	nop
    441f:	90                   	nop
    4420:	90                   	nop
    4421:	90                   	nop
    4422:	90                   	nop
    4423:	90                   	nop
    4424:	90                   	nop
    4425:	90                   	nop
    4426:	90                   	nop
    4427:	90                   	nop
    4428:	90                   	nop
    4429:	90                   	nop
    442a:	90                   	nop
    442b:	90                   	nop
    442c:	90                   	nop
    442d:	90                   	nop
    442e:	90                   	nop
    442f:	90                   	nop
    4430:	90                   	nop
    4431:	90                   	nop
    4432:	90                   	nop
    4433:	90                   	nop
    4434:	90                   	nop
    4435:	90                   	nop
    4436:	90                   	nop
    4437:	90                   	nop
    4438:	90                   	nop
    4439:	90                   	nop
    443a:	90                   	nop
    443b:	90                   	nop
    443c:	90                   	nop
    443d:	90                   	nop
    443e:	90                   	nop
    443f:	90                   	nop
    4440:	90                   	nop
    4441:	90                   	nop
    4442:	90                   	nop
    4443:	90                   	nop
    4444:	90                   	nop
    4445:	90                   	nop
    4446:	90                   	nop
    4447:	90                   	nop
    4448:	90                   	nop
    4449:	90                   	nop
    444a:	90                   	nop
    444b:	90                   	nop
    444c:	90                   	nop
    444d:	90                   	nop
    444e:	90                   	nop
    444f:	90                   	nop
    4450:	90                   	nop
    4451:	90                   	nop
    4452:	90                   	nop
    4453:	90                   	nop
    4454:	90                   	nop
    4455:	90                   	nop
    4456:	90                   	nop
    4457:	90                   	nop
    4458:	90                   	nop
    4459:	90                   	nop
    445a:	90                   	nop
    445b:	90                   	nop
    445c:	90                   	nop
    445d:	90                   	nop
    445e:	90                   	nop
    445f:	90                   	nop
    4460:	90                   	nop
    4461:	90                   	nop
    4462:	90                   	nop
    4463:	90                   	nop
    4464:	90                   	nop
    4465:	90                   	nop
    4466:	90                   	nop
    4467:	90                   	nop
    4468:	90                   	nop
    4469:	90                   	nop
    446a:	90                   	nop
    446b:	90                   	nop
    446c:	90                   	nop
    446d:	90                   	nop
    446e:	90                   	nop
    446f:	90                   	nop
    4470:	90                   	nop
    4471:	90                   	nop
    4472:	90                   	nop
    4473:	90                   	nop
    4474:	90                   	nop
    4475:	90                   	nop
    4476:	90                   	nop
    4477:	90                   	nop
    4478:	90                   	nop
    4479:	90                   	nop
    447a:	90                   	nop
    447b:	90                   	nop
    447c:	90                   	nop
    447d:	90                   	nop
    447e:	90                   	nop
    447f:	90                   	nop
    4480:	90                   	nop
    4481:	90                   	nop
    4482:	90                   	nop
    4483:	90                   	nop
    4484:	90                   	nop
    4485:	90                   	nop
    4486:	90                   	nop
    4487:	90                   	nop
    4488:	90                   	nop
    4489:	90                   	nop
    448a:	90                   	nop
    448b:	90                   	nop
    448c:	90                   	nop
    448d:	90                   	nop
    448e:	90                   	nop
    448f:	90                   	nop
    4490:	90                   	nop
    4491:	90                   	nop
    4492:	90                   	nop
    4493:	90                   	nop
    4494:	90                   	nop
    4495:	90                   	nop
    4496:	90                   	nop
    4497:	90                   	nop
    4498:	90                   	nop
    4499:	90                   	nop
    449a:	90                   	nop
    449b:	90                   	nop
    449c:	90                   	nop
    449d:	90                   	nop
    449e:	90                   	nop
    449f:	90                   	nop
    44a0:	90                   	nop
    44a1:	90                   	nop
    44a2:	90                   	nop
    44a3:	90                   	nop
    44a4:	90                   	nop
    44a5:	90                   	nop
    44a6:	90                   	nop
    44a7:	90                   	nop
    44a8:	90                   	nop
    44a9:	90                   	nop
    44aa:	90                   	nop
    44ab:	90                   	nop
    44ac:	90                   	nop
    44ad:	90                   	nop
    44ae:	90                   	nop
    44af:	90                   	nop
    44b0:	90                   	nop
    44b1:	90                   	nop
    44b2:	90                   	nop
    44b3:	90                   	nop
    44b4:	90                   	nop
    44b5:	90                   	nop
    44b6:	90                   	nop
    44b7:	90                   	nop
    44b8:	90                   	nop
    44b9:	90                   	nop
    44ba:	90                   	nop
    44bb:	90                   	nop
    44bc:	90                   	nop
    44bd:	90                   	nop
    44be:	90                   	nop
    44bf:	90                   	nop
    44c0:	90                   	nop
    44c1:	90                   	nop
    44c2:	90                   	nop
    44c3:	90                   	nop
    44c4:	90                   	nop
    44c5:	90                   	nop
    44c6:	90                   	nop
    44c7:	90                   	nop
    44c8:	90                   	nop
    44c9:	90                   	nop
    44ca:	90                   	nop
    44cb:	90                   	nop
    44cc:	90                   	nop
    44cd:	90                   	nop
    44ce:	90                   	nop
    44cf:	90                   	nop
    44d0:	90                   	nop
    44d1:	90                   	nop
    44d2:	90                   	nop
    44d3:	90                   	nop
    44d4:	90                   	nop
    44d5:	90                   	nop
    44d6:	90                   	nop
    44d7:	90                   	nop
    44d8:	90                   	nop
    44d9:	90                   	nop
    44da:	90                   	nop
    44db:	90                   	nop
    44dc:	90                   	nop
    44dd:	90                   	nop
    44de:	90                   	nop
    44df:	90                   	nop
    44e0:	90                   	nop
    44e1:	90                   	nop
    44e2:	90                   	nop
    44e3:	90                   	nop
    44e4:	90                   	nop
    44e5:	90                   	nop
    44e6:	90                   	nop
    44e7:	90                   	nop
    44e8:	90                   	nop
    44e9:	90                   	nop
    44ea:	90                   	nop
    44eb:	90                   	nop
    44ec:	90                   	nop
    44ed:	90                   	nop
    44ee:	90                   	nop
    44ef:	90                   	nop
    44f0:	90                   	nop
    44f1:	90                   	nop
    44f2:	90                   	nop
    44f3:	90                   	nop
    44f4:	90                   	nop
    44f5:	90                   	nop
    44f6:	90                   	nop
    44f7:	90                   	nop
    44f8:	90                   	nop
    44f9:	90                   	nop
    44fa:	90                   	nop
    44fb:	90                   	nop
    44fc:	90                   	nop
    44fd:	90                   	nop
    44fe:	90                   	nop
    44ff:	90                   	nop
    4500:	90                   	nop
    4501:	90                   	nop
    4502:	90                   	nop
    4503:	90                   	nop
    4504:	90                   	nop
    4505:	90                   	nop
    4506:	90                   	nop
    4507:	90                   	nop
    4508:	90                   	nop
    4509:	90                   	nop
    450a:	90                   	nop
    450b:	90                   	nop
    450c:	90                   	nop
    450d:	90                   	nop
    450e:	90                   	nop
    450f:	90                   	nop
    4510:	90                   	nop
    4511:	90                   	nop
    4512:	90                   	nop
    4513:	90                   	nop
    4514:	90                   	nop
    4515:	90                   	nop
    4516:	90                   	nop
    4517:	90                   	nop
    4518:	90                   	nop
    4519:	90                   	nop
    451a:	90                   	nop
    451b:	90                   	nop
    451c:	90                   	nop
    451d:	90                   	nop
    451e:	90                   	nop
    451f:	90                   	nop
    4520:	90                   	nop
    4521:	90                   	nop
    4522:	90                   	nop
    4523:	90                   	nop
    4524:	90                   	nop
    4525:	90                   	nop
    4526:	90                   	nop
    4527:	90                   	nop
    4528:	90                   	nop
    4529:	90                   	nop
    452a:	90                   	nop
    452b:	90                   	nop
    452c:	90                   	nop
    452d:	90                   	nop
    452e:	90                   	nop
    452f:	90                   	nop
    4530:	90                   	nop
    4531:	90                   	nop
    4532:	90                   	nop
    4533:	90                   	nop
    4534:	90                   	nop
    4535:	90                   	nop
    4536:	90                   	nop
    4537:	90                   	nop
    4538:	90                   	nop
    4539:	90                   	nop
    453a:	90                   	nop
    453b:	90                   	nop
    453c:	90                   	nop
    453d:	90                   	nop
    453e:	90                   	nop
    453f:	90                   	nop
    4540:	90                   	nop
    4541:	90                   	nop
    4542:	90                   	nop
    4543:	90                   	nop
    4544:	90                   	nop
    4545:	90                   	nop
    4546:	90                   	nop
    4547:	90                   	nop
    4548:	90                   	nop
    4549:	90                   	nop
    454a:	90                   	nop
    454b:	90                   	nop
    454c:	90                   	nop
    454d:	90                   	nop
    454e:	90                   	nop
    454f:	90                   	nop
    4550:	90                   	nop
    4551:	90                   	nop
    4552:	90                   	nop
    4553:	90                   	nop
    4554:	90                   	nop
    4555:	90                   	nop
    4556:	90                   	nop
    4557:	90                   	nop
    4558:	90                   	nop
    4559:	90                   	nop
    455a:	90                   	nop
    455b:	90                   	nop
    455c:	90                   	nop
    455d:	90                   	nop
    455e:	90                   	nop
    455f:	90                   	nop
    4560:	90                   	nop
    4561:	90                   	nop
    4562:	90                   	nop
    4563:	90                   	nop
    4564:	90                   	nop
    4565:	90                   	nop
    4566:	90                   	nop
    4567:	90                   	nop
    4568:	90                   	nop
    4569:	90                   	nop
    456a:	90                   	nop
    456b:	90                   	nop
    456c:	90                   	nop
    456d:	90                   	nop
    456e:	90                   	nop
    456f:	90                   	nop
    4570:	90                   	nop
    4571:	90                   	nop
    4572:	90                   	nop
    4573:	90                   	nop
    4574:	90                   	nop
    4575:	90                   	nop
    4576:	90                   	nop
    4577:	90                   	nop
    4578:	90                   	nop
    4579:	90                   	nop
    457a:	90                   	nop
    457b:	90                   	nop
    457c:	90                   	nop
    457d:	90                   	nop
    457e:	90                   	nop
    457f:	90                   	nop
    4580:	90                   	nop
    4581:	90                   	nop
    4582:	90                   	nop
    4583:	90                   	nop
    4584:	90                   	nop
    4585:	90                   	nop
    4586:	90                   	nop
    4587:	90                   	nop
    4588:	90                   	nop
    4589:	90                   	nop
    458a:	90                   	nop
    458b:	90                   	nop
    458c:	90                   	nop
    458d:	90                   	nop
    458e:	90                   	nop
    458f:	90                   	nop
    4590:	90                   	nop
    4591:	90                   	nop
    4592:	90                   	nop
    4593:	90                   	nop
    4594:	90                   	nop
    4595:	90                   	nop
    4596:	90                   	nop
    4597:	90                   	nop
    4598:	90                   	nop
    4599:	90                   	nop
    459a:	90                   	nop
    459b:	90                   	nop
    459c:	90                   	nop
    459d:	90                   	nop
    459e:	90                   	nop
    459f:	90                   	nop
    45a0:	90                   	nop
    45a1:	90                   	nop
    45a2:	90                   	nop
    45a3:	90                   	nop
    45a4:	90                   	nop
    45a5:	90                   	nop
    45a6:	90                   	nop
    45a7:	90                   	nop
    45a8:	90                   	nop
    45a9:	90                   	nop
    45aa:	90                   	nop
    45ab:	90                   	nop
    45ac:	90                   	nop
    45ad:	90                   	nop
    45ae:	90                   	nop
    45af:	90                   	nop
    45b0:	90                   	nop
    45b1:	90                   	nop
    45b2:	90                   	nop
    45b3:	90                   	nop
    45b4:	90                   	nop
    45b5:	90                   	nop
    45b6:	90                   	nop
    45b7:	90                   	nop
    45b8:	90                   	nop
    45b9:	90                   	nop
    45ba:	90                   	nop
    45bb:	90                   	nop
    45bc:	90                   	nop
    45bd:	90                   	nop
    45be:	90                   	nop
    45bf:	90                   	nop
    45c0:	90                   	nop
    45c1:	90                   	nop
    45c2:	90                   	nop
    45c3:	90                   	nop
    45c4:	90                   	nop
    45c5:	90                   	nop
    45c6:	90                   	nop
    45c7:	90                   	nop
    45c8:	90                   	nop
    45c9:	90                   	nop
    45ca:	90                   	nop
    45cb:	90                   	nop
    45cc:	90                   	nop
    45cd:	90                   	nop
    45ce:	90                   	nop
    45cf:	90                   	nop
    45d0:	90                   	nop
    45d1:	90                   	nop
    45d2:	90                   	nop
    45d3:	90                   	nop
    45d4:	90                   	nop
    45d5:	90                   	nop
    45d6:	90                   	nop
    45d7:	90                   	nop
    45d8:	5b                   	pop    rbx
    45d9:	41 5e                	pop    r14
    45db:	41 5f                	pop    r15
    45dd:	c3                   	ret    
    45de:	66 90                	xchg   ax,ax

00000000000045e0 <__DualGate__1_2_10>:
    45e0:	53                   	push   rbx
    45e1:	4c 89 cb             	mov    rbx,r9
    45e4:	4d 89 c3             	mov    r11,r8
    45e7:	49 89 c9             	mov    r9,rcx
    45ea:	49 89 d0             	mov    r8,rdx
    45ed:	e8 ae cb ff ff       	call   11a0 <mod_ret_addr>
    45f2:	48 0f b6 3f          	movzx  rdi,BYTE PTR [rdi]
    45f6:	48 0f b6 36          	movzx  rsi,BYTE PTR [rsi]
    45fa:	45 8a 94 31 00 01 00 	mov    r10b,BYTE PTR [r9+rsi*1+0x100]
    4601:	00 
    4602:	45 8a 94 38 00 01 00 	mov    r10b,BYTE PTR [r8+rdi*1+0x100]
    4609:	00 
    460a:	44 8a 94 33 00 01 00 	mov    r10b,BYTE PTR [rbx+rsi*1+0x100]
    4611:	00 
    4612:	45 8a 94 3b 00 01 00 	mov    r10b,BYTE PTR [r11+rdi*1+0x100]
    4619:	00 
    461a:	90                   	nop
    461b:	90                   	nop
    461c:	90                   	nop
    461d:	90                   	nop
    461e:	90                   	nop
    461f:	90                   	nop
    4620:	90                   	nop
    4621:	90                   	nop
    4622:	90                   	nop
    4623:	90                   	nop
    4624:	90                   	nop
    4625:	90                   	nop
    4626:	90                   	nop
    4627:	90                   	nop
    4628:	90                   	nop
    4629:	90                   	nop
    462a:	90                   	nop
    462b:	90                   	nop
    462c:	90                   	nop
    462d:	90                   	nop
    462e:	90                   	nop
    462f:	90                   	nop
    4630:	90                   	nop
    4631:	90                   	nop
    4632:	90                   	nop
    4633:	90                   	nop
    4634:	90                   	nop
    4635:	90                   	nop
    4636:	90                   	nop
    4637:	90                   	nop
    4638:	90                   	nop
    4639:	90                   	nop
    463a:	90                   	nop
    463b:	90                   	nop
    463c:	90                   	nop
    463d:	90                   	nop
    463e:	90                   	nop
    463f:	90                   	nop
    4640:	90                   	nop
    4641:	90                   	nop
    4642:	90                   	nop
    4643:	90                   	nop
    4644:	90                   	nop
    4645:	90                   	nop
    4646:	90                   	nop
    4647:	90                   	nop
    4648:	90                   	nop
    4649:	90                   	nop
    464a:	90                   	nop
    464b:	90                   	nop
    464c:	90                   	nop
    464d:	90                   	nop
    464e:	90                   	nop
    464f:	90                   	nop
    4650:	90                   	nop
    4651:	90                   	nop
    4652:	90                   	nop
    4653:	90                   	nop
    4654:	90                   	nop
    4655:	90                   	nop
    4656:	90                   	nop
    4657:	90                   	nop
    4658:	90                   	nop
    4659:	90                   	nop
    465a:	90                   	nop
    465b:	90                   	nop
    465c:	90                   	nop
    465d:	90                   	nop
    465e:	90                   	nop
    465f:	90                   	nop
    4660:	90                   	nop
    4661:	90                   	nop
    4662:	90                   	nop
    4663:	90                   	nop
    4664:	90                   	nop
    4665:	90                   	nop
    4666:	90                   	nop
    4667:	90                   	nop
    4668:	90                   	nop
    4669:	90                   	nop
    466a:	90                   	nop
    466b:	90                   	nop
    466c:	90                   	nop
    466d:	90                   	nop
    466e:	90                   	nop
    466f:	90                   	nop
    4670:	90                   	nop
    4671:	90                   	nop
    4672:	90                   	nop
    4673:	90                   	nop
    4674:	90                   	nop
    4675:	90                   	nop
    4676:	90                   	nop
    4677:	90                   	nop
    4678:	90                   	nop
    4679:	90                   	nop
    467a:	90                   	nop
    467b:	90                   	nop
    467c:	90                   	nop
    467d:	90                   	nop
    467e:	90                   	nop
    467f:	90                   	nop
    4680:	90                   	nop
    4681:	90                   	nop
    4682:	90                   	nop
    4683:	90                   	nop
    4684:	90                   	nop
    4685:	90                   	nop
    4686:	90                   	nop
    4687:	90                   	nop
    4688:	90                   	nop
    4689:	90                   	nop
    468a:	90                   	nop
    468b:	90                   	nop
    468c:	90                   	nop
    468d:	90                   	nop
    468e:	90                   	nop
    468f:	90                   	nop
    4690:	90                   	nop
    4691:	90                   	nop
    4692:	90                   	nop
    4693:	90                   	nop
    4694:	90                   	nop
    4695:	90                   	nop
    4696:	90                   	nop
    4697:	90                   	nop
    4698:	90                   	nop
    4699:	90                   	nop
    469a:	90                   	nop
    469b:	90                   	nop
    469c:	90                   	nop
    469d:	90                   	nop
    469e:	90                   	nop
    469f:	90                   	nop
    46a0:	90                   	nop
    46a1:	90                   	nop
    46a2:	90                   	nop
    46a3:	90                   	nop
    46a4:	90                   	nop
    46a5:	90                   	nop
    46a6:	90                   	nop
    46a7:	90                   	nop
    46a8:	90                   	nop
    46a9:	90                   	nop
    46aa:	90                   	nop
    46ab:	90                   	nop
    46ac:	90                   	nop
    46ad:	90                   	nop
    46ae:	90                   	nop
    46af:	90                   	nop
    46b0:	90                   	nop
    46b1:	90                   	nop
    46b2:	90                   	nop
    46b3:	90                   	nop
    46b4:	90                   	nop
    46b5:	90                   	nop
    46b6:	90                   	nop
    46b7:	90                   	nop
    46b8:	90                   	nop
    46b9:	90                   	nop
    46ba:	90                   	nop
    46bb:	90                   	nop
    46bc:	90                   	nop
    46bd:	90                   	nop
    46be:	90                   	nop
    46bf:	90                   	nop
    46c0:	90                   	nop
    46c1:	90                   	nop
    46c2:	90                   	nop
    46c3:	90                   	nop
    46c4:	90                   	nop
    46c5:	90                   	nop
    46c6:	90                   	nop
    46c7:	90                   	nop
    46c8:	90                   	nop
    46c9:	90                   	nop
    46ca:	90                   	nop
    46cb:	90                   	nop
    46cc:	90                   	nop
    46cd:	90                   	nop
    46ce:	90                   	nop
    46cf:	90                   	nop
    46d0:	90                   	nop
    46d1:	90                   	nop
    46d2:	90                   	nop
    46d3:	90                   	nop
    46d4:	90                   	nop
    46d5:	90                   	nop
    46d6:	90                   	nop
    46d7:	90                   	nop
    46d8:	90                   	nop
    46d9:	90                   	nop
    46da:	90                   	nop
    46db:	90                   	nop
    46dc:	90                   	nop
    46dd:	90                   	nop
    46de:	90                   	nop
    46df:	90                   	nop
    46e0:	90                   	nop
    46e1:	90                   	nop
    46e2:	90                   	nop
    46e3:	90                   	nop
    46e4:	90                   	nop
    46e5:	90                   	nop
    46e6:	90                   	nop
    46e7:	90                   	nop
    46e8:	90                   	nop
    46e9:	90                   	nop
    46ea:	90                   	nop
    46eb:	90                   	nop
    46ec:	90                   	nop
    46ed:	90                   	nop
    46ee:	90                   	nop
    46ef:	90                   	nop
    46f0:	90                   	nop
    46f1:	90                   	nop
    46f2:	90                   	nop
    46f3:	90                   	nop
    46f4:	90                   	nop
    46f5:	90                   	nop
    46f6:	90                   	nop
    46f7:	90                   	nop
    46f8:	90                   	nop
    46f9:	90                   	nop
    46fa:	90                   	nop
    46fb:	90                   	nop
    46fc:	90                   	nop
    46fd:	90                   	nop
    46fe:	90                   	nop
    46ff:	90                   	nop
    4700:	90                   	nop
    4701:	90                   	nop
    4702:	90                   	nop
    4703:	90                   	nop
    4704:	90                   	nop
    4705:	90                   	nop
    4706:	90                   	nop
    4707:	90                   	nop
    4708:	90                   	nop
    4709:	90                   	nop
    470a:	90                   	nop
    470b:	90                   	nop
    470c:	90                   	nop
    470d:	90                   	nop
    470e:	90                   	nop
    470f:	90                   	nop
    4710:	90                   	nop
    4711:	90                   	nop
    4712:	90                   	nop
    4713:	90                   	nop
    4714:	90                   	nop
    4715:	90                   	nop
    4716:	90                   	nop
    4717:	90                   	nop
    4718:	90                   	nop
    4719:	90                   	nop
    471a:	90                   	nop
    471b:	90                   	nop
    471c:	90                   	nop
    471d:	90                   	nop
    471e:	90                   	nop
    471f:	90                   	nop
    4720:	90                   	nop
    4721:	90                   	nop
    4722:	90                   	nop
    4723:	90                   	nop
    4724:	90                   	nop
    4725:	90                   	nop
    4726:	90                   	nop
    4727:	90                   	nop
    4728:	90                   	nop
    4729:	90                   	nop
    472a:	90                   	nop
    472b:	90                   	nop
    472c:	90                   	nop
    472d:	90                   	nop
    472e:	90                   	nop
    472f:	90                   	nop
    4730:	90                   	nop
    4731:	90                   	nop
    4732:	90                   	nop
    4733:	90                   	nop
    4734:	90                   	nop
    4735:	90                   	nop
    4736:	90                   	nop
    4737:	90                   	nop
    4738:	90                   	nop
    4739:	90                   	nop
    473a:	90                   	nop
    473b:	90                   	nop
    473c:	90                   	nop
    473d:	90                   	nop
    473e:	90                   	nop
    473f:	90                   	nop
    4740:	90                   	nop
    4741:	90                   	nop
    4742:	90                   	nop
    4743:	90                   	nop
    4744:	90                   	nop
    4745:	90                   	nop
    4746:	90                   	nop
    4747:	90                   	nop
    4748:	90                   	nop
    4749:	90                   	nop
    474a:	90                   	nop
    474b:	90                   	nop
    474c:	90                   	nop
    474d:	90                   	nop
    474e:	90                   	nop
    474f:	90                   	nop
    4750:	90                   	nop
    4751:	90                   	nop
    4752:	90                   	nop
    4753:	90                   	nop
    4754:	90                   	nop
    4755:	90                   	nop
    4756:	90                   	nop
    4757:	90                   	nop
    4758:	90                   	nop
    4759:	90                   	nop
    475a:	90                   	nop
    475b:	90                   	nop
    475c:	90                   	nop
    475d:	90                   	nop
    475e:	90                   	nop
    475f:	90                   	nop
    4760:	90                   	nop
    4761:	90                   	nop
    4762:	90                   	nop
    4763:	90                   	nop
    4764:	90                   	nop
    4765:	90                   	nop
    4766:	90                   	nop
    4767:	90                   	nop
    4768:	90                   	nop
    4769:	90                   	nop
    476a:	90                   	nop
    476b:	90                   	nop
    476c:	90                   	nop
    476d:	90                   	nop
    476e:	90                   	nop
    476f:	90                   	nop
    4770:	90                   	nop
    4771:	90                   	nop
    4772:	90                   	nop
    4773:	90                   	nop
    4774:	90                   	nop
    4775:	90                   	nop
    4776:	90                   	nop
    4777:	90                   	nop
    4778:	90                   	nop
    4779:	90                   	nop
    477a:	90                   	nop
    477b:	90                   	nop
    477c:	90                   	nop
    477d:	90                   	nop
    477e:	90                   	nop
    477f:	90                   	nop
    4780:	90                   	nop
    4781:	90                   	nop
    4782:	90                   	nop
    4783:	90                   	nop
    4784:	90                   	nop
    4785:	90                   	nop
    4786:	90                   	nop
    4787:	90                   	nop
    4788:	90                   	nop
    4789:	90                   	nop
    478a:	90                   	nop
    478b:	90                   	nop
    478c:	90                   	nop
    478d:	90                   	nop
    478e:	90                   	nop
    478f:	90                   	nop
    4790:	90                   	nop
    4791:	90                   	nop
    4792:	90                   	nop
    4793:	90                   	nop
    4794:	90                   	nop
    4795:	90                   	nop
    4796:	90                   	nop
    4797:	90                   	nop
    4798:	90                   	nop
    4799:	90                   	nop
    479a:	90                   	nop
    479b:	90                   	nop
    479c:	90                   	nop
    479d:	90                   	nop
    479e:	90                   	nop
    479f:	90                   	nop
    47a0:	90                   	nop
    47a1:	90                   	nop
    47a2:	90                   	nop
    47a3:	90                   	nop
    47a4:	90                   	nop
    47a5:	90                   	nop
    47a6:	90                   	nop
    47a7:	90                   	nop
    47a8:	90                   	nop
    47a9:	90                   	nop
    47aa:	90                   	nop
    47ab:	90                   	nop
    47ac:	90                   	nop
    47ad:	90                   	nop
    47ae:	90                   	nop
    47af:	90                   	nop
    47b0:	90                   	nop
    47b1:	90                   	nop
    47b2:	90                   	nop
    47b3:	90                   	nop
    47b4:	90                   	nop
    47b5:	90                   	nop
    47b6:	90                   	nop
    47b7:	90                   	nop
    47b8:	90                   	nop
    47b9:	90                   	nop
    47ba:	90                   	nop
    47bb:	90                   	nop
    47bc:	90                   	nop
    47bd:	90                   	nop
    47be:	90                   	nop
    47bf:	90                   	nop
    47c0:	90                   	nop
    47c1:	90                   	nop
    47c2:	90                   	nop
    47c3:	90                   	nop
    47c4:	90                   	nop
    47c5:	90                   	nop
    47c6:	90                   	nop
    47c7:	90                   	nop
    47c8:	90                   	nop
    47c9:	90                   	nop
    47ca:	90                   	nop
    47cb:	90                   	nop
    47cc:	90                   	nop
    47cd:	90                   	nop
    47ce:	90                   	nop
    47cf:	90                   	nop
    47d0:	90                   	nop
    47d1:	90                   	nop
    47d2:	90                   	nop
    47d3:	90                   	nop
    47d4:	90                   	nop
    47d5:	90                   	nop
    47d6:	90                   	nop
    47d7:	90                   	nop
    47d8:	90                   	nop
    47d9:	90                   	nop
    47da:	90                   	nop
    47db:	90                   	nop
    47dc:	90                   	nop
    47dd:	90                   	nop
    47de:	90                   	nop
    47df:	90                   	nop
    47e0:	90                   	nop
    47e1:	90                   	nop
    47e2:	90                   	nop
    47e3:	90                   	nop
    47e4:	90                   	nop
    47e5:	90                   	nop
    47e6:	90                   	nop
    47e7:	90                   	nop
    47e8:	90                   	nop
    47e9:	90                   	nop
    47ea:	90                   	nop
    47eb:	90                   	nop
    47ec:	90                   	nop
    47ed:	90                   	nop
    47ee:	90                   	nop
    47ef:	90                   	nop
    47f0:	90                   	nop
    47f1:	90                   	nop
    47f2:	90                   	nop
    47f3:	90                   	nop
    47f4:	90                   	nop
    47f5:	90                   	nop
    47f6:	90                   	nop
    47f7:	90                   	nop
    47f8:	90                   	nop
    47f9:	90                   	nop
    47fa:	90                   	nop
    47fb:	90                   	nop
    47fc:	90                   	nop
    47fd:	90                   	nop
    47fe:	90                   	nop
    47ff:	90                   	nop
    4800:	90                   	nop
    4801:	90                   	nop
    4802:	90                   	nop
    4803:	90                   	nop
    4804:	90                   	nop
    4805:	90                   	nop
    4806:	90                   	nop
    4807:	90                   	nop
    4808:	90                   	nop
    4809:	90                   	nop
    480a:	90                   	nop
    480b:	90                   	nop
    480c:	90                   	nop
    480d:	90                   	nop
    480e:	90                   	nop
    480f:	90                   	nop
    4810:	90                   	nop
    4811:	90                   	nop
    4812:	90                   	nop
    4813:	90                   	nop
    4814:	90                   	nop
    4815:	90                   	nop
    4816:	90                   	nop
    4817:	90                   	nop
    4818:	90                   	nop
    4819:	90                   	nop
    481a:	5b                   	pop    rbx
    481b:	c3                   	ret    
    481c:	0f 1f 40 00          	nop    DWORD PTR [rax+0x0]

0000000000004820 <__DualGate__4_1_40545>:
    4820:	41 57                	push   r15
    4822:	41 56                	push   r14
    4824:	41 55                	push   r13
    4826:	41 54                	push   r12
    4828:	53                   	push   rbx
    4829:	4c 89 cb             	mov    rbx,r9
    482c:	4d 89 c3             	mov    r11,r8
    482f:	49 89 c9             	mov    r9,rcx
    4832:	49 89 d0             	mov    r8,rdx
    4835:	4c 8b 6c 24 48       	mov    r13,QWORD PTR [rsp+0x48]
    483a:	4c 8b 64 24 40       	mov    r12,QWORD PTR [rsp+0x40]
    483f:	4c 8b 7c 24 38       	mov    r15,QWORD PTR [rsp+0x38]
    4844:	4c 8b 74 24 30       	mov    r14,QWORD PTR [rsp+0x30]
    4849:	e8 52 c9 ff ff       	call   11a0 <mod_ret_addr>
    484e:	48 0f b6 3f          	movzx  rdi,BYTE PTR [rdi]
    4852:	48 0f b6 36          	movzx  rsi,BYTE PTR [rsi]
    4856:	4d 0f b6 00          	movzx  r8,BYTE PTR [r8]
    485a:	4d 0f b6 09          	movzx  r9,BYTE PTR [r9]
    485e:	4d 0f b6 1b          	movzx  r11,BYTE PTR [r11]
    4862:	48 0f b6 1b          	movzx  rbx,BYTE PTR [rbx]
    4866:	4d 0f b6 36          	movzx  r14,BYTE PTR [r14]
    486a:	4d 0f b6 3f          	movzx  r15,BYTE PTR [r15]
    486e:	4d 8d 54 3d 00       	lea    r10,[r13+rdi*1+0x0]
    4873:	4d 01 da             	add    r10,r11
    4876:	4d 01 f2             	add    r10,r14
    4879:	47 8a 94 02 00 01 00 	mov    r10b,BYTE PTR [r10+r8*1+0x100]
    4880:	00 
    4881:	4d 8d 54 3d 00       	lea    r10,[r13+rdi*1+0x0]
    4886:	4d 01 da             	add    r10,r11
    4889:	4d 01 fa             	add    r10,r15
    488c:	47 8a 94 0a 00 01 00 	mov    r10b,BYTE PTR [r10+r9*1+0x100]
    4893:	00 
    4894:	4d 8d 54 3d 00       	lea    r10,[r13+rdi*1+0x0]
    4899:	49 01 da             	add    r10,rbx
    489c:	4d 01 f2             	add    r10,r14
    489f:	47 8a 94 0a 00 01 00 	mov    r10b,BYTE PTR [r10+r9*1+0x100]
    48a6:	00 
    48a7:	4d 8d 54 35 00       	lea    r10,[r13+rsi*1+0x0]
    48ac:	4d 01 fa             	add    r10,r15
    48af:	45 8a 94 1a 00 01 00 	mov    r10b,BYTE PTR [r10+rbx*1+0x100]
    48b6:	00 
    48b7:	4d 8d 54 35 00       	lea    r10,[r13+rsi*1+0x0]
    48bc:	4d 01 fa             	add    r10,r15
    48bf:	47 8a 94 02 00 01 00 	mov    r10b,BYTE PTR [r10+r8*1+0x100]
    48c6:	00 
    48c7:	4d 8d 54 35 00       	lea    r10,[r13+rsi*1+0x0]
    48cc:	49 01 da             	add    r10,rbx
    48cf:	47 8a 94 02 00 01 00 	mov    r10b,BYTE PTR [r10+r8*1+0x100]
    48d6:	00 
    48d7:	4d 8d 54 35 00       	lea    r10,[r13+rsi*1+0x0]
    48dc:	4d 01 da             	add    r10,r11
    48df:	4d 01 f2             	add    r10,r14
    48e2:	47 8a 94 0a 00 01 00 	mov    r10b,BYTE PTR [r10+r9*1+0x100]
    48e9:	00 
    48ea:	4d 8d 14 3c          	lea    r10,[r12+rdi*1]
    48ee:	4d 01 fa             	add    r10,r15
    48f1:	45 8a 94 1a 00 01 00 	mov    r10b,BYTE PTR [r10+rbx*1+0x100]
    48f8:	00 
    48f9:	4d 8d 14 3c          	lea    r10,[r12+rdi*1]
    48fd:	4d 01 fa             	add    r10,r15
    4900:	47 8a 94 02 00 01 00 	mov    r10b,BYTE PTR [r10+r8*1+0x100]
    4907:	00 
    4908:	4d 8d 14 3c          	lea    r10,[r12+rdi*1]
    490c:	49 01 da             	add    r10,rbx
    490f:	47 8a 94 02 00 01 00 	mov    r10b,BYTE PTR [r10+r8*1+0x100]
    4916:	00 
    4917:	4d 8d 14 3c          	lea    r10,[r12+rdi*1]
    491b:	4d 01 da             	add    r10,r11
    491e:	4d 01 f2             	add    r10,r14
    4921:	47 8a 94 0a 00 01 00 	mov    r10b,BYTE PTR [r10+r9*1+0x100]
    4928:	00 
    4929:	4d 8d 14 34          	lea    r10,[r12+rsi*1]
    492d:	4d 01 da             	add    r10,r11
    4930:	4d 01 f2             	add    r10,r14
    4933:	47 8a 94 02 00 01 00 	mov    r10b,BYTE PTR [r10+r8*1+0x100]
    493a:	00 
    493b:	4d 8d 14 34          	lea    r10,[r12+rsi*1]
    493f:	4d 01 da             	add    r10,r11
    4942:	4d 01 fa             	add    r10,r15
    4945:	47 8a 94 0a 00 01 00 	mov    r10b,BYTE PTR [r10+r9*1+0x100]
    494c:	00 
    494d:	4d 8d 14 34          	lea    r10,[r12+rsi*1]
    4951:	49 01 da             	add    r10,rbx
    4954:	4d 01 f2             	add    r10,r14
    4957:	47 8a 94 0a 00 01 00 	mov    r10b,BYTE PTR [r10+r9*1+0x100]
    495e:	00 
    495f:	90                   	nop
    4960:	90                   	nop
    4961:	90                   	nop
    4962:	90                   	nop
    4963:	90                   	nop
    4964:	90                   	nop
    4965:	90                   	nop
    4966:	90                   	nop
    4967:	90                   	nop
    4968:	90                   	nop
    4969:	90                   	nop
    496a:	90                   	nop
    496b:	90                   	nop
    496c:	90                   	nop
    496d:	90                   	nop
    496e:	90                   	nop
    496f:	90                   	nop
    4970:	90                   	nop
    4971:	90                   	nop
    4972:	90                   	nop
    4973:	90                   	nop
    4974:	90                   	nop
    4975:	90                   	nop
    4976:	90                   	nop
    4977:	90                   	nop
    4978:	90                   	nop
    4979:	90                   	nop
    497a:	90                   	nop
    497b:	90                   	nop
    497c:	90                   	nop
    497d:	90                   	nop
    497e:	90                   	nop
    497f:	90                   	nop
    4980:	90                   	nop
    4981:	90                   	nop
    4982:	90                   	nop
    4983:	90                   	nop
    4984:	90                   	nop
    4985:	90                   	nop
    4986:	90                   	nop
    4987:	90                   	nop
    4988:	90                   	nop
    4989:	90                   	nop
    498a:	90                   	nop
    498b:	90                   	nop
    498c:	90                   	nop
    498d:	90                   	nop
    498e:	90                   	nop
    498f:	90                   	nop
    4990:	90                   	nop
    4991:	90                   	nop
    4992:	90                   	nop
    4993:	90                   	nop
    4994:	90                   	nop
    4995:	90                   	nop
    4996:	90                   	nop
    4997:	90                   	nop
    4998:	90                   	nop
    4999:	90                   	nop
    499a:	90                   	nop
    499b:	90                   	nop
    499c:	90                   	nop
    499d:	90                   	nop
    499e:	90                   	nop
    499f:	90                   	nop
    49a0:	90                   	nop
    49a1:	90                   	nop
    49a2:	90                   	nop
    49a3:	90                   	nop
    49a4:	90                   	nop
    49a5:	90                   	nop
    49a6:	90                   	nop
    49a7:	90                   	nop
    49a8:	90                   	nop
    49a9:	90                   	nop
    49aa:	90                   	nop
    49ab:	90                   	nop
    49ac:	90                   	nop
    49ad:	90                   	nop
    49ae:	90                   	nop
    49af:	90                   	nop
    49b0:	90                   	nop
    49b1:	90                   	nop
    49b2:	90                   	nop
    49b3:	90                   	nop
    49b4:	90                   	nop
    49b5:	90                   	nop
    49b6:	90                   	nop
    49b7:	90                   	nop
    49b8:	90                   	nop
    49b9:	90                   	nop
    49ba:	90                   	nop
    49bb:	90                   	nop
    49bc:	90                   	nop
    49bd:	90                   	nop
    49be:	90                   	nop
    49bf:	90                   	nop
    49c0:	90                   	nop
    49c1:	90                   	nop
    49c2:	90                   	nop
    49c3:	90                   	nop
    49c4:	90                   	nop
    49c5:	90                   	nop
    49c6:	90                   	nop
    49c7:	90                   	nop
    49c8:	90                   	nop
    49c9:	90                   	nop
    49ca:	90                   	nop
    49cb:	90                   	nop
    49cc:	90                   	nop
    49cd:	90                   	nop
    49ce:	90                   	nop
    49cf:	90                   	nop
    49d0:	90                   	nop
    49d1:	90                   	nop
    49d2:	90                   	nop
    49d3:	90                   	nop
    49d4:	90                   	nop
    49d5:	90                   	nop
    49d6:	90                   	nop
    49d7:	90                   	nop
    49d8:	90                   	nop
    49d9:	90                   	nop
    49da:	90                   	nop
    49db:	90                   	nop
    49dc:	90                   	nop
    49dd:	90                   	nop
    49de:	90                   	nop
    49df:	90                   	nop
    49e0:	90                   	nop
    49e1:	90                   	nop
    49e2:	90                   	nop
    49e3:	90                   	nop
    49e4:	90                   	nop
    49e5:	90                   	nop
    49e6:	90                   	nop
    49e7:	90                   	nop
    49e8:	90                   	nop
    49e9:	90                   	nop
    49ea:	90                   	nop
    49eb:	90                   	nop
    49ec:	90                   	nop
    49ed:	90                   	nop
    49ee:	90                   	nop
    49ef:	90                   	nop
    49f0:	90                   	nop
    49f1:	90                   	nop
    49f2:	90                   	nop
    49f3:	90                   	nop
    49f4:	90                   	nop
    49f5:	90                   	nop
    49f6:	90                   	nop
    49f7:	90                   	nop
    49f8:	90                   	nop
    49f9:	90                   	nop
    49fa:	90                   	nop
    49fb:	90                   	nop
    49fc:	90                   	nop
    49fd:	90                   	nop
    49fe:	90                   	nop
    49ff:	90                   	nop
    4a00:	90                   	nop
    4a01:	90                   	nop
    4a02:	90                   	nop
    4a03:	90                   	nop
    4a04:	90                   	nop
    4a05:	90                   	nop
    4a06:	90                   	nop
    4a07:	90                   	nop
    4a08:	90                   	nop
    4a09:	90                   	nop
    4a0a:	90                   	nop
    4a0b:	90                   	nop
    4a0c:	90                   	nop
    4a0d:	90                   	nop
    4a0e:	90                   	nop
    4a0f:	90                   	nop
    4a10:	90                   	nop
    4a11:	90                   	nop
    4a12:	90                   	nop
    4a13:	90                   	nop
    4a14:	90                   	nop
    4a15:	90                   	nop
    4a16:	90                   	nop
    4a17:	90                   	nop
    4a18:	90                   	nop
    4a19:	90                   	nop
    4a1a:	90                   	nop
    4a1b:	90                   	nop
    4a1c:	90                   	nop
    4a1d:	90                   	nop
    4a1e:	90                   	nop
    4a1f:	90                   	nop
    4a20:	90                   	nop
    4a21:	90                   	nop
    4a22:	90                   	nop
    4a23:	90                   	nop
    4a24:	90                   	nop
    4a25:	90                   	nop
    4a26:	90                   	nop
    4a27:	90                   	nop
    4a28:	90                   	nop
    4a29:	90                   	nop
    4a2a:	90                   	nop
    4a2b:	90                   	nop
    4a2c:	90                   	nop
    4a2d:	90                   	nop
    4a2e:	90                   	nop
    4a2f:	90                   	nop
    4a30:	90                   	nop
    4a31:	90                   	nop
    4a32:	90                   	nop
    4a33:	90                   	nop
    4a34:	90                   	nop
    4a35:	90                   	nop
    4a36:	90                   	nop
    4a37:	90                   	nop
    4a38:	90                   	nop
    4a39:	90                   	nop
    4a3a:	90                   	nop
    4a3b:	90                   	nop
    4a3c:	90                   	nop
    4a3d:	90                   	nop
    4a3e:	90                   	nop
    4a3f:	90                   	nop
    4a40:	90                   	nop
    4a41:	90                   	nop
    4a42:	90                   	nop
    4a43:	90                   	nop
    4a44:	90                   	nop
    4a45:	90                   	nop
    4a46:	90                   	nop
    4a47:	90                   	nop
    4a48:	90                   	nop
    4a49:	90                   	nop
    4a4a:	90                   	nop
    4a4b:	90                   	nop
    4a4c:	90                   	nop
    4a4d:	90                   	nop
    4a4e:	90                   	nop
    4a4f:	90                   	nop
    4a50:	90                   	nop
    4a51:	90                   	nop
    4a52:	90                   	nop
    4a53:	90                   	nop
    4a54:	90                   	nop
    4a55:	90                   	nop
    4a56:	90                   	nop
    4a57:	90                   	nop
    4a58:	90                   	nop
    4a59:	90                   	nop
    4a5a:	90                   	nop
    4a5b:	90                   	nop
    4a5c:	90                   	nop
    4a5d:	90                   	nop
    4a5e:	90                   	nop
    4a5f:	90                   	nop
    4a60:	90                   	nop
    4a61:	90                   	nop
    4a62:	90                   	nop
    4a63:	90                   	nop
    4a64:	90                   	nop
    4a65:	90                   	nop
    4a66:	90                   	nop
    4a67:	90                   	nop
    4a68:	90                   	nop
    4a69:	90                   	nop
    4a6a:	90                   	nop
    4a6b:	90                   	nop
    4a6c:	90                   	nop
    4a6d:	90                   	nop
    4a6e:	90                   	nop
    4a6f:	90                   	nop
    4a70:	90                   	nop
    4a71:	90                   	nop
    4a72:	90                   	nop
    4a73:	90                   	nop
    4a74:	90                   	nop
    4a75:	90                   	nop
    4a76:	90                   	nop
    4a77:	90                   	nop
    4a78:	90                   	nop
    4a79:	90                   	nop
    4a7a:	90                   	nop
    4a7b:	90                   	nop
    4a7c:	90                   	nop
    4a7d:	90                   	nop
    4a7e:	90                   	nop
    4a7f:	90                   	nop
    4a80:	90                   	nop
    4a81:	90                   	nop
    4a82:	90                   	nop
    4a83:	90                   	nop
    4a84:	90                   	nop
    4a85:	90                   	nop
    4a86:	90                   	nop
    4a87:	90                   	nop
    4a88:	90                   	nop
    4a89:	90                   	nop
    4a8a:	90                   	nop
    4a8b:	90                   	nop
    4a8c:	90                   	nop
    4a8d:	90                   	nop
    4a8e:	90                   	nop
    4a8f:	90                   	nop
    4a90:	90                   	nop
    4a91:	90                   	nop
    4a92:	90                   	nop
    4a93:	90                   	nop
    4a94:	90                   	nop
    4a95:	90                   	nop
    4a96:	90                   	nop
    4a97:	90                   	nop
    4a98:	90                   	nop
    4a99:	90                   	nop
    4a9a:	90                   	nop
    4a9b:	90                   	nop
    4a9c:	90                   	nop
    4a9d:	90                   	nop
    4a9e:	90                   	nop
    4a9f:	90                   	nop
    4aa0:	90                   	nop
    4aa1:	90                   	nop
    4aa2:	90                   	nop
    4aa3:	90                   	nop
    4aa4:	90                   	nop
    4aa5:	90                   	nop
    4aa6:	90                   	nop
    4aa7:	90                   	nop
    4aa8:	90                   	nop
    4aa9:	90                   	nop
    4aaa:	90                   	nop
    4aab:	90                   	nop
    4aac:	90                   	nop
    4aad:	90                   	nop
    4aae:	90                   	nop
    4aaf:	90                   	nop
    4ab0:	90                   	nop
    4ab1:	90                   	nop
    4ab2:	90                   	nop
    4ab3:	90                   	nop
    4ab4:	90                   	nop
    4ab5:	90                   	nop
    4ab6:	90                   	nop
    4ab7:	90                   	nop
    4ab8:	90                   	nop
    4ab9:	90                   	nop
    4aba:	90                   	nop
    4abb:	90                   	nop
    4abc:	90                   	nop
    4abd:	90                   	nop
    4abe:	90                   	nop
    4abf:	90                   	nop
    4ac0:	90                   	nop
    4ac1:	90                   	nop
    4ac2:	90                   	nop
    4ac3:	90                   	nop
    4ac4:	90                   	nop
    4ac5:	90                   	nop
    4ac6:	90                   	nop
    4ac7:	90                   	nop
    4ac8:	90                   	nop
    4ac9:	90                   	nop
    4aca:	90                   	nop
    4acb:	90                   	nop
    4acc:	90                   	nop
    4acd:	90                   	nop
    4ace:	90                   	nop
    4acf:	90                   	nop
    4ad0:	90                   	nop
    4ad1:	90                   	nop
    4ad2:	90                   	nop
    4ad3:	90                   	nop
    4ad4:	90                   	nop
    4ad5:	90                   	nop
    4ad6:	90                   	nop
    4ad7:	90                   	nop
    4ad8:	90                   	nop
    4ad9:	90                   	nop
    4ada:	90                   	nop
    4adb:	90                   	nop
    4adc:	90                   	nop
    4add:	90                   	nop
    4ade:	90                   	nop
    4adf:	90                   	nop
    4ae0:	90                   	nop
    4ae1:	90                   	nop
    4ae2:	90                   	nop
    4ae3:	90                   	nop
    4ae4:	90                   	nop
    4ae5:	90                   	nop
    4ae6:	90                   	nop
    4ae7:	90                   	nop
    4ae8:	90                   	nop
    4ae9:	90                   	nop
    4aea:	90                   	nop
    4aeb:	90                   	nop
    4aec:	90                   	nop
    4aed:	90                   	nop
    4aee:	90                   	nop
    4aef:	90                   	nop
    4af0:	90                   	nop
    4af1:	90                   	nop
    4af2:	90                   	nop
    4af3:	90                   	nop
    4af4:	90                   	nop
    4af5:	90                   	nop
    4af6:	90                   	nop
    4af7:	90                   	nop
    4af8:	90                   	nop
    4af9:	90                   	nop
    4afa:	90                   	nop
    4afb:	90                   	nop
    4afc:	90                   	nop
    4afd:	90                   	nop
    4afe:	90                   	nop
    4aff:	90                   	nop
    4b00:	90                   	nop
    4b01:	90                   	nop
    4b02:	90                   	nop
    4b03:	90                   	nop
    4b04:	90                   	nop
    4b05:	90                   	nop
    4b06:	90                   	nop
    4b07:	90                   	nop
    4b08:	90                   	nop
    4b09:	90                   	nop
    4b0a:	90                   	nop
    4b0b:	90                   	nop
    4b0c:	90                   	nop
    4b0d:	90                   	nop
    4b0e:	90                   	nop
    4b0f:	90                   	nop
    4b10:	90                   	nop
    4b11:	90                   	nop
    4b12:	90                   	nop
    4b13:	90                   	nop
    4b14:	90                   	nop
    4b15:	90                   	nop
    4b16:	90                   	nop
    4b17:	90                   	nop
    4b18:	90                   	nop
    4b19:	90                   	nop
    4b1a:	90                   	nop
    4b1b:	90                   	nop
    4b1c:	90                   	nop
    4b1d:	90                   	nop
    4b1e:	90                   	nop
    4b1f:	90                   	nop
    4b20:	90                   	nop
    4b21:	90                   	nop
    4b22:	90                   	nop
    4b23:	90                   	nop
    4b24:	90                   	nop
    4b25:	90                   	nop
    4b26:	90                   	nop
    4b27:	90                   	nop
    4b28:	90                   	nop
    4b29:	90                   	nop
    4b2a:	90                   	nop
    4b2b:	90                   	nop
    4b2c:	90                   	nop
    4b2d:	90                   	nop
    4b2e:	90                   	nop
    4b2f:	90                   	nop
    4b30:	90                   	nop
    4b31:	90                   	nop
    4b32:	90                   	nop
    4b33:	90                   	nop
    4b34:	90                   	nop
    4b35:	90                   	nop
    4b36:	90                   	nop
    4b37:	90                   	nop
    4b38:	90                   	nop
    4b39:	90                   	nop
    4b3a:	90                   	nop
    4b3b:	90                   	nop
    4b3c:	90                   	nop
    4b3d:	90                   	nop
    4b3e:	90                   	nop
    4b3f:	90                   	nop
    4b40:	90                   	nop
    4b41:	90                   	nop
    4b42:	90                   	nop
    4b43:	90                   	nop
    4b44:	90                   	nop
    4b45:	90                   	nop
    4b46:	90                   	nop
    4b47:	90                   	nop
    4b48:	90                   	nop
    4b49:	90                   	nop
    4b4a:	90                   	nop
    4b4b:	90                   	nop
    4b4c:	90                   	nop
    4b4d:	90                   	nop
    4b4e:	90                   	nop
    4b4f:	90                   	nop
    4b50:	90                   	nop
    4b51:	90                   	nop
    4b52:	90                   	nop
    4b53:	90                   	nop
    4b54:	90                   	nop
    4b55:	90                   	nop
    4b56:	90                   	nop
    4b57:	90                   	nop
    4b58:	90                   	nop
    4b59:	90                   	nop
    4b5a:	90                   	nop
    4b5b:	90                   	nop
    4b5c:	90                   	nop
    4b5d:	90                   	nop
    4b5e:	90                   	nop
    4b5f:	5b                   	pop    rbx
    4b60:	41 5c                	pop    r12
    4b62:	41 5d                	pop    r13
    4b64:	41 5e                	pop    r14
    4b66:	41 5f                	pop    r15
    4b68:	c3                   	ret    
    4b69:	0f 1f 80 00 00 00 00 	nop    DWORD PTR [rax+0x0]

0000000000004b70 <__DualGate__2_1_1>:
    4b70:	53                   	push   rbx
    4b71:	4c 89 cb             	mov    rbx,r9
    4b74:	4d 89 c3             	mov    r11,r8
    4b77:	49 89 c9             	mov    r9,rcx
    4b7a:	49 89 d0             	mov    r8,rdx
    4b7d:	e8 1e c6 ff ff       	call   11a0 <mod_ret_addr>
    4b82:	48 0f b6 3f          	movzx  rdi,BYTE PTR [rdi]
    4b86:	48 0f b6 36          	movzx  rsi,BYTE PTR [rsi]
    4b8a:	4d 0f b6 00          	movzx  r8,BYTE PTR [r8]
    4b8e:	4d 0f b6 09          	movzx  r9,BYTE PTR [r9]
    4b92:	4c 8d 14 3b          	lea    r10,[rbx+rdi*1]
    4b96:	47 8a 94 02 00 01 00 	mov    r10b,BYTE PTR [r10+r8*1+0x100]
    4b9d:	00 
    4b9e:	47 8a 94 0b 00 01 00 	mov    r10b,BYTE PTR [r11+r9*1+0x100]
    4ba5:	00 
    4ba6:	45 8a 94 33 00 01 00 	mov    r10b,BYTE PTR [r11+rsi*1+0x100]
    4bad:	00 
    4bae:	90                   	nop
    4baf:	90                   	nop
    4bb0:	90                   	nop
    4bb1:	90                   	nop
    4bb2:	90                   	nop
    4bb3:	90                   	nop
    4bb4:	90                   	nop
    4bb5:	90                   	nop
    4bb6:	90                   	nop
    4bb7:	90                   	nop
    4bb8:	90                   	nop
    4bb9:	90                   	nop
    4bba:	90                   	nop
    4bbb:	90                   	nop
    4bbc:	90                   	nop
    4bbd:	90                   	nop
    4bbe:	90                   	nop
    4bbf:	90                   	nop
    4bc0:	90                   	nop
    4bc1:	90                   	nop
    4bc2:	90                   	nop
    4bc3:	90                   	nop
    4bc4:	90                   	nop
    4bc5:	90                   	nop
    4bc6:	90                   	nop
    4bc7:	90                   	nop
    4bc8:	90                   	nop
    4bc9:	90                   	nop
    4bca:	90                   	nop
    4bcb:	90                   	nop
    4bcc:	90                   	nop
    4bcd:	90                   	nop
    4bce:	90                   	nop
    4bcf:	90                   	nop
    4bd0:	90                   	nop
    4bd1:	90                   	nop
    4bd2:	90                   	nop
    4bd3:	90                   	nop
    4bd4:	90                   	nop
    4bd5:	90                   	nop
    4bd6:	90                   	nop
    4bd7:	90                   	nop
    4bd8:	90                   	nop
    4bd9:	90                   	nop
    4bda:	90                   	nop
    4bdb:	90                   	nop
    4bdc:	90                   	nop
    4bdd:	90                   	nop
    4bde:	90                   	nop
    4bdf:	90                   	nop
    4be0:	90                   	nop
    4be1:	90                   	nop
    4be2:	90                   	nop
    4be3:	90                   	nop
    4be4:	90                   	nop
    4be5:	90                   	nop
    4be6:	90                   	nop
    4be7:	90                   	nop
    4be8:	90                   	nop
    4be9:	90                   	nop
    4bea:	90                   	nop
    4beb:	90                   	nop
    4bec:	90                   	nop
    4bed:	90                   	nop
    4bee:	90                   	nop
    4bef:	90                   	nop
    4bf0:	90                   	nop
    4bf1:	90                   	nop
    4bf2:	90                   	nop
    4bf3:	90                   	nop
    4bf4:	90                   	nop
    4bf5:	90                   	nop
    4bf6:	90                   	nop
    4bf7:	90                   	nop
    4bf8:	90                   	nop
    4bf9:	90                   	nop
    4bfa:	90                   	nop
    4bfb:	90                   	nop
    4bfc:	90                   	nop
    4bfd:	90                   	nop
    4bfe:	90                   	nop
    4bff:	90                   	nop
    4c00:	90                   	nop
    4c01:	90                   	nop
    4c02:	90                   	nop
    4c03:	90                   	nop
    4c04:	90                   	nop
    4c05:	90                   	nop
    4c06:	90                   	nop
    4c07:	90                   	nop
    4c08:	90                   	nop
    4c09:	90                   	nop
    4c0a:	90                   	nop
    4c0b:	90                   	nop
    4c0c:	90                   	nop
    4c0d:	90                   	nop
    4c0e:	90                   	nop
    4c0f:	90                   	nop
    4c10:	90                   	nop
    4c11:	90                   	nop
    4c12:	90                   	nop
    4c13:	90                   	nop
    4c14:	90                   	nop
    4c15:	90                   	nop
    4c16:	90                   	nop
    4c17:	90                   	nop
    4c18:	90                   	nop
    4c19:	90                   	nop
    4c1a:	90                   	nop
    4c1b:	90                   	nop
    4c1c:	90                   	nop
    4c1d:	90                   	nop
    4c1e:	90                   	nop
    4c1f:	90                   	nop
    4c20:	90                   	nop
    4c21:	90                   	nop
    4c22:	90                   	nop
    4c23:	90                   	nop
    4c24:	90                   	nop
    4c25:	90                   	nop
    4c26:	90                   	nop
    4c27:	90                   	nop
    4c28:	90                   	nop
    4c29:	90                   	nop
    4c2a:	90                   	nop
    4c2b:	90                   	nop
    4c2c:	90                   	nop
    4c2d:	90                   	nop
    4c2e:	90                   	nop
    4c2f:	90                   	nop
    4c30:	90                   	nop
    4c31:	90                   	nop
    4c32:	90                   	nop
    4c33:	90                   	nop
    4c34:	90                   	nop
    4c35:	90                   	nop
    4c36:	90                   	nop
    4c37:	90                   	nop
    4c38:	90                   	nop
    4c39:	90                   	nop
    4c3a:	90                   	nop
    4c3b:	90                   	nop
    4c3c:	90                   	nop
    4c3d:	90                   	nop
    4c3e:	90                   	nop
    4c3f:	90                   	nop
    4c40:	90                   	nop
    4c41:	90                   	nop
    4c42:	90                   	nop
    4c43:	90                   	nop
    4c44:	90                   	nop
    4c45:	90                   	nop
    4c46:	90                   	nop
    4c47:	90                   	nop
    4c48:	90                   	nop
    4c49:	90                   	nop
    4c4a:	90                   	nop
    4c4b:	90                   	nop
    4c4c:	90                   	nop
    4c4d:	90                   	nop
    4c4e:	90                   	nop
    4c4f:	90                   	nop
    4c50:	90                   	nop
    4c51:	90                   	nop
    4c52:	90                   	nop
    4c53:	90                   	nop
    4c54:	90                   	nop
    4c55:	90                   	nop
    4c56:	90                   	nop
    4c57:	90                   	nop
    4c58:	90                   	nop
    4c59:	90                   	nop
    4c5a:	90                   	nop
    4c5b:	90                   	nop
    4c5c:	90                   	nop
    4c5d:	90                   	nop
    4c5e:	90                   	nop
    4c5f:	90                   	nop
    4c60:	90                   	nop
    4c61:	90                   	nop
    4c62:	90                   	nop
    4c63:	90                   	nop
    4c64:	90                   	nop
    4c65:	90                   	nop
    4c66:	90                   	nop
    4c67:	90                   	nop
    4c68:	90                   	nop
    4c69:	90                   	nop
    4c6a:	90                   	nop
    4c6b:	90                   	nop
    4c6c:	90                   	nop
    4c6d:	90                   	nop
    4c6e:	90                   	nop
    4c6f:	90                   	nop
    4c70:	90                   	nop
    4c71:	90                   	nop
    4c72:	90                   	nop
    4c73:	90                   	nop
    4c74:	90                   	nop
    4c75:	90                   	nop
    4c76:	90                   	nop
    4c77:	90                   	nop
    4c78:	90                   	nop
    4c79:	90                   	nop
    4c7a:	90                   	nop
    4c7b:	90                   	nop
    4c7c:	90                   	nop
    4c7d:	90                   	nop
    4c7e:	90                   	nop
    4c7f:	90                   	nop
    4c80:	90                   	nop
    4c81:	90                   	nop
    4c82:	90                   	nop
    4c83:	90                   	nop
    4c84:	90                   	nop
    4c85:	90                   	nop
    4c86:	90                   	nop
    4c87:	90                   	nop
    4c88:	90                   	nop
    4c89:	90                   	nop
    4c8a:	90                   	nop
    4c8b:	90                   	nop
    4c8c:	90                   	nop
    4c8d:	90                   	nop
    4c8e:	90                   	nop
    4c8f:	90                   	nop
    4c90:	90                   	nop
    4c91:	90                   	nop
    4c92:	90                   	nop
    4c93:	90                   	nop
    4c94:	90                   	nop
    4c95:	90                   	nop
    4c96:	90                   	nop
    4c97:	90                   	nop
    4c98:	90                   	nop
    4c99:	90                   	nop
    4c9a:	90                   	nop
    4c9b:	90                   	nop
    4c9c:	90                   	nop
    4c9d:	90                   	nop
    4c9e:	90                   	nop
    4c9f:	90                   	nop
    4ca0:	90                   	nop
    4ca1:	90                   	nop
    4ca2:	90                   	nop
    4ca3:	90                   	nop
    4ca4:	90                   	nop
    4ca5:	90                   	nop
    4ca6:	90                   	nop
    4ca7:	90                   	nop
    4ca8:	90                   	nop
    4ca9:	90                   	nop
    4caa:	90                   	nop
    4cab:	90                   	nop
    4cac:	90                   	nop
    4cad:	90                   	nop
    4cae:	90                   	nop
    4caf:	90                   	nop
    4cb0:	90                   	nop
    4cb1:	90                   	nop
    4cb2:	90                   	nop
    4cb3:	90                   	nop
    4cb4:	90                   	nop
    4cb5:	90                   	nop
    4cb6:	90                   	nop
    4cb7:	90                   	nop
    4cb8:	90                   	nop
    4cb9:	90                   	nop
    4cba:	90                   	nop
    4cbb:	90                   	nop
    4cbc:	90                   	nop
    4cbd:	90                   	nop
    4cbe:	90                   	nop
    4cbf:	90                   	nop
    4cc0:	90                   	nop
    4cc1:	90                   	nop
    4cc2:	90                   	nop
    4cc3:	90                   	nop
    4cc4:	90                   	nop
    4cc5:	90                   	nop
    4cc6:	90                   	nop
    4cc7:	90                   	nop
    4cc8:	90                   	nop
    4cc9:	90                   	nop
    4cca:	90                   	nop
    4ccb:	90                   	nop
    4ccc:	90                   	nop
    4ccd:	90                   	nop
    4cce:	90                   	nop
    4ccf:	90                   	nop
    4cd0:	90                   	nop
    4cd1:	90                   	nop
    4cd2:	90                   	nop
    4cd3:	90                   	nop
    4cd4:	90                   	nop
    4cd5:	90                   	nop
    4cd6:	90                   	nop
    4cd7:	90                   	nop
    4cd8:	90                   	nop
    4cd9:	90                   	nop
    4cda:	90                   	nop
    4cdb:	90                   	nop
    4cdc:	90                   	nop
    4cdd:	90                   	nop
    4cde:	90                   	nop
    4cdf:	90                   	nop
    4ce0:	90                   	nop
    4ce1:	90                   	nop
    4ce2:	90                   	nop
    4ce3:	90                   	nop
    4ce4:	90                   	nop
    4ce5:	90                   	nop
    4ce6:	90                   	nop
    4ce7:	90                   	nop
    4ce8:	90                   	nop
    4ce9:	90                   	nop
    4cea:	90                   	nop
    4ceb:	90                   	nop
    4cec:	90                   	nop
    4ced:	90                   	nop
    4cee:	90                   	nop
    4cef:	90                   	nop
    4cf0:	90                   	nop
    4cf1:	90                   	nop
    4cf2:	90                   	nop
    4cf3:	90                   	nop
    4cf4:	90                   	nop
    4cf5:	90                   	nop
    4cf6:	90                   	nop
    4cf7:	90                   	nop
    4cf8:	90                   	nop
    4cf9:	90                   	nop
    4cfa:	90                   	nop
    4cfb:	90                   	nop
    4cfc:	90                   	nop
    4cfd:	90                   	nop
    4cfe:	90                   	nop
    4cff:	90                   	nop
