
main_mux.elf:     file format elf64-x86-64


Disassembly of section .init:

0000000000001000 <_init>:
    1000:	f3 0f 1e fa          	endbr64
    1004:	48 83 ec 08          	sub    rsp,0x8
    1008:	48 8b 05 e1 4f 00 00 	mov    rax,QWORD PTR [rip+0x4fe1]        # 5ff0 <__gmon_start__@Base>
    100f:	48 85 c0             	test   rax,rax
    1012:	74 02                	je     1016 <_init+0x16>
    1014:	ff d0                	call   rax
    1016:	48 83 c4 08          	add    rsp,0x8
    101a:	c3                   	ret

Disassembly of section .plt:

0000000000001020 <.plt>:
    1020:	ff 35 42 4f 00 00    	push   QWORD PTR [rip+0x4f42]        # 5f68 <_GLOBAL_OFFSET_TABLE_+0x8>
    1026:	ff 25 44 4f 00 00    	jmp    QWORD PTR [rip+0x4f44]        # 5f70 <_GLOBAL_OFFSET_TABLE_+0x10>
    102c:	0f 1f 40 00          	nop    DWORD PTR [rax+0x0]
    1030:	f3 0f 1e fa          	endbr64
    1034:	68 00 00 00 00       	push   0x0
    1039:	e9 e2 ff ff ff       	jmp    1020 <_init+0x20>
    103e:	66 90                	xchg   ax,ax
    1040:	f3 0f 1e fa          	endbr64
    1044:	68 01 00 00 00       	push   0x1
    1049:	e9 d2 ff ff ff       	jmp    1020 <_init+0x20>
    104e:	66 90                	xchg   ax,ax
    1050:	f3 0f 1e fa          	endbr64
    1054:	68 02 00 00 00       	push   0x2
    1059:	e9 c2 ff ff ff       	jmp    1020 <_init+0x20>
    105e:	66 90                	xchg   ax,ax
    1060:	f3 0f 1e fa          	endbr64
    1064:	68 03 00 00 00       	push   0x3
    1069:	e9 b2 ff ff ff       	jmp    1020 <_init+0x20>
    106e:	66 90                	xchg   ax,ax
    1070:	f3 0f 1e fa          	endbr64
    1074:	68 04 00 00 00       	push   0x4
    1079:	e9 a2 ff ff ff       	jmp    1020 <_init+0x20>
    107e:	66 90                	xchg   ax,ax
    1080:	f3 0f 1e fa          	endbr64
    1084:	68 05 00 00 00       	push   0x5
    1089:	e9 92 ff ff ff       	jmp    1020 <_init+0x20>
    108e:	66 90                	xchg   ax,ax
    1090:	f3 0f 1e fa          	endbr64
    1094:	68 06 00 00 00       	push   0x6
    1099:	e9 82 ff ff ff       	jmp    1020 <_init+0x20>
    109e:	66 90                	xchg   ax,ax
    10a0:	f3 0f 1e fa          	endbr64
    10a4:	68 07 00 00 00       	push   0x7
    10a9:	e9 72 ff ff ff       	jmp    1020 <_init+0x20>
    10ae:	66 90                	xchg   ax,ax
    10b0:	f3 0f 1e fa          	endbr64
    10b4:	68 08 00 00 00       	push   0x8
    10b9:	e9 62 ff ff ff       	jmp    1020 <_init+0x20>
    10be:	66 90                	xchg   ax,ax
    10c0:	f3 0f 1e fa          	endbr64
    10c4:	68 09 00 00 00       	push   0x9
    10c9:	e9 52 ff ff ff       	jmp    1020 <_init+0x20>
    10ce:	66 90                	xchg   ax,ax
    10d0:	f3 0f 1e fa          	endbr64
    10d4:	68 0a 00 00 00       	push   0xa
    10d9:	e9 42 ff ff ff       	jmp    1020 <_init+0x20>
    10de:	66 90                	xchg   ax,ax
    10e0:	f3 0f 1e fa          	endbr64
    10e4:	68 0b 00 00 00       	push   0xb
    10e9:	e9 32 ff ff ff       	jmp    1020 <_init+0x20>
    10ee:	66 90                	xchg   ax,ax

Disassembly of section .plt.got:

00000000000010f0 <__cxa_finalize@plt>:
    10f0:	f3 0f 1e fa          	endbr64
    10f4:	ff 25 de 4e 00 00    	jmp    QWORD PTR [rip+0x4ede]        # 5fd8 <__cxa_finalize@GLIBC_2.2.5>
    10fa:	66 0f 1f 44 00 00    	nop    WORD PTR [rax+rax*1+0x0]

Disassembly of section .plt.sec:

0000000000001100 <__printf_chk@plt>:
    1100:	f3 0f 1e fa          	endbr64
    1104:	ff 25 6e 4e 00 00    	jmp    QWORD PTR [rip+0x4e6e]        # 5f78 <__printf_chk@GLIBC_2.3.4>
    110a:	66 0f 1f 44 00 00    	nop    WORD PTR [rax+rax*1+0x0]

0000000000001110 <argp_parse@plt>:
    1110:	f3 0f 1e fa          	endbr64
    1114:	ff 25 66 4e 00 00    	jmp    QWORD PTR [rip+0x4e66]        # 5f80 <argp_parse@GLIBC_2.2.5>
    111a:	66 0f 1f 44 00 00    	nop    WORD PTR [rax+rax*1+0x0]

0000000000001120 <memset@plt>:
    1120:	f3 0f 1e fa          	endbr64
    1124:	ff 25 5e 4e 00 00    	jmp    QWORD PTR [rip+0x4e5e]        # 5f88 <memset@GLIBC_2.2.5>
    112a:	66 0f 1f 44 00 00    	nop    WORD PTR [rax+rax*1+0x0]

0000000000001130 <clock@plt>:
    1130:	f3 0f 1e fa          	endbr64
    1134:	ff 25 56 4e 00 00    	jmp    QWORD PTR [rip+0x4e56]        # 5f90 <clock@GLIBC_2.2.5>
    113a:	66 0f 1f 44 00 00    	nop    WORD PTR [rax+rax*1+0x0]

0000000000001140 <sqrt@plt>:
    1140:	f3 0f 1e fa          	endbr64
    1144:	ff 25 4e 4e 00 00    	jmp    QWORD PTR [rip+0x4e4e]        # 5f98 <sqrt@GLIBC_2.2.5>
    114a:	66 0f 1f 44 00 00    	nop    WORD PTR [rax+rax*1+0x0]

0000000000001150 <_Znwm@plt>:
    1150:	f3 0f 1e fa          	endbr64
    1154:	ff 25 46 4e 00 00    	jmp    QWORD PTR [rip+0x4e46]        # 5fa0 <_Znwm@GLIBCXX_3.4>
    115a:	66 0f 1f 44 00 00    	nop    WORD PTR [rax+rax*1+0x0]

0000000000001160 <_ZdlPvm@plt>:
    1160:	f3 0f 1e fa          	endbr64
    1164:	ff 25 3e 4e 00 00    	jmp    QWORD PTR [rip+0x4e3e]        # 5fa8 <_ZdlPvm@CXXABI_1.3.9>
    116a:	66 0f 1f 44 00 00    	nop    WORD PTR [rax+rax*1+0x0]

0000000000001170 <__stack_chk_fail@plt>:
    1170:	f3 0f 1e fa          	endbr64
    1174:	ff 25 36 4e 00 00    	jmp    QWORD PTR [rip+0x4e36]        # 5fb0 <__stack_chk_fail@GLIBC_2.4>
    117a:	66 0f 1f 44 00 00    	nop    WORD PTR [rax+rax*1+0x0]

0000000000001180 <sigemptyset@plt>:
    1180:	f3 0f 1e fa          	endbr64
    1184:	ff 25 2e 4e 00 00    	jmp    QWORD PTR [rip+0x4e2e]        # 5fb8 <sigemptyset@GLIBC_2.2.5>
    118a:	66 0f 1f 44 00 00    	nop    WORD PTR [rax+rax*1+0x0]

0000000000001190 <sigaction@plt>:
    1190:	f3 0f 1e fa          	endbr64
    1194:	ff 25 26 4e 00 00    	jmp    QWORD PTR [rip+0x4e26]        # 5fc0 <sigaction@GLIBC_2.2.5>
    119a:	66 0f 1f 44 00 00    	nop    WORD PTR [rax+rax*1+0x0]

00000000000011a0 <_Unwind_Resume@plt>:
    11a0:	f3 0f 1e fa          	endbr64
    11a4:	ff 25 1e 4e 00 00    	jmp    QWORD PTR [rip+0x4e1e]        # 5fc8 <_Unwind_Resume@GCC_3.0>
    11aa:	66 0f 1f 44 00 00    	nop    WORD PTR [rax+rax*1+0x0]

00000000000011b0 <__isoc23_strtol@plt>:
    11b0:	f3 0f 1e fa          	endbr64
    11b4:	ff 25 16 4e 00 00    	jmp    QWORD PTR [rip+0x4e16]        # 5fd0 <__isoc23_strtol@GLIBC_2.38>
    11ba:	66 0f 1f 44 00 00    	nop    WORD PTR [rax+rax*1+0x0]

Disassembly of section .text:

00000000000011c0 <_Z12calc_avg_stdRSt6vectorIjSaIjEES2_j.cold>:
    11c0:	48 8d 7c 24 40       	lea    rdi,[rsp+0x40]
    11c5:	e8 b6 15 00 00       	call   2780 <_ZNSt6vectorIdSaIdEED1Ev>
    11ca:	48 8d 7c 24 20       	lea    rdi,[rsp+0x20]
    11cf:	e8 ac 15 00 00       	call   2780 <_ZNSt6vectorIdSaIdEED1Ev>
    11d4:	48 8b 44 24 58       	mov    rax,QWORD PTR [rsp+0x58]
    11d9:	64 48 2b 04 25 28 00 	sub    rax,QWORD PTR fs:0x28
    11e0:	00 00 
    11e2:	75 08                	jne    11ec <_Z12calc_avg_stdRSt6vectorIjSaIjEES2_j.cold+0x2c>
    11e4:	48 89 df             	mov    rdi,rbx
    11e7:	e8 b4 ff ff ff       	call   11a0 <_Unwind_Resume@plt>
    11ec:	e8 7f ff ff ff       	call   1170 <__stack_chk_fail@plt>

00000000000011f1 <_Z9test_gatePKcPFbjEj.cold>:
    11f1:	4c 89 ff             	mov    rdi,r15
    11f4:	e8 b7 15 00 00       	call   27b0 <_ZNSt6vectorIjSaIjEED1Ev>
    11f9:	4c 89 f7             	mov    rdi,r14
    11fc:	e8 af 15 00 00       	call   27b0 <_ZNSt6vectorIjSaIjEED1Ev>
    1201:	48 8b 44 24 78       	mov    rax,QWORD PTR [rsp+0x78]
    1206:	64 48 2b 04 25 28 00 	sub    rax,QWORD PTR fs:0x28
    120d:	00 00 
    120f:	75 08                	jne    1219 <_Z9test_gatePKcPFbjEj.cold+0x28>
    1211:	48 89 df             	mov    rdi,rbx
    1214:	e8 87 ff ff ff       	call   11a0 <_Unwind_Resume@plt>
    1219:	e8 52 ff ff ff       	call   1170 <__stack_chk_fail@plt>
    121e:	66 90                	xchg   ax,ax

0000000000001220 <main>:
    1220:	f3 0f 1e fa          	endbr64
    1224:	41 54                	push   r12
    1226:	b9 13 00 00 00       	mov    ecx,0x13
    122b:	55                   	push   rbp
    122c:	48 89 f5             	mov    rbp,rsi
    122f:	53                   	push   rbx
    1230:	89 fb                	mov    ebx,edi
    1232:	48 81 ec a0 00 00 00 	sub    rsp,0xa0
    1239:	64 48 8b 04 25 28 00 	mov    rax,QWORD PTR fs:0x28
    1240:	00 00 
    1242:	48 89 84 24 98 00 00 	mov    QWORD PTR [rsp+0x98],rax
    1249:	00 
    124a:	31 c0                	xor    eax,eax
    124c:	48 89 e7             	mov    rdi,rsp
    124f:	49 89 e4             	mov    r12,rsp
    1252:	f3 48 ab             	rep stos QWORD PTR es:[rdi],rax
    1255:	48 8d 7c 24 08       	lea    rdi,[rsp+0x8]
    125a:	e8 21 ff ff ff       	call   1180 <sigemptyset@plt>
    125f:	31 d2                	xor    edx,edx
    1261:	4c 89 e6             	mov    rsi,r12
    1264:	bf 08 00 00 00       	mov    edi,0x8
    1269:	48 8d 05 30 02 00 00 	lea    rax,[rip+0x230]        # 14a0 <_Z14signal_handleriP9siginfo_tPv>
    1270:	c7 84 24 88 00 00 00 	mov    DWORD PTR [rsp+0x88],0x4
    1277:	04 00 00 00 
    127b:	48 89 04 24          	mov    QWORD PTR [rsp],rax
    127f:	e8 0c ff ff ff       	call   1190 <sigaction@plt>
    1284:	45 31 c9             	xor    r9d,r9d
    1287:	45 31 c0             	xor    r8d,r8d
    128a:	31 c9                	xor    ecx,ecx
    128c:	48 89 ea             	mov    rdx,rbp
    128f:	89 de                	mov    esi,ebx
    1291:	48 8d 3d e8 4d 00 00 	lea    rdi,[rip+0x4de8]        # 6080 <_ZL4argp>
    1298:	e8 73 fe ff ff       	call   1110 <argp_parse@plt>
    129d:	b9 00 01 00 00       	mov    ecx,0x100
    12a2:	ba 13 01 00 00       	mov    edx,0x113
    12a7:	31 c0                	xor    eax,eax
    12a9:	48 8d 35 90 2d 00 00 	lea    rsi,[rip+0x2d90]        # 4040 <_IO_stdin_used+0x40>
    12b0:	bf 02 00 00 00       	mov    edi,0x2
    12b5:	e8 46 fe ff ff       	call   1100 <__printf_chk@plt>
    12ba:	8b 0d a0 4d 00 00    	mov    ecx,DWORD PTR [rip+0x4da0]        # 6060 <single_trial>
    12c0:	8b 15 9e 4d 00 00    	mov    edx,DWORD PTR [rip+0x4d9e]        # 6064 <tot_trials>
    12c6:	31 c0                	xor    eax,eax
    12c8:	48 8d 35 99 2d 00 00 	lea    rsi,[rip+0x2d99]        # 4068 <_IO_stdin_used+0x68>
    12cf:	bf 02 00 00 00       	mov    edi,0x2
    12d4:	e8 27 fe ff ff       	call   1100 <__printf_chk@plt>
    12d9:	ba 02 00 00 00       	mov    edx,0x2
    12de:	48 8d 35 eb 04 00 00 	lea    rsi,[rip+0x4eb]        # 17d0 <_Z11do_and_gatej>
    12e5:	48 8d 3d 9b 2e 00 00 	lea    rdi,[rip+0x2e9b]        # 4187 <_IO_stdin_used+0x187>
    12ec:	e8 8f 11 00 00       	call   2480 <_Z9test_gatePKcPFbjEj>
    12f1:	ba 02 00 00 00       	mov    edx,0x2
    12f6:	48 8d 35 b3 06 00 00 	lea    rsi,[rip+0x6b3]        # 19b0 <_Z10do_or_gatej>
    12fd:	48 8d 3d 88 2e 00 00 	lea    rdi,[rip+0x2e88]        # 418c <_IO_stdin_used+0x18c>
    1304:	e8 77 11 00 00       	call   2480 <_Z9test_gatePKcPFbjEj>
    1309:	ba 01 00 00 00       	mov    edx,0x1
    130e:	48 8d 35 7b 08 00 00 	lea    rsi,[rip+0x87b]        # 1b90 <_Z14do_assign_gatej>
    1315:	48 8d 3d 5f 2e 00 00 	lea    rdi,[rip+0x2e5f]        # 417b <_IO_stdin_used+0x17b>
    131c:	e8 5f 11 00 00       	call   2480 <_Z9test_gatePKcPFbjEj>
    1321:	ba 01 00 00 00       	mov    edx,0x1
    1326:	48 8d 35 d3 02 00 00 	lea    rsi,[rip+0x2d3]        # 1600 <_Z11do_not_gatej>
    132d:	48 8d 3d 4e 2e 00 00 	lea    rdi,[rip+0x2e4e]        # 4182 <_IO_stdin_used+0x182>
    1334:	e8 47 11 00 00       	call   2480 <_Z9test_gatePKcPFbjEj>
    1339:	ba 02 00 00 00       	mov    edx,0x2
    133e:	48 8d 35 4b 0a 00 00 	lea    rsi,[rip+0xa4b]        # 1d90 <_Z12do_nand_gatej>
    1345:	48 8d 3d 3a 2e 00 00 	lea    rdi,[rip+0x2e3a]        # 4186 <_IO_stdin_used+0x186>
    134c:	e8 2f 11 00 00       	call   2480 <_Z9test_gatePKcPFbjEj>
    1351:	ba 02 00 00 00       	mov    edx,0x2
    1356:	48 8d 35 c3 01 00 00 	lea    rsi,[rip+0x1c3]        # 1520 <_Z11do_xor_gatej>
    135d:	48 8d 3d 27 2e 00 00 	lea    rdi,[rip+0x2e27]        # 418b <_IO_stdin_used+0x18b>
    1364:	e8 17 11 00 00       	call   2480 <_Z9test_gatePKcPFbjEj>
    1369:	ba 03 00 00 00       	mov    edx,0x3
    136e:	48 8d 35 2b 0b 00 00 	lea    rsi,[rip+0xb2b]        # 1ea0 <_Z11do_mux_gatej>
    1375:	48 8d 3d 13 2e 00 00 	lea    rdi,[rip+0x2e13]        # 418f <_IO_stdin_used+0x18f>
    137c:	e8 ff 10 00 00       	call   2480 <_Z9test_gatePKcPFbjEj>
    1381:	48 8b 84 24 98 00 00 	mov    rax,QWORD PTR [rsp+0x98]
    1388:	00 
    1389:	64 48 2b 04 25 28 00 	sub    rax,QWORD PTR fs:0x28
    1390:	00 00 
    1392:	75 0e                	jne    13a2 <main+0x182>
    1394:	48 81 c4 a0 00 00 00 	add    rsp,0xa0
    139b:	31 c0                	xor    eax,eax
    139d:	5b                   	pop    rbx
    139e:	5d                   	pop    rbp
    139f:	41 5c                	pop    r12
    13a1:	c3                   	ret
    13a2:	e8 c9 fd ff ff       	call   1170 <__stack_chk_fail@plt>
    13a7:	66 0f 1f 84 00 00 00 	nop    WORD PTR [rax+rax*1+0x0]
    13ae:	00 00 

00000000000013b0 <_start>:
    13b0:	f3 0f 1e fa          	endbr64
    13b4:	31 ed                	xor    ebp,ebp
    13b6:	49 89 d1             	mov    r9,rdx
    13b9:	5e                   	pop    rsi
    13ba:	48 89 e2             	mov    rdx,rsp
    13bd:	48 83 e4 f0          	and    rsp,0xfffffffffffffff0
    13c1:	50                   	push   rax
    13c2:	54                   	push   rsp
    13c3:	45 31 c0             	xor    r8d,r8d
    13c6:	31 c9                	xor    ecx,ecx
    13c8:	48 8d 3d 51 fe ff ff 	lea    rdi,[rip+0xfffffffffffffe51]        # 1220 <main>
    13cf:	ff 15 0b 4c 00 00    	call   QWORD PTR [rip+0x4c0b]        # 5fe0 <__libc_start_main@GLIBC_2.34>
    13d5:	f4                   	hlt
    13d6:	66 2e 0f 1f 84 00 00 	cs nop WORD PTR [rax+rax*1+0x0]
    13dd:	00 00 00 

00000000000013e0 <deregister_tm_clones>:
    13e0:	48 8d 3d a1 4d 00 00 	lea    rdi,[rip+0x4da1]        # 6188 <__TMC_END__>
    13e7:	48 8d 05 9a 4d 00 00 	lea    rax,[rip+0x4d9a]        # 6188 <__TMC_END__>
    13ee:	48 39 f8             	cmp    rax,rdi
    13f1:	74 15                	je     1408 <deregister_tm_clones+0x28>
    13f3:	48 8b 05 ee 4b 00 00 	mov    rax,QWORD PTR [rip+0x4bee]        # 5fe8 <_ITM_deregisterTMCloneTable@Base>
    13fa:	48 85 c0             	test   rax,rax
    13fd:	74 09                	je     1408 <deregister_tm_clones+0x28>
    13ff:	ff e0                	jmp    rax
    1401:	0f 1f 80 00 00 00 00 	nop    DWORD PTR [rax+0x0]
    1408:	c3                   	ret
    1409:	0f 1f 80 00 00 00 00 	nop    DWORD PTR [rax+0x0]

0000000000001410 <register_tm_clones>:
    1410:	48 8d 3d 71 4d 00 00 	lea    rdi,[rip+0x4d71]        # 6188 <__TMC_END__>
    1417:	48 8d 35 6a 4d 00 00 	lea    rsi,[rip+0x4d6a]        # 6188 <__TMC_END__>
    141e:	48 29 fe             	sub    rsi,rdi
    1421:	48 89 f0             	mov    rax,rsi
    1424:	48 c1 ee 3f          	shr    rsi,0x3f
    1428:	48 c1 f8 03          	sar    rax,0x3
    142c:	48 01 c6             	add    rsi,rax
    142f:	48 d1 fe             	sar    rsi,1
    1432:	74 14                	je     1448 <register_tm_clones+0x38>
    1434:	48 8b 05 bd 4b 00 00 	mov    rax,QWORD PTR [rip+0x4bbd]        # 5ff8 <_ITM_registerTMCloneTable@Base>
    143b:	48 85 c0             	test   rax,rax
    143e:	74 08                	je     1448 <register_tm_clones+0x38>
    1440:	ff e0                	jmp    rax
    1442:	66 0f 1f 44 00 00    	nop    WORD PTR [rax+rax*1+0x0]
    1448:	c3                   	ret
    1449:	0f 1f 80 00 00 00 00 	nop    DWORD PTR [rax+0x0]

0000000000001450 <__do_global_dtors_aux>:
    1450:	f3 0f 1e fa          	endbr64
    1454:	80 3d 45 4d 00 00 00 	cmp    BYTE PTR [rip+0x4d45],0x0        # 61a0 <completed.0>
    145b:	75 2b                	jne    1488 <__do_global_dtors_aux+0x38>
    145d:	55                   	push   rbp
    145e:	48 83 3d 72 4b 00 00 	cmp    QWORD PTR [rip+0x4b72],0x0        # 5fd8 <__cxa_finalize@GLIBC_2.2.5>
    1465:	00 
    1466:	48 89 e5             	mov    rbp,rsp
    1469:	74 0c                	je     1477 <__do_global_dtors_aux+0x27>
    146b:	48 8b 3d 96 4b 00 00 	mov    rdi,QWORD PTR [rip+0x4b96]        # 6008 <__dso_handle>
    1472:	e8 79 fc ff ff       	call   10f0 <__cxa_finalize@plt>
    1477:	e8 64 ff ff ff       	call   13e0 <deregister_tm_clones>
    147c:	c6 05 1d 4d 00 00 01 	mov    BYTE PTR [rip+0x4d1d],0x1        # 61a0 <completed.0>
    1483:	5d                   	pop    rbp
    1484:	c3                   	ret
    1485:	0f 1f 00             	nop    DWORD PTR [rax]
    1488:	c3                   	ret
    1489:	0f 1f 80 00 00 00 00 	nop    DWORD PTR [rax+0x0]

0000000000001490 <frame_dummy>:
    1490:	f3 0f 1e fa          	endbr64
    1494:	e9 77 ff ff ff       	jmp    1410 <register_tm_clones>
    1499:	0f 1f 80 00 00 00 00 	nop    DWORD PTR [rax+0x0]

00000000000014a0 <_Z14signal_handleriP9siginfo_tPv>:
    14a0:	f3 0f 1e fa          	endbr64
    14a4:	48 81 82 a8 00 00 00 	add    QWORD PTR [rdx+0xa8],0x100
    14ab:	00 01 00 00 
    14af:	c3                   	ret

00000000000014b0 <_ZL9parse_optiPcP10argp_state>:
    14b0:	f3 0f 1e fa          	endbr64
    14b4:	89 f8                	mov    eax,edi
    14b6:	48 83 ec 08          	sub    rsp,0x8
    14ba:	48 89 f7             	mov    rdi,rsi
    14bd:	83 f8 74             	cmp    eax,0x74
    14c0:	74 46                	je     1508 <_ZL9parse_optiPcP10argp_state+0x58>
    14c2:	7f 2c                	jg     14f0 <_ZL9parse_optiPcP10argp_state+0x40>
    14c4:	85 c0                	test   eax,eax
    14c6:	74 1c                	je     14e4 <_ZL9parse_optiPcP10argp_state+0x34>
    14c8:	ba 07 00 00 00       	mov    edx,0x7
    14cd:	83 f8 69             	cmp    eax,0x69
    14d0:	75 14                	jne    14e6 <_ZL9parse_optiPcP10argp_state+0x36>
    14d2:	ba 0a 00 00 00       	mov    edx,0xa
    14d7:	31 f6                	xor    esi,esi
    14d9:	e8 d2 fc ff ff       	call   11b0 <__isoc23_strtol@plt>
    14de:	89 05 7c 4b 00 00    	mov    DWORD PTR [rip+0x4b7c],eax        # 6060 <single_trial>
    14e4:	31 d2                	xor    edx,edx
    14e6:	89 d0                	mov    eax,edx
    14e8:	48 83 c4 08          	add    rsp,0x8
    14ec:	c3                   	ret
    14ed:	0f 1f 00             	nop    DWORD PTR [rax]
    14f0:	ba 07 00 00 00       	mov    edx,0x7
    14f5:	83 f8 76             	cmp    eax,0x76
    14f8:	75 ec                	jne    14e6 <_ZL9parse_optiPcP10argp_state+0x36>
    14fa:	c6 05 bf 74 00 00 01 	mov    BYTE PTR [rip+0x74bf],0x1        # 89c0 <verbose>
    1501:	eb e1                	jmp    14e4 <_ZL9parse_optiPcP10argp_state+0x34>
    1503:	0f 1f 44 00 00       	nop    DWORD PTR [rax+rax*1+0x0]
    1508:	ba 0a 00 00 00       	mov    edx,0xa
    150d:	31 f6                	xor    esi,esi
    150f:	e8 9c fc ff ff       	call   11b0 <__isoc23_strtol@plt>
    1514:	89 05 4a 4b 00 00    	mov    DWORD PTR [rip+0x4b4a],eax        # 6064 <tot_trials>
    151a:	eb c8                	jmp    14e4 <_ZL9parse_optiPcP10argp_state+0x34>
    151c:	0f 1f 40 00          	nop    DWORD PTR [rax+0x0]

0000000000001520 <_Z11do_xor_gatej>:
    1520:	f3 0f 1e fa          	endbr64
    1524:	53                   	push   rbx
    1525:	89 fb                	mov    ebx,edi
    1527:	48 83 ec 10          	sub    rsp,0x10
    152b:	83 e7 01             	and    edi,0x1
    152e:	c6 05 8b 6c 00 00 00 	mov    BYTE PTR [rip+0x6c8b],0x0        # 81c0 <reg1>
    1535:	c6 05 84 64 00 00 00 	mov    BYTE PTR [rip+0x6484],0x0        # 79c0 <reg2>
    153c:	c6 05 7d 5c 00 00 00 	mov    BYTE PTR [rip+0x5c7d],0x0        # 71c0 <reg3>
    1543:	75 07                	jne    154c <_Z11do_xor_gatej+0x2c>
    1545:	0f ae 3d 74 6c 00 00 	clflush BYTE PTR [rip+0x6c74]        # 81c0 <reg1>
    154c:	f6 c3 02             	test   bl,0x2
    154f:	0f 84 9b 00 00 00    	je     15f0 <_Z11do_xor_gatej+0xd0>
    1555:	c6 05 64 64 00 00 00 	mov    BYTE PTR [rip+0x6464],0x0        # 79c0 <reg2>
    155c:	0f ae 3d 5d 5c 00 00 	clflush BYTE PTR [rip+0x5c5d]        # 71c0 <reg3>
    1563:	48 8d 15 56 5c 00 00 	lea    rdx,[rip+0x5c56]        # 71c0 <reg3>
    156a:	48 8d 35 4f 64 00 00 	lea    rsi,[rip+0x644f]        # 79c0 <reg2>
    1571:	48 8d 3d 48 6c 00 00 	lea    rdi,[rip+0x6c48]        # 81c0 <reg1>
    1578:	89 d9                	mov    ecx,ebx
    157a:	e8 d1 15 00 00       	call   2b50 <_Z8xor_gatePhS_S_j>
    157f:	c7 44 24 0c 00 00 00 	mov    DWORD PTR [rsp+0xc],0x0
    1586:	00 
    1587:	8b 44 24 0c          	mov    eax,DWORD PTR [rsp+0xc]
    158b:	3d ff 00 00 00       	cmp    eax,0xff
    1590:	7f 1c                	jg     15ae <_Z11do_xor_gatej+0x8e>
    1592:	66 0f 1f 44 00 00    	nop    WORD PTR [rax+rax*1+0x0]
    1598:	8b 44 24 0c          	mov    eax,DWORD PTR [rsp+0xc]
    159c:	83 c0 01             	add    eax,0x1
    159f:	89 44 24 0c          	mov    DWORD PTR [rsp+0xc],eax
    15a3:	8b 44 24 0c          	mov    eax,DWORD PTR [rsp+0xc]
    15a7:	3d ff 00 00 00       	cmp    eax,0xff
    15ac:	7e ea                	jle    1598 <_Z11do_xor_gatej+0x78>
    15ae:	0f 01 f9             	rdtscp
    15b1:	48 c1 e2 20          	shl    rdx,0x20
    15b5:	48 89 d6             	mov    rsi,rdx
    15b8:	09 c6                	or     esi,eax
    15ba:	8a 05 00 5c 00 00    	mov    al,BYTE PTR [rip+0x5c00]        # 71c0 <reg3>
    15c0:	0f 01 f9             	rdtscp
    15c3:	48 c1 e2 20          	shl    rdx,0x20
    15c7:	09 c2                	or     edx,eax
    15c9:	48 29 f2             	sub    rdx,rsi
    15cc:	48 89 d7             	mov    rdi,rdx
    15cf:	83 e3 03             	and    ebx,0x3
    15d2:	83 eb 01             	sub    ebx,0x1
    15d5:	83 fb 01             	cmp    ebx,0x1
    15d8:	0f 96 c2             	setbe  dl
    15db:	48 81 ff 13 01 00 00 	cmp    rdi,0x113
    15e2:	0f 96 c0             	setbe  al
    15e5:	38 c2                	cmp    dl,al
    15e7:	0f 94 c0             	sete   al
    15ea:	48 83 c4 10          	add    rsp,0x10
    15ee:	5b                   	pop    rbx
    15ef:	c3                   	ret
    15f0:	0f ae 3d c9 63 00 00 	clflush BYTE PTR [rip+0x63c9]        # 79c0 <reg2>
    15f7:	e9 60 ff ff ff       	jmp    155c <_Z11do_xor_gatej+0x3c>
    15fc:	0f 1f 40 00          	nop    DWORD PTR [rax+0x0]

0000000000001600 <_Z11do_not_gatej>:
    1600:	f3 0f 1e fa          	endbr64
    1604:	c6 05 b5 6b 00 00 00 	mov    BYTE PTR [rip+0x6bb5],0x0        # 81c0 <reg1>
    160b:	c6 05 ae 63 00 00 00 	mov    BYTE PTR [rip+0x63ae],0x0        # 79c0 <reg2>
    1612:	c6 05 a7 53 00 00 00 	mov    BYTE PTR [rip+0x53a7],0x0        # 69c0 <reg4>
    1619:	83 e7 01             	and    edi,0x1
    161c:	75 0e                	jne    162c <_Z11do_not_gatej+0x2c>
    161e:	0f ae 3d 9b 6b 00 00 	clflush BYTE PTR [rip+0x6b9b]        # 81c0 <reg1>
    1625:	0f ae 3d 94 63 00 00 	clflush BYTE PTR [rip+0x6394]        # 79c0 <reg2>
    162c:	0f ae 3d 8d 5b 00 00 	clflush BYTE PTR [rip+0x5b8d]        # 71c0 <reg3>
    1633:	0f ae 3d 86 53 00 00 	clflush BYTE PTR [rip+0x5386]        # 69c0 <reg4>
    163a:	c7 44 24 fc 00 00 00 	mov    DWORD PTR [rsp-0x4],0x0
    1641:	00 
    1642:	8b 44 24 fc          	mov    eax,DWORD PTR [rsp-0x4]
    1646:	3d ff 00 00 00       	cmp    eax,0xff
    164b:	7f 19                	jg     1666 <_Z11do_not_gatej+0x66>
    164d:	0f 1f 00             	nop    DWORD PTR [rax]
    1650:	8b 44 24 fc          	mov    eax,DWORD PTR [rsp-0x4]
    1654:	83 c0 01             	add    eax,0x1
    1657:	89 44 24 fc          	mov    DWORD PTR [rsp-0x4],eax
    165b:	8b 44 24 fc          	mov    eax,DWORD PTR [rsp-0x4]
    165f:	3d ff 00 00 00       	cmp    eax,0xff
    1664:	7e ea                	jle    1650 <_Z11do_not_gatej+0x50>
    1666:	48 8d 35 53 6b 00 00 	lea    rsi,[rip+0x6b53]        # 81c0 <reg1>
    166d:	4c 8d 05 4c 5b 00 00 	lea    r8,[rip+0x5b4c]        # 71c0 <reg3>
    1674:	4c 8d 0d 45 53 00 00 	lea    r9,[rip+0x5345]        # 69c0 <reg4>
    167b:	4c 8d 15 3e 63 00 00 	lea    r10,[rip+0x633e]        # 79c0 <reg2>
    1682:	48 0f b6 16          	movzx  rdx,BYTE PTR [rsi]
    1686:	4c 01 d2             	add    rdx,r10
    1689:	48 0f b6 12          	movzx  rdx,BYTE PTR [rdx]
    168d:	f6 f2                	div    dl
    168f:	49 0f b6 09          	movzx  rcx,BYTE PTR [r9]
    1693:	4c 01 c1             	add    rcx,r8
    1696:	8a 11                	mov    dl,BYTE PTR [rcx]
    1698:	90                   	nop
    1699:	90                   	nop
    169a:	90                   	nop
    169b:	90                   	nop
    169c:	90                   	nop
    169d:	90                   	nop
    169e:	90                   	nop
    169f:	90                   	nop
    16a0:	90                   	nop
    16a1:	90                   	nop
    16a2:	90                   	nop
    16a3:	90                   	nop
    16a4:	90                   	nop
    16a5:	90                   	nop
    16a6:	90                   	nop
    16a7:	90                   	nop
    16a8:	90                   	nop
    16a9:	90                   	nop
    16aa:	90                   	nop
    16ab:	90                   	nop
    16ac:	90                   	nop
    16ad:	90                   	nop
    16ae:	90                   	nop
    16af:	90                   	nop
    16b0:	90                   	nop
    16b1:	90                   	nop
    16b2:	90                   	nop
    16b3:	90                   	nop
    16b4:	90                   	nop
    16b5:	90                   	nop
    16b6:	90                   	nop
    16b7:	90                   	nop
    16b8:	90                   	nop
    16b9:	90                   	nop
    16ba:	90                   	nop
    16bb:	90                   	nop
    16bc:	90                   	nop
    16bd:	90                   	nop
    16be:	90                   	nop
    16bf:	90                   	nop
    16c0:	90                   	nop
    16c1:	90                   	nop
    16c2:	90                   	nop
    16c3:	90                   	nop
    16c4:	90                   	nop
    16c5:	90                   	nop
    16c6:	90                   	nop
    16c7:	90                   	nop
    16c8:	90                   	nop
    16c9:	90                   	nop
    16ca:	90                   	nop
    16cb:	90                   	nop
    16cc:	90                   	nop
    16cd:	90                   	nop
    16ce:	90                   	nop
    16cf:	90                   	nop
    16d0:	90                   	nop
    16d1:	90                   	nop
    16d2:	90                   	nop
    16d3:	90                   	nop
    16d4:	90                   	nop
    16d5:	90                   	nop
    16d6:	90                   	nop
    16d7:	90                   	nop
    16d8:	90                   	nop
    16d9:	90                   	nop
    16da:	90                   	nop
    16db:	90                   	nop
    16dc:	90                   	nop
    16dd:	90                   	nop
    16de:	90                   	nop
    16df:	90                   	nop
    16e0:	90                   	nop
    16e1:	90                   	nop
    16e2:	90                   	nop
    16e3:	90                   	nop
    16e4:	90                   	nop
    16e5:	90                   	nop
    16e6:	90                   	nop
    16e7:	90                   	nop
    16e8:	90                   	nop
    16e9:	90                   	nop
    16ea:	90                   	nop
    16eb:	90                   	nop
    16ec:	90                   	nop
    16ed:	90                   	nop
    16ee:	90                   	nop
    16ef:	90                   	nop
    16f0:	90                   	nop
    16f1:	90                   	nop
    16f2:	90                   	nop
    16f3:	90                   	nop
    16f4:	90                   	nop
    16f5:	90                   	nop
    16f6:	90                   	nop
    16f7:	90                   	nop
    16f8:	90                   	nop
    16f9:	90                   	nop
    16fa:	90                   	nop
    16fb:	90                   	nop
    16fc:	90                   	nop
    16fd:	90                   	nop
    16fe:	90                   	nop
    16ff:	90                   	nop
    1700:	90                   	nop
    1701:	90                   	nop
    1702:	90                   	nop
    1703:	90                   	nop
    1704:	90                   	nop
    1705:	90                   	nop
    1706:	90                   	nop
    1707:	90                   	nop
    1708:	90                   	nop
    1709:	90                   	nop
    170a:	90                   	nop
    170b:	90                   	nop
    170c:	90                   	nop
    170d:	90                   	nop
    170e:	90                   	nop
    170f:	90                   	nop
    1710:	90                   	nop
    1711:	90                   	nop
    1712:	90                   	nop
    1713:	90                   	nop
    1714:	90                   	nop
    1715:	90                   	nop
    1716:	90                   	nop
    1717:	90                   	nop
    1718:	90                   	nop
    1719:	90                   	nop
    171a:	90                   	nop
    171b:	90                   	nop
    171c:	90                   	nop
    171d:	90                   	nop
    171e:	90                   	nop
    171f:	90                   	nop
    1720:	90                   	nop
    1721:	90                   	nop
    1722:	90                   	nop
    1723:	90                   	nop
    1724:	90                   	nop
    1725:	90                   	nop
    1726:	90                   	nop
    1727:	90                   	nop
    1728:	90                   	nop
    1729:	90                   	nop
    172a:	90                   	nop
    172b:	90                   	nop
    172c:	90                   	nop
    172d:	90                   	nop
    172e:	90                   	nop
    172f:	90                   	nop
    1730:	90                   	nop
    1731:	90                   	nop
    1732:	90                   	nop
    1733:	90                   	nop
    1734:	90                   	nop
    1735:	90                   	nop
    1736:	90                   	nop
    1737:	90                   	nop
    1738:	90                   	nop
    1739:	90                   	nop
    173a:	90                   	nop
    173b:	90                   	nop
    173c:	90                   	nop
    173d:	90                   	nop
    173e:	90                   	nop
    173f:	90                   	nop
    1740:	90                   	nop
    1741:	90                   	nop
    1742:	90                   	nop
    1743:	90                   	nop
    1744:	90                   	nop
    1745:	90                   	nop
    1746:	90                   	nop
    1747:	90                   	nop
    1748:	90                   	nop
    1749:	90                   	nop
    174a:	90                   	nop
    174b:	90                   	nop
    174c:	90                   	nop
    174d:	90                   	nop
    174e:	90                   	nop
    174f:	90                   	nop
    1750:	90                   	nop
    1751:	90                   	nop
    1752:	90                   	nop
    1753:	90                   	nop
    1754:	90                   	nop
    1755:	90                   	nop
    1756:	90                   	nop
    1757:	90                   	nop
    1758:	90                   	nop
    1759:	90                   	nop
    175a:	90                   	nop
    175b:	90                   	nop
    175c:	90                   	nop
    175d:	90                   	nop
    175e:	90                   	nop
    175f:	90                   	nop
    1760:	90                   	nop
    1761:	90                   	nop
    1762:	90                   	nop
    1763:	90                   	nop
    1764:	90                   	nop
    1765:	90                   	nop
    1766:	90                   	nop
    1767:	90                   	nop
    1768:	90                   	nop
    1769:	90                   	nop
    176a:	90                   	nop
    176b:	90                   	nop
    176c:	90                   	nop
    176d:	90                   	nop
    176e:	90                   	nop
    176f:	90                   	nop
    1770:	90                   	nop
    1771:	90                   	nop
    1772:	90                   	nop
    1773:	90                   	nop
    1774:	90                   	nop
    1775:	90                   	nop
    1776:	90                   	nop
    1777:	90                   	nop
    1778:	90                   	nop
    1779:	90                   	nop
    177a:	90                   	nop
    177b:	90                   	nop
    177c:	90                   	nop
    177d:	90                   	nop
    177e:	90                   	nop
    177f:	90                   	nop
    1780:	90                   	nop
    1781:	90                   	nop
    1782:	90                   	nop
    1783:	90                   	nop
    1784:	90                   	nop
    1785:	90                   	nop
    1786:	90                   	nop
    1787:	90                   	nop
    1788:	90                   	nop
    1789:	90                   	nop
    178a:	90                   	nop
    178b:	90                   	nop
    178c:	90                   	nop
    178d:	90                   	nop
    178e:	90                   	nop
    178f:	90                   	nop
    1790:	90                   	nop
    1791:	90                   	nop
    1792:	90                   	nop
    1793:	90                   	nop
    1794:	90                   	nop
    1795:	90                   	nop
    1796:	90                   	nop
    1797:	90                   	nop
    1798:	0f 01 f9             	rdtscp
    179b:	48 c1 e2 20          	shl    rdx,0x20
    179f:	48 89 d6             	mov    rsi,rdx
    17a2:	09 c6                	or     esi,eax
    17a4:	8a 05 16 5a 00 00    	mov    al,BYTE PTR [rip+0x5a16]        # 71c0 <reg3>
    17aa:	0f 01 f9             	rdtscp
    17ad:	48 c1 e2 20          	shl    rdx,0x20
    17b1:	09 c2                	or     edx,eax
    17b3:	48 29 f2             	sub    rdx,rsi
    17b6:	49 89 d0             	mov    r8,rdx
    17b9:	49 81 f8 13 01 00 00 	cmp    r8,0x113
    17c0:	0f 96 c0             	setbe  al
    17c3:	83 f7 01             	xor    edi,0x1
    17c6:	40 38 f8             	cmp    al,dil
    17c9:	0f 94 c0             	sete   al
    17cc:	c3                   	ret
    17cd:	0f 1f 00             	nop    DWORD PTR [rax]

00000000000017d0 <_Z11do_and_gatej>:
    17d0:	f3 0f 1e fa          	endbr64
    17d4:	c6 05 e5 69 00 00 00 	mov    BYTE PTR [rip+0x69e5],0x0        # 81c0 <reg1>
    17db:	c6 05 de 61 00 00 00 	mov    BYTE PTR [rip+0x61de],0x0        # 79c0 <reg2>
    17e2:	40 f6 c7 01          	test   dil,0x1
    17e6:	75 07                	jne    17ef <_Z11do_and_gatej+0x1f>
    17e8:	0f ae 3d d1 69 00 00 	clflush BYTE PTR [rip+0x69d1]        # 81c0 <reg1>
    17ef:	40 f6 c7 02          	test   dil,0x2
    17f3:	0f 84 a7 01 00 00    	je     19a0 <_Z11do_and_gatej+0x1d0>
    17f9:	c6 05 c0 61 00 00 00 	mov    BYTE PTR [rip+0x61c0],0x0        # 79c0 <reg2>
    1800:	0f ae 3d b9 59 00 00 	clflush BYTE PTR [rip+0x59b9]        # 71c0 <reg3>
    1807:	c7 44 24 fc 00 00 00 	mov    DWORD PTR [rsp-0x4],0x0
    180e:	00 
    180f:	8b 44 24 fc          	mov    eax,DWORD PTR [rsp-0x4]
    1813:	3d ff 00 00 00       	cmp    eax,0xff
    1818:	7f 1c                	jg     1836 <_Z11do_and_gatej+0x66>
    181a:	66 0f 1f 44 00 00    	nop    WORD PTR [rax+rax*1+0x0]
    1820:	8b 44 24 fc          	mov    eax,DWORD PTR [rsp-0x4]
    1824:	83 c0 01             	add    eax,0x1
    1827:	89 44 24 fc          	mov    DWORD PTR [rsp-0x4],eax
    182b:	8b 44 24 fc          	mov    eax,DWORD PTR [rsp-0x4]
    182f:	3d ff 00 00 00       	cmp    eax,0xff
    1834:	7e ea                	jle    1820 <_Z11do_and_gatej+0x50>
    1836:	48 8d 35 83 69 00 00 	lea    rsi,[rip+0x6983]        # 81c0 <reg1>
    183d:	4c 8d 05 7c 61 00 00 	lea    r8,[rip+0x617c]        # 79c0 <reg2>
    1844:	4c 8d 0d 75 59 00 00 	lea    r9,[rip+0x5975]        # 71c0 <reg3>
    184b:	48 31 d2             	xor    rdx,rdx
    184e:	f6 f2                	div    dl
    1850:	48 0f b6 0e          	movzx  rcx,BYTE PTR [rsi]
    1854:	4c 01 c1             	add    rcx,r8
    1857:	48 0f b6 11          	movzx  rdx,BYTE PTR [rcx]
    185b:	4c 01 ca             	add    rdx,r9
    185e:	8a 12                	mov    dl,BYTE PTR [rdx]
    1860:	90                   	nop
    1861:	90                   	nop
    1862:	90                   	nop
    1863:	90                   	nop
    1864:	90                   	nop
    1865:	90                   	nop
    1866:	90                   	nop
    1867:	90                   	nop
    1868:	90                   	nop
    1869:	90                   	nop
    186a:	90                   	nop
    186b:	90                   	nop
    186c:	90                   	nop
    186d:	90                   	nop
    186e:	90                   	nop
    186f:	90                   	nop
    1870:	90                   	nop
    1871:	90                   	nop
    1872:	90                   	nop
    1873:	90                   	nop
    1874:	90                   	nop
    1875:	90                   	nop
    1876:	90                   	nop
    1877:	90                   	nop
    1878:	90                   	nop
    1879:	90                   	nop
    187a:	90                   	nop
    187b:	90                   	nop
    187c:	90                   	nop
    187d:	90                   	nop
    187e:	90                   	nop
    187f:	90                   	nop
    1880:	90                   	nop
    1881:	90                   	nop
    1882:	90                   	nop
    1883:	90                   	nop
    1884:	90                   	nop
    1885:	90                   	nop
    1886:	90                   	nop
    1887:	90                   	nop
    1888:	90                   	nop
    1889:	90                   	nop
    188a:	90                   	nop
    188b:	90                   	nop
    188c:	90                   	nop
    188d:	90                   	nop
    188e:	90                   	nop
    188f:	90                   	nop
    1890:	90                   	nop
    1891:	90                   	nop
    1892:	90                   	nop
    1893:	90                   	nop
    1894:	90                   	nop
    1895:	90                   	nop
    1896:	90                   	nop
    1897:	90                   	nop
    1898:	90                   	nop
    1899:	90                   	nop
    189a:	90                   	nop
    189b:	90                   	nop
    189c:	90                   	nop
    189d:	90                   	nop
    189e:	90                   	nop
    189f:	90                   	nop
    18a0:	90                   	nop
    18a1:	90                   	nop
    18a2:	90                   	nop
    18a3:	90                   	nop
    18a4:	90                   	nop
    18a5:	90                   	nop
    18a6:	90                   	nop
    18a7:	90                   	nop
    18a8:	90                   	nop
    18a9:	90                   	nop
    18aa:	90                   	nop
    18ab:	90                   	nop
    18ac:	90                   	nop
    18ad:	90                   	nop
    18ae:	90                   	nop
    18af:	90                   	nop
    18b0:	90                   	nop
    18b1:	90                   	nop
    18b2:	90                   	nop
    18b3:	90                   	nop
    18b4:	90                   	nop
    18b5:	90                   	nop
    18b6:	90                   	nop
    18b7:	90                   	nop
    18b8:	90                   	nop
    18b9:	90                   	nop
    18ba:	90                   	nop
    18bb:	90                   	nop
    18bc:	90                   	nop
    18bd:	90                   	nop
    18be:	90                   	nop
    18bf:	90                   	nop
    18c0:	90                   	nop
    18c1:	90                   	nop
    18c2:	90                   	nop
    18c3:	90                   	nop
    18c4:	90                   	nop
    18c5:	90                   	nop
    18c6:	90                   	nop
    18c7:	90                   	nop
    18c8:	90                   	nop
    18c9:	90                   	nop
    18ca:	90                   	nop
    18cb:	90                   	nop
    18cc:	90                   	nop
    18cd:	90                   	nop
    18ce:	90                   	nop
    18cf:	90                   	nop
    18d0:	90                   	nop
    18d1:	90                   	nop
    18d2:	90                   	nop
    18d3:	90                   	nop
    18d4:	90                   	nop
    18d5:	90                   	nop
    18d6:	90                   	nop
    18d7:	90                   	nop
    18d8:	90                   	nop
    18d9:	90                   	nop
    18da:	90                   	nop
    18db:	90                   	nop
    18dc:	90                   	nop
    18dd:	90                   	nop
    18de:	90                   	nop
    18df:	90                   	nop
    18e0:	90                   	nop
    18e1:	90                   	nop
    18e2:	90                   	nop
    18e3:	90                   	nop
    18e4:	90                   	nop
    18e5:	90                   	nop
    18e6:	90                   	nop
    18e7:	90                   	nop
    18e8:	90                   	nop
    18e9:	90                   	nop
    18ea:	90                   	nop
    18eb:	90                   	nop
    18ec:	90                   	nop
    18ed:	90                   	nop
    18ee:	90                   	nop
    18ef:	90                   	nop
    18f0:	90                   	nop
    18f1:	90                   	nop
    18f2:	90                   	nop
    18f3:	90                   	nop
    18f4:	90                   	nop
    18f5:	90                   	nop
    18f6:	90                   	nop
    18f7:	90                   	nop
    18f8:	90                   	nop
    18f9:	90                   	nop
    18fa:	90                   	nop
    18fb:	90                   	nop
    18fc:	90                   	nop
    18fd:	90                   	nop
    18fe:	90                   	nop
    18ff:	90                   	nop
    1900:	90                   	nop
    1901:	90                   	nop
    1902:	90                   	nop
    1903:	90                   	nop
    1904:	90                   	nop
    1905:	90                   	nop
    1906:	90                   	nop
    1907:	90                   	nop
    1908:	90                   	nop
    1909:	90                   	nop
    190a:	90                   	nop
    190b:	90                   	nop
    190c:	90                   	nop
    190d:	90                   	nop
    190e:	90                   	nop
    190f:	90                   	nop
    1910:	90                   	nop
    1911:	90                   	nop
    1912:	90                   	nop
    1913:	90                   	nop
    1914:	90                   	nop
    1915:	90                   	nop
    1916:	90                   	nop
    1917:	90                   	nop
    1918:	90                   	nop
    1919:	90                   	nop
    191a:	90                   	nop
    191b:	90                   	nop
    191c:	90                   	nop
    191d:	90                   	nop
    191e:	90                   	nop
    191f:	90                   	nop
    1920:	90                   	nop
    1921:	90                   	nop
    1922:	90                   	nop
    1923:	90                   	nop
    1924:	90                   	nop
    1925:	90                   	nop
    1926:	90                   	nop
    1927:	90                   	nop
    1928:	90                   	nop
    1929:	90                   	nop
    192a:	90                   	nop
    192b:	90                   	nop
    192c:	90                   	nop
    192d:	90                   	nop
    192e:	90                   	nop
    192f:	90                   	nop
    1930:	90                   	nop
    1931:	90                   	nop
    1932:	90                   	nop
    1933:	90                   	nop
    1934:	90                   	nop
    1935:	90                   	nop
    1936:	90                   	nop
    1937:	90                   	nop
    1938:	90                   	nop
    1939:	90                   	nop
    193a:	90                   	nop
    193b:	90                   	nop
    193c:	90                   	nop
    193d:	90                   	nop
    193e:	90                   	nop
    193f:	90                   	nop
    1940:	90                   	nop
    1941:	90                   	nop
    1942:	90                   	nop
    1943:	90                   	nop
    1944:	90                   	nop
    1945:	90                   	nop
    1946:	90                   	nop
    1947:	90                   	nop
    1948:	90                   	nop
    1949:	90                   	nop
    194a:	90                   	nop
    194b:	90                   	nop
    194c:	90                   	nop
    194d:	90                   	nop
    194e:	90                   	nop
    194f:	90                   	nop
    1950:	90                   	nop
    1951:	90                   	nop
    1952:	90                   	nop
    1953:	90                   	nop
    1954:	90                   	nop
    1955:	90                   	nop
    1956:	90                   	nop
    1957:	90                   	nop
    1958:	90                   	nop
    1959:	90                   	nop
    195a:	90                   	nop
    195b:	90                   	nop
    195c:	90                   	nop
    195d:	90                   	nop
    195e:	90                   	nop
    195f:	90                   	nop
    1960:	0f 01 f9             	rdtscp
    1963:	48 c1 e2 20          	shl    rdx,0x20
    1967:	48 89 d6             	mov    rsi,rdx
    196a:	09 c6                	or     esi,eax
    196c:	8a 05 4e 58 00 00    	mov    al,BYTE PTR [rip+0x584e]        # 71c0 <reg3>
    1972:	0f 01 f9             	rdtscp
    1975:	48 c1 e2 20          	shl    rdx,0x20
    1979:	09 c2                	or     edx,eax
    197b:	48 29 f2             	sub    rdx,rsi
    197e:	49 89 d0             	mov    r8,rdx
    1981:	f7 d7                	not    edi
    1983:	83 e7 03             	and    edi,0x3
    1986:	0f 94 c2             	sete   dl
    1989:	49 81 f8 13 01 00 00 	cmp    r8,0x113
    1990:	0f 96 c0             	setbe  al
    1993:	38 c2                	cmp    dl,al
    1995:	0f 94 c0             	sete   al
    1998:	c3                   	ret
    1999:	0f 1f 80 00 00 00 00 	nop    DWORD PTR [rax+0x0]
    19a0:	0f ae 3d 19 60 00 00 	clflush BYTE PTR [rip+0x6019]        # 79c0 <reg2>
    19a7:	e9 54 fe ff ff       	jmp    1800 <_Z11do_and_gatej+0x30>
    19ac:	0f 1f 40 00          	nop    DWORD PTR [rax+0x0]

00000000000019b0 <_Z10do_or_gatej>:
    19b0:	f3 0f 1e fa          	endbr64
    19b4:	c6 05 05 68 00 00 00 	mov    BYTE PTR [rip+0x6805],0x0        # 81c0 <reg1>
    19bb:	c6 05 fe 5f 00 00 00 	mov    BYTE PTR [rip+0x5ffe],0x0        # 79c0 <reg2>
    19c2:	40 f6 c7 01          	test   dil,0x1
    19c6:	75 07                	jne    19cf <_Z10do_or_gatej+0x1f>
    19c8:	0f ae 3d f1 67 00 00 	clflush BYTE PTR [rip+0x67f1]        # 81c0 <reg1>
    19cf:	40 f6 c7 02          	test   dil,0x2
    19d3:	0f 84 a7 01 00 00    	je     1b80 <_Z10do_or_gatej+0x1d0>
    19d9:	c6 05 e0 5f 00 00 00 	mov    BYTE PTR [rip+0x5fe0],0x0        # 79c0 <reg2>
    19e0:	0f ae 3d d9 57 00 00 	clflush BYTE PTR [rip+0x57d9]        # 71c0 <reg3>
    19e7:	c7 44 24 fc 00 00 00 	mov    DWORD PTR [rsp-0x4],0x0
    19ee:	00 
    19ef:	8b 44 24 fc          	mov    eax,DWORD PTR [rsp-0x4]
    19f3:	3d ff 00 00 00       	cmp    eax,0xff
    19f8:	7f 1c                	jg     1a16 <_Z10do_or_gatej+0x66>
    19fa:	66 0f 1f 44 00 00    	nop    WORD PTR [rax+rax*1+0x0]
    1a00:	8b 44 24 fc          	mov    eax,DWORD PTR [rsp-0x4]
    1a04:	83 c0 01             	add    eax,0x1
    1a07:	89 44 24 fc          	mov    DWORD PTR [rsp-0x4],eax
    1a0b:	8b 44 24 fc          	mov    eax,DWORD PTR [rsp-0x4]
    1a0f:	3d ff 00 00 00       	cmp    eax,0xff
    1a14:	7e ea                	jle    1a00 <_Z10do_or_gatej+0x50>
    1a16:	48 8d 35 a3 67 00 00 	lea    rsi,[rip+0x67a3]        # 81c0 <reg1>
    1a1d:	4c 8d 05 9c 5f 00 00 	lea    r8,[rip+0x5f9c]        # 79c0 <reg2>
    1a24:	4c 8d 0d 95 57 00 00 	lea    r9,[rip+0x5795]        # 71c0 <reg3>
    1a2b:	48 31 d2             	xor    rdx,rdx
    1a2e:	f6 f2                	div    dl
    1a30:	48 0f b6 0e          	movzx  rcx,BYTE PTR [rsi]
    1a34:	4c 01 c9             	add    rcx,r9
    1a37:	8a 01                	mov    al,BYTE PTR [rcx]
    1a39:	49 0f b6 08          	movzx  rcx,BYTE PTR [r8]
    1a3d:	4c 01 c9             	add    rcx,r9
    1a40:	8a 11                	mov    dl,BYTE PTR [rcx]
    1a42:	90                   	nop
    1a43:	90                   	nop
    1a44:	90                   	nop
    1a45:	90                   	nop
    1a46:	90                   	nop
    1a47:	90                   	nop
    1a48:	90                   	nop
    1a49:	90                   	nop
    1a4a:	90                   	nop
    1a4b:	90                   	nop
    1a4c:	90                   	nop
    1a4d:	90                   	nop
    1a4e:	90                   	nop
    1a4f:	90                   	nop
    1a50:	90                   	nop
    1a51:	90                   	nop
    1a52:	90                   	nop
    1a53:	90                   	nop
    1a54:	90                   	nop
    1a55:	90                   	nop
    1a56:	90                   	nop
    1a57:	90                   	nop
    1a58:	90                   	nop
    1a59:	90                   	nop
    1a5a:	90                   	nop
    1a5b:	90                   	nop
    1a5c:	90                   	nop
    1a5d:	90                   	nop
    1a5e:	90                   	nop
    1a5f:	90                   	nop
    1a60:	90                   	nop
    1a61:	90                   	nop
    1a62:	90                   	nop
    1a63:	90                   	nop
    1a64:	90                   	nop
    1a65:	90                   	nop
    1a66:	90                   	nop
    1a67:	90                   	nop
    1a68:	90                   	nop
    1a69:	90                   	nop
    1a6a:	90                   	nop
    1a6b:	90                   	nop
    1a6c:	90                   	nop
    1a6d:	90                   	nop
    1a6e:	90                   	nop
    1a6f:	90                   	nop
    1a70:	90                   	nop
    1a71:	90                   	nop
    1a72:	90                   	nop
    1a73:	90                   	nop
    1a74:	90                   	nop
    1a75:	90                   	nop
    1a76:	90                   	nop
    1a77:	90                   	nop
    1a78:	90                   	nop
    1a79:	90                   	nop
    1a7a:	90                   	nop
    1a7b:	90                   	nop
    1a7c:	90                   	nop
    1a7d:	90                   	nop
    1a7e:	90                   	nop
    1a7f:	90                   	nop
    1a80:	90                   	nop
    1a81:	90                   	nop
    1a82:	90                   	nop
    1a83:	90                   	nop
    1a84:	90                   	nop
    1a85:	90                   	nop
    1a86:	90                   	nop
    1a87:	90                   	nop
    1a88:	90                   	nop
    1a89:	90                   	nop
    1a8a:	90                   	nop
    1a8b:	90                   	nop
    1a8c:	90                   	nop
    1a8d:	90                   	nop
    1a8e:	90                   	nop
    1a8f:	90                   	nop
    1a90:	90                   	nop
    1a91:	90                   	nop
    1a92:	90                   	nop
    1a93:	90                   	nop
    1a94:	90                   	nop
    1a95:	90                   	nop
    1a96:	90                   	nop
    1a97:	90                   	nop
    1a98:	90                   	nop
    1a99:	90                   	nop
    1a9a:	90                   	nop
    1a9b:	90                   	nop
    1a9c:	90                   	nop
    1a9d:	90                   	nop
    1a9e:	90                   	nop
    1a9f:	90                   	nop
    1aa0:	90                   	nop
    1aa1:	90                   	nop
    1aa2:	90                   	nop
    1aa3:	90                   	nop
    1aa4:	90                   	nop
    1aa5:	90                   	nop
    1aa6:	90                   	nop
    1aa7:	90                   	nop
    1aa8:	90                   	nop
    1aa9:	90                   	nop
    1aaa:	90                   	nop
    1aab:	90                   	nop
    1aac:	90                   	nop
    1aad:	90                   	nop
    1aae:	90                   	nop
    1aaf:	90                   	nop
    1ab0:	90                   	nop
    1ab1:	90                   	nop
    1ab2:	90                   	nop
    1ab3:	90                   	nop
    1ab4:	90                   	nop
    1ab5:	90                   	nop
    1ab6:	90                   	nop
    1ab7:	90                   	nop
    1ab8:	90                   	nop
    1ab9:	90                   	nop
    1aba:	90                   	nop
    1abb:	90                   	nop
    1abc:	90                   	nop
    1abd:	90                   	nop
    1abe:	90                   	nop
    1abf:	90                   	nop
    1ac0:	90                   	nop
    1ac1:	90                   	nop
    1ac2:	90                   	nop
    1ac3:	90                   	nop
    1ac4:	90                   	nop
    1ac5:	90                   	nop
    1ac6:	90                   	nop
    1ac7:	90                   	nop
    1ac8:	90                   	nop
    1ac9:	90                   	nop
    1aca:	90                   	nop
    1acb:	90                   	nop
    1acc:	90                   	nop
    1acd:	90                   	nop
    1ace:	90                   	nop
    1acf:	90                   	nop
    1ad0:	90                   	nop
    1ad1:	90                   	nop
    1ad2:	90                   	nop
    1ad3:	90                   	nop
    1ad4:	90                   	nop
    1ad5:	90                   	nop
    1ad6:	90                   	nop
    1ad7:	90                   	nop
    1ad8:	90                   	nop
    1ad9:	90                   	nop
    1ada:	90                   	nop
    1adb:	90                   	nop
    1adc:	90                   	nop
    1add:	90                   	nop
    1ade:	90                   	nop
    1adf:	90                   	nop
    1ae0:	90                   	nop
    1ae1:	90                   	nop
    1ae2:	90                   	nop
    1ae3:	90                   	nop
    1ae4:	90                   	nop
    1ae5:	90                   	nop
    1ae6:	90                   	nop
    1ae7:	90                   	nop
    1ae8:	90                   	nop
    1ae9:	90                   	nop
    1aea:	90                   	nop
    1aeb:	90                   	nop
    1aec:	90                   	nop
    1aed:	90                   	nop
    1aee:	90                   	nop
    1aef:	90                   	nop
    1af0:	90                   	nop
    1af1:	90                   	nop
    1af2:	90                   	nop
    1af3:	90                   	nop
    1af4:	90                   	nop
    1af5:	90                   	nop
    1af6:	90                   	nop
    1af7:	90                   	nop
    1af8:	90                   	nop
    1af9:	90                   	nop
    1afa:	90                   	nop
    1afb:	90                   	nop
    1afc:	90                   	nop
    1afd:	90                   	nop
    1afe:	90                   	nop
    1aff:	90                   	nop
    1b00:	90                   	nop
    1b01:	90                   	nop
    1b02:	90                   	nop
    1b03:	90                   	nop
    1b04:	90                   	nop
    1b05:	90                   	nop
    1b06:	90                   	nop
    1b07:	90                   	nop
    1b08:	90                   	nop
    1b09:	90                   	nop
    1b0a:	90                   	nop
    1b0b:	90                   	nop
    1b0c:	90                   	nop
    1b0d:	90                   	nop
    1b0e:	90                   	nop
    1b0f:	90                   	nop
    1b10:	90                   	nop
    1b11:	90                   	nop
    1b12:	90                   	nop
    1b13:	90                   	nop
    1b14:	90                   	nop
    1b15:	90                   	nop
    1b16:	90                   	nop
    1b17:	90                   	nop
    1b18:	90                   	nop
    1b19:	90                   	nop
    1b1a:	90                   	nop
    1b1b:	90                   	nop
    1b1c:	90                   	nop
    1b1d:	90                   	nop
    1b1e:	90                   	nop
    1b1f:	90                   	nop
    1b20:	90                   	nop
    1b21:	90                   	nop
    1b22:	90                   	nop
    1b23:	90                   	nop
    1b24:	90                   	nop
    1b25:	90                   	nop
    1b26:	90                   	nop
    1b27:	90                   	nop
    1b28:	90                   	nop
    1b29:	90                   	nop
    1b2a:	90                   	nop
    1b2b:	90                   	nop
    1b2c:	90                   	nop
    1b2d:	90                   	nop
    1b2e:	90                   	nop
    1b2f:	90                   	nop
    1b30:	90                   	nop
    1b31:	90                   	nop
    1b32:	90                   	nop
    1b33:	90                   	nop
    1b34:	90                   	nop
    1b35:	90                   	nop
    1b36:	90                   	nop
    1b37:	90                   	nop
    1b38:	90                   	nop
    1b39:	90                   	nop
    1b3a:	90                   	nop
    1b3b:	90                   	nop
    1b3c:	90                   	nop
    1b3d:	90                   	nop
    1b3e:	90                   	nop
    1b3f:	90                   	nop
    1b40:	90                   	nop
    1b41:	90                   	nop
    1b42:	0f 01 f9             	rdtscp
    1b45:	48 c1 e2 20          	shl    rdx,0x20
    1b49:	48 89 d6             	mov    rsi,rdx
    1b4c:	09 c6                	or     esi,eax
    1b4e:	8a 05 6c 56 00 00    	mov    al,BYTE PTR [rip+0x566c]        # 71c0 <reg3>
    1b54:	0f 01 f9             	rdtscp
    1b57:	48 c1 e2 20          	shl    rdx,0x20
    1b5b:	09 c2                	or     edx,eax
    1b5d:	48 29 f2             	sub    rdx,rsi
    1b60:	49 89 d0             	mov    r8,rdx
    1b63:	83 e7 03             	and    edi,0x3
    1b66:	0f 95 c2             	setne  dl
    1b69:	49 81 f8 13 01 00 00 	cmp    r8,0x113
    1b70:	0f 96 c0             	setbe  al
    1b73:	38 c2                	cmp    dl,al
    1b75:	0f 94 c0             	sete   al
    1b78:	c3                   	ret
    1b79:	0f 1f 80 00 00 00 00 	nop    DWORD PTR [rax+0x0]
    1b80:	0f ae 3d 39 5e 00 00 	clflush BYTE PTR [rip+0x5e39]        # 79c0 <reg2>
    1b87:	e9 54 fe ff ff       	jmp    19e0 <_Z10do_or_gatej+0x30>
    1b8c:	0f 1f 40 00          	nop    DWORD PTR [rax+0x0]

0000000000001b90 <_Z14do_assign_gatej>:
    1b90:	f3 0f 1e fa          	endbr64
    1b94:	c6 05 25 66 00 00 00 	mov    BYTE PTR [rip+0x6625],0x0        # 81c0 <reg1>
    1b9b:	83 e7 01             	and    edi,0x1
    1b9e:	75 07                	jne    1ba7 <_Z14do_assign_gatej+0x17>
    1ba0:	0f ae 3d 19 66 00 00 	clflush BYTE PTR [rip+0x6619]        # 81c0 <reg1>
    1ba7:	0f ae 3d 12 5e 00 00 	clflush BYTE PTR [rip+0x5e12]        # 79c0 <reg2>
    1bae:	0f ae 3d 0b 56 00 00 	clflush BYTE PTR [rip+0x560b]        # 71c0 <reg3>
    1bb5:	c7 44 24 fc 00 00 00 	mov    DWORD PTR [rsp-0x4],0x0
    1bbc:	00 
    1bbd:	8b 44 24 fc          	mov    eax,DWORD PTR [rsp-0x4]
    1bc1:	3d ff 00 00 00       	cmp    eax,0xff
    1bc6:	7f 1e                	jg     1be6 <_Z14do_assign_gatej+0x56>
    1bc8:	0f 1f 84 00 00 00 00 	nop    DWORD PTR [rax+rax*1+0x0]
    1bcf:	00 
    1bd0:	8b 44 24 fc          	mov    eax,DWORD PTR [rsp-0x4]
    1bd4:	83 c0 01             	add    eax,0x1
    1bd7:	89 44 24 fc          	mov    DWORD PTR [rsp-0x4],eax
    1bdb:	8b 44 24 fc          	mov    eax,DWORD PTR [rsp-0x4]
    1bdf:	3d ff 00 00 00       	cmp    eax,0xff
    1be4:	7e ea                	jle    1bd0 <_Z14do_assign_gatej+0x40>
    1be6:	48 8d 35 d3 65 00 00 	lea    rsi,[rip+0x65d3]        # 81c0 <reg1>
    1bed:	4c 8d 05 cc 5d 00 00 	lea    r8,[rip+0x5dcc]        # 79c0 <reg2>
    1bf4:	4c 8d 0d c5 55 00 00 	lea    r9,[rip+0x55c5]        # 71c0 <reg3>
    1bfb:	48 31 d2             	xor    rdx,rdx
    1bfe:	f6 f2                	div    dl
    1c00:	48 0f b6 0e          	movzx  rcx,BYTE PTR [rsi]
    1c04:	48 89 ca             	mov    rdx,rcx
    1c07:	4c 01 c2             	add    rdx,r8
    1c0a:	8a 12                	mov    dl,BYTE PTR [rdx]
    1c0c:	4c 01 c9             	add    rcx,r9
    1c0f:	8a 09                	mov    cl,BYTE PTR [rcx]
    1c11:	90                   	nop
    1c12:	90                   	nop
    1c13:	90                   	nop
    1c14:	90                   	nop
    1c15:	90                   	nop
    1c16:	90                   	nop
    1c17:	90                   	nop
    1c18:	90                   	nop
    1c19:	90                   	nop
    1c1a:	90                   	nop
    1c1b:	90                   	nop
    1c1c:	90                   	nop
    1c1d:	90                   	nop
    1c1e:	90                   	nop
    1c1f:	90                   	nop
    1c20:	90                   	nop
    1c21:	90                   	nop
    1c22:	90                   	nop
    1c23:	90                   	nop
    1c24:	90                   	nop
    1c25:	90                   	nop
    1c26:	90                   	nop
    1c27:	90                   	nop
    1c28:	90                   	nop
    1c29:	90                   	nop
    1c2a:	90                   	nop
    1c2b:	90                   	nop
    1c2c:	90                   	nop
    1c2d:	90                   	nop
    1c2e:	90                   	nop
    1c2f:	90                   	nop
    1c30:	90                   	nop
    1c31:	90                   	nop
    1c32:	90                   	nop
    1c33:	90                   	nop
    1c34:	90                   	nop
    1c35:	90                   	nop
    1c36:	90                   	nop
    1c37:	90                   	nop
    1c38:	90                   	nop
    1c39:	90                   	nop
    1c3a:	90                   	nop
    1c3b:	90                   	nop
    1c3c:	90                   	nop
    1c3d:	90                   	nop
    1c3e:	90                   	nop
    1c3f:	90                   	nop
    1c40:	90                   	nop
    1c41:	90                   	nop
    1c42:	90                   	nop
    1c43:	90                   	nop
    1c44:	90                   	nop
    1c45:	90                   	nop
    1c46:	90                   	nop
    1c47:	90                   	nop
    1c48:	90                   	nop
    1c49:	90                   	nop
    1c4a:	90                   	nop
    1c4b:	90                   	nop
    1c4c:	90                   	nop
    1c4d:	90                   	nop
    1c4e:	90                   	nop
    1c4f:	90                   	nop
    1c50:	90                   	nop
    1c51:	90                   	nop
    1c52:	90                   	nop
    1c53:	90                   	nop
    1c54:	90                   	nop
    1c55:	90                   	nop
    1c56:	90                   	nop
    1c57:	90                   	nop
    1c58:	90                   	nop
    1c59:	90                   	nop
    1c5a:	90                   	nop
    1c5b:	90                   	nop
    1c5c:	90                   	nop
    1c5d:	90                   	nop
    1c5e:	90                   	nop
    1c5f:	90                   	nop
    1c60:	90                   	nop
    1c61:	90                   	nop
    1c62:	90                   	nop
    1c63:	90                   	nop
    1c64:	90                   	nop
    1c65:	90                   	nop
    1c66:	90                   	nop
    1c67:	90                   	nop
    1c68:	90                   	nop
    1c69:	90                   	nop
    1c6a:	90                   	nop
    1c6b:	90                   	nop
    1c6c:	90                   	nop
    1c6d:	90                   	nop
    1c6e:	90                   	nop
    1c6f:	90                   	nop
    1c70:	90                   	nop
    1c71:	90                   	nop
    1c72:	90                   	nop
    1c73:	90                   	nop
    1c74:	90                   	nop
    1c75:	90                   	nop
    1c76:	90                   	nop
    1c77:	90                   	nop
    1c78:	90                   	nop
    1c79:	90                   	nop
    1c7a:	90                   	nop
    1c7b:	90                   	nop
    1c7c:	90                   	nop
    1c7d:	90                   	nop
    1c7e:	90                   	nop
    1c7f:	90                   	nop
    1c80:	90                   	nop
    1c81:	90                   	nop
    1c82:	90                   	nop
    1c83:	90                   	nop
    1c84:	90                   	nop
    1c85:	90                   	nop
    1c86:	90                   	nop
    1c87:	90                   	nop
    1c88:	90                   	nop
    1c89:	90                   	nop
    1c8a:	90                   	nop
    1c8b:	90                   	nop
    1c8c:	90                   	nop
    1c8d:	90                   	nop
    1c8e:	90                   	nop
    1c8f:	90                   	nop
    1c90:	90                   	nop
    1c91:	90                   	nop
    1c92:	90                   	nop
    1c93:	90                   	nop
    1c94:	90                   	nop
    1c95:	90                   	nop
    1c96:	90                   	nop
    1c97:	90                   	nop
    1c98:	90                   	nop
    1c99:	90                   	nop
    1c9a:	90                   	nop
    1c9b:	90                   	nop
    1c9c:	90                   	nop
    1c9d:	90                   	nop
    1c9e:	90                   	nop
    1c9f:	90                   	nop
    1ca0:	90                   	nop
    1ca1:	90                   	nop
    1ca2:	90                   	nop
    1ca3:	90                   	nop
    1ca4:	90                   	nop
    1ca5:	90                   	nop
    1ca6:	90                   	nop
    1ca7:	90                   	nop
    1ca8:	90                   	nop
    1ca9:	90                   	nop
    1caa:	90                   	nop
    1cab:	90                   	nop
    1cac:	90                   	nop
    1cad:	90                   	nop
    1cae:	90                   	nop
    1caf:	90                   	nop
    1cb0:	90                   	nop
    1cb1:	90                   	nop
    1cb2:	90                   	nop
    1cb3:	90                   	nop
    1cb4:	90                   	nop
    1cb5:	90                   	nop
    1cb6:	90                   	nop
    1cb7:	90                   	nop
    1cb8:	90                   	nop
    1cb9:	90                   	nop
    1cba:	90                   	nop
    1cbb:	90                   	nop
    1cbc:	90                   	nop
    1cbd:	90                   	nop
    1cbe:	90                   	nop
    1cbf:	90                   	nop
    1cc0:	90                   	nop
    1cc1:	90                   	nop
    1cc2:	90                   	nop
    1cc3:	90                   	nop
    1cc4:	90                   	nop
    1cc5:	90                   	nop
    1cc6:	90                   	nop
    1cc7:	90                   	nop
    1cc8:	90                   	nop
    1cc9:	90                   	nop
    1cca:	90                   	nop
    1ccb:	90                   	nop
    1ccc:	90                   	nop
    1ccd:	90                   	nop
    1cce:	90                   	nop
    1ccf:	90                   	nop
    1cd0:	90                   	nop
    1cd1:	90                   	nop
    1cd2:	90                   	nop
    1cd3:	90                   	nop
    1cd4:	90                   	nop
    1cd5:	90                   	nop
    1cd6:	90                   	nop
    1cd7:	90                   	nop
    1cd8:	90                   	nop
    1cd9:	90                   	nop
    1cda:	90                   	nop
    1cdb:	90                   	nop
    1cdc:	90                   	nop
    1cdd:	90                   	nop
    1cde:	90                   	nop
    1cdf:	90                   	nop
    1ce0:	90                   	nop
    1ce1:	90                   	nop
    1ce2:	90                   	nop
    1ce3:	90                   	nop
    1ce4:	90                   	nop
    1ce5:	90                   	nop
    1ce6:	90                   	nop
    1ce7:	90                   	nop
    1ce8:	90                   	nop
    1ce9:	90                   	nop
    1cea:	90                   	nop
    1ceb:	90                   	nop
    1cec:	90                   	nop
    1ced:	90                   	nop
    1cee:	90                   	nop
    1cef:	90                   	nop
    1cf0:	90                   	nop
    1cf1:	90                   	nop
    1cf2:	90                   	nop
    1cf3:	90                   	nop
    1cf4:	90                   	nop
    1cf5:	90                   	nop
    1cf6:	90                   	nop
    1cf7:	90                   	nop
    1cf8:	90                   	nop
    1cf9:	90                   	nop
    1cfa:	90                   	nop
    1cfb:	90                   	nop
    1cfc:	90                   	nop
    1cfd:	90                   	nop
    1cfe:	90                   	nop
    1cff:	90                   	nop
    1d00:	90                   	nop
    1d01:	90                   	nop
    1d02:	90                   	nop
    1d03:	90                   	nop
    1d04:	90                   	nop
    1d05:	90                   	nop
    1d06:	90                   	nop
    1d07:	90                   	nop
    1d08:	90                   	nop
    1d09:	90                   	nop
    1d0a:	90                   	nop
    1d0b:	90                   	nop
    1d0c:	90                   	nop
    1d0d:	90                   	nop
    1d0e:	90                   	nop
    1d0f:	90                   	nop
    1d10:	90                   	nop
    1d11:	0f 01 f9             	rdtscp
    1d14:	48 c1 e2 20          	shl    rdx,0x20
    1d18:	48 89 d6             	mov    rsi,rdx
    1d1b:	09 c6                	or     esi,eax
    1d1d:	8a 05 9d 5c 00 00    	mov    al,BYTE PTR [rip+0x5c9d]        # 79c0 <reg2>
    1d23:	0f 01 f9             	rdtscp
    1d26:	48 c1 e2 20          	shl    rdx,0x20
    1d2a:	09 c2                	or     edx,eax
    1d2c:	48 29 f2             	sub    rdx,rsi
    1d2f:	49 89 d0             	mov    r8,rdx
    1d32:	0f 01 f9             	rdtscp
    1d35:	48 c1 e2 20          	shl    rdx,0x20
    1d39:	48 89 d6             	mov    rsi,rdx
    1d3c:	09 c6                	or     esi,eax
    1d3e:	8a 05 7c 54 00 00    	mov    al,BYTE PTR [rip+0x547c]        # 71c0 <reg3>
    1d44:	0f 01 f9             	rdtscp
    1d47:	48 c1 e2 20          	shl    rdx,0x20
    1d4b:	09 c2                	or     edx,eax
    1d4d:	48 29 f2             	sub    rdx,rsi
    1d50:	49 89 d1             	mov    r9,rdx
    1d53:	31 d2                	xor    edx,edx
    1d55:	49 81 f8 13 01 00 00 	cmp    r8,0x113
    1d5c:	0f 96 c2             	setbe  dl
    1d5f:	31 c0                	xor    eax,eax
    1d61:	39 fa                	cmp    edx,edi
    1d63:	74 0b                	je     1d70 <_Z14do_assign_gatej+0x1e0>
    1d65:	c3                   	ret
    1d66:	66 2e 0f 1f 84 00 00 	cs nop WORD PTR [rax+rax*1+0x0]
    1d6d:	00 00 00 
    1d70:	31 c0                	xor    eax,eax
    1d72:	49 81 f9 13 01 00 00 	cmp    r9,0x113
    1d79:	0f 96 c0             	setbe  al
    1d7c:	39 f8                	cmp    eax,edi
    1d7e:	0f 94 c0             	sete   al
    1d81:	c3                   	ret
    1d82:	66 66 2e 0f 1f 84 00 	data16 cs nop WORD PTR [rax+rax*1+0x0]
    1d89:	00 00 00 00 
    1d8d:	0f 1f 00             	nop    DWORD PTR [rax]

0000000000001d90 <_Z12do_nand_gatej>:
    1d90:	f3 0f 1e fa          	endbr64
    1d94:	53                   	push   rbx
    1d95:	89 fb                	mov    ebx,edi
    1d97:	48 83 ec 10          	sub    rsp,0x10
    1d9b:	83 e7 01             	and    edi,0x1
    1d9e:	c6 05 1b 64 00 00 00 	mov    BYTE PTR [rip+0x641b],0x0        # 81c0 <reg1>
    1da5:	c6 05 14 5c 00 00 00 	mov    BYTE PTR [rip+0x5c14],0x0        # 79c0 <reg2>
    1dac:	c6 05 0d 54 00 00 00 	mov    BYTE PTR [rip+0x540d],0x0        # 71c0 <reg3>
    1db3:	75 07                	jne    1dbc <_Z12do_nand_gatej+0x2c>
    1db5:	0f ae 3d 04 64 00 00 	clflush BYTE PTR [rip+0x6404]        # 81c0 <reg1>
    1dbc:	f6 c3 02             	test   bl,0x2
    1dbf:	0f 84 cb 00 00 00    	je     1e90 <_Z12do_nand_gatej+0x100>
    1dc5:	c6 05 f4 5b 00 00 00 	mov    BYTE PTR [rip+0x5bf4],0x0        # 79c0 <reg2>
    1dcc:	0f ae 3d ed 53 00 00 	clflush BYTE PTR [rip+0x53ed]        # 71c0 <reg3>
    1dd3:	c7 44 24 08 00 00 00 	mov    DWORD PTR [rsp+0x8],0x0
    1dda:	00 
    1ddb:	8b 44 24 08          	mov    eax,DWORD PTR [rsp+0x8]
    1ddf:	3d ff 00 00 00       	cmp    eax,0xff
    1de4:	7f 20                	jg     1e06 <_Z12do_nand_gatej+0x76>
    1de6:	66 2e 0f 1f 84 00 00 	cs nop WORD PTR [rax+rax*1+0x0]
    1ded:	00 00 00 
    1df0:	8b 44 24 08          	mov    eax,DWORD PTR [rsp+0x8]
    1df4:	83 c0 01             	add    eax,0x1
    1df7:	89 44 24 08          	mov    DWORD PTR [rsp+0x8],eax
    1dfb:	8b 44 24 08          	mov    eax,DWORD PTR [rsp+0x8]
    1dff:	3d ff 00 00 00       	cmp    eax,0xff
    1e04:	7e ea                	jle    1df0 <_Z12do_nand_gatej+0x60>
    1e06:	48 8d 15 b3 53 00 00 	lea    rdx,[rip+0x53b3]        # 71c0 <reg3>
    1e0d:	48 8d 35 ac 5b 00 00 	lea    rsi,[rip+0x5bac]        # 79c0 <reg2>
    1e14:	48 8d 3d a5 63 00 00 	lea    rdi,[rip+0x63a5]        # 81c0 <reg1>
    1e1b:	e8 c0 09 00 00       	call   27e0 <_Z9nand_gatePhS_S_>
    1e20:	c7 44 24 0c 00 00 00 	mov    DWORD PTR [rsp+0xc],0x0
    1e27:	00 
    1e28:	8b 44 24 0c          	mov    eax,DWORD PTR [rsp+0xc]
    1e2c:	3d ff 00 00 00       	cmp    eax,0xff
    1e31:	7f 1b                	jg     1e4e <_Z12do_nand_gatej+0xbe>
    1e33:	0f 1f 44 00 00       	nop    DWORD PTR [rax+rax*1+0x0]
    1e38:	8b 44 24 0c          	mov    eax,DWORD PTR [rsp+0xc]
    1e3c:	83 c0 01             	add    eax,0x1
    1e3f:	89 44 24 0c          	mov    DWORD PTR [rsp+0xc],eax
    1e43:	8b 44 24 0c          	mov    eax,DWORD PTR [rsp+0xc]
    1e47:	3d ff 00 00 00       	cmp    eax,0xff
    1e4c:	7e ea                	jle    1e38 <_Z12do_nand_gatej+0xa8>
    1e4e:	0f 01 f9             	rdtscp
    1e51:	48 c1 e2 20          	shl    rdx,0x20
    1e55:	48 89 d6             	mov    rsi,rdx
    1e58:	09 c6                	or     esi,eax
    1e5a:	8a 05 60 53 00 00    	mov    al,BYTE PTR [rip+0x5360]        # 71c0 <reg3>
    1e60:	0f 01 f9             	rdtscp
    1e63:	48 c1 e2 20          	shl    rdx,0x20
    1e67:	09 c2                	or     edx,eax
    1e69:	48 29 f2             	sub    rdx,rsi
    1e6c:	48 89 d7             	mov    rdi,rdx
    1e6f:	f7 d3                	not    ebx
    1e71:	83 e3 03             	and    ebx,0x3
    1e74:	0f 95 c2             	setne  dl
    1e77:	48 81 ff 13 01 00 00 	cmp    rdi,0x113
    1e7e:	0f 96 c0             	setbe  al
    1e81:	38 c2                	cmp    dl,al
    1e83:	0f 94 c0             	sete   al
    1e86:	48 83 c4 10          	add    rsp,0x10
    1e8a:	5b                   	pop    rbx
    1e8b:	c3                   	ret
    1e8c:	0f 1f 40 00          	nop    DWORD PTR [rax+0x0]
    1e90:	0f ae 3d 29 5b 00 00 	clflush BYTE PTR [rip+0x5b29]        # 79c0 <reg2>
    1e97:	e9 30 ff ff ff       	jmp    1dcc <_Z12do_nand_gatej+0x3c>
    1e9c:	0f 1f 40 00          	nop    DWORD PTR [rax+0x0]

0000000000001ea0 <_Z11do_mux_gatej>:
    1ea0:	f3 0f 1e fa          	endbr64
    1ea4:	41 54                	push   r12
    1ea6:	41 89 fc             	mov    r12d,edi
    1ea9:	41 89 f8             	mov    r8d,edi
    1eac:	55                   	push   rbp
    1ead:	53                   	push   rbx
    1eae:	48 83 ec 10          	sub    rsp,0x10
    1eb2:	c6 05 07 63 00 00 00 	mov    BYTE PTR [rip+0x6307],0x0        # 81c0 <reg1>
    1eb9:	c6 05 00 5b 00 00 00 	mov    BYTE PTR [rip+0x5b00],0x0        # 79c0 <reg2>
    1ec0:	c6 05 f9 52 00 00 00 	mov    BYTE PTR [rip+0x52f9],0x0        # 71c0 <reg3>
    1ec7:	c6 05 f2 4a 00 00 00 	mov    BYTE PTR [rip+0x4af2],0x0        # 69c0 <reg4>
    1ece:	41 83 e4 01          	and    r12d,0x1
    1ed2:	75 07                	jne    1edb <_Z11do_mux_gatej+0x3b>
    1ed4:	0f ae 3d e5 62 00 00 	clflush BYTE PTR [rip+0x62e5]        # 81c0 <reg1>
    1edb:	44 89 c5             	mov    ebp,r8d
    1ede:	83 e5 02             	and    ebp,0x2
    1ee1:	0f 84 c9 00 00 00    	je     1fb0 <_Z11do_mux_gatej+0x110>
    1ee7:	c6 05 d2 5a 00 00 00 	mov    BYTE PTR [rip+0x5ad2],0x0        # 79c0 <reg2>
    1eee:	44 89 c3             	mov    ebx,r8d
    1ef1:	83 e3 04             	and    ebx,0x4
    1ef4:	0f 84 a6 00 00 00    	je     1fa0 <_Z11do_mux_gatej+0x100>
    1efa:	c6 05 bf 52 00 00 00 	mov    BYTE PTR [rip+0x52bf],0x0        # 71c0 <reg3>
    1f01:	0f ae 3d b8 4a 00 00 	clflush BYTE PTR [rip+0x4ab8]        # 69c0 <reg4>
    1f08:	48 8d 0d b1 4a 00 00 	lea    rcx,[rip+0x4ab1]        # 69c0 <reg4>
    1f0f:	48 8d 15 aa 52 00 00 	lea    rdx,[rip+0x52aa]        # 71c0 <reg3>
    1f16:	48 8d 35 a3 5a 00 00 	lea    rsi,[rip+0x5aa3]        # 79c0 <reg2>
    1f1d:	48 8d 3d 9c 62 00 00 	lea    rdi,[rip+0x629c]        # 81c0 <reg1>
    1f24:	e8 f7 0f 00 00       	call   2f20 <_Z8mux_gatePhS_S_S_j>
    1f29:	c7 44 24 0c 00 00 00 	mov    DWORD PTR [rsp+0xc],0x0
    1f30:	00 
    1f31:	8b 44 24 0c          	mov    eax,DWORD PTR [rsp+0xc]
    1f35:	3d ff 00 00 00       	cmp    eax,0xff
    1f3a:	7f 1a                	jg     1f56 <_Z11do_mux_gatej+0xb6>
    1f3c:	0f 1f 40 00          	nop    DWORD PTR [rax+0x0]
    1f40:	8b 44 24 0c          	mov    eax,DWORD PTR [rsp+0xc]
    1f44:	83 c0 01             	add    eax,0x1
    1f47:	89 44 24 0c          	mov    DWORD PTR [rsp+0xc],eax
    1f4b:	8b 44 24 0c          	mov    eax,DWORD PTR [rsp+0xc]
    1f4f:	3d ff 00 00 00       	cmp    eax,0xff
    1f54:	7e ea                	jle    1f40 <_Z11do_mux_gatej+0xa0>
    1f56:	0f 01 f9             	rdtscp
    1f59:	48 c1 e2 20          	shl    rdx,0x20
    1f5d:	48 89 d6             	mov    rsi,rdx
    1f60:	09 c6                	or     esi,eax
    1f62:	8a 05 58 4a 00 00    	mov    al,BYTE PTR [rip+0x4a58]        # 69c0 <reg4>
    1f68:	0f 01 f9             	rdtscp
    1f6b:	48 c1 e2 20          	shl    rdx,0x20
    1f6f:	09 c2                	or     edx,eax
    1f71:	48 29 f2             	sub    rdx,rsi
    1f74:	48 89 d7             	mov    rdi,rdx
    1f77:	31 c0                	xor    eax,eax
    1f79:	48 81 ff 13 01 00 00 	cmp    rdi,0x113
    1f80:	0f 96 c0             	setbe  al
    1f83:	85 db                	test   ebx,ebx
    1f85:	74 09                	je     1f90 <_Z11do_mux_gatej+0xf0>
    1f87:	45 31 e4             	xor    r12d,r12d
    1f8a:	85 ed                	test   ebp,ebp
    1f8c:	41 0f 95 c4          	setne  r12b
    1f90:	44 39 e0             	cmp    eax,r12d
    1f93:	0f 94 c0             	sete   al
    1f96:	48 83 c4 10          	add    rsp,0x10
    1f9a:	5b                   	pop    rbx
    1f9b:	5d                   	pop    rbp
    1f9c:	41 5c                	pop    r12
    1f9e:	c3                   	ret
    1f9f:	90                   	nop
    1fa0:	0f ae 3d 19 52 00 00 	clflush BYTE PTR [rip+0x5219]        # 71c0 <reg3>
    1fa7:	e9 55 ff ff ff       	jmp    1f01 <_Z11do_mux_gatej+0x61>
    1fac:	0f 1f 40 00          	nop    DWORD PTR [rax+0x0]
    1fb0:	0f ae 3d 09 5a 00 00 	clflush BYTE PTR [rip+0x5a09]        # 79c0 <reg2>
    1fb7:	e9 32 ff ff ff       	jmp    1eee <_Z11do_mux_gatej+0x4e>
    1fbc:	0f 1f 40 00          	nop    DWORD PTR [rax+0x0]

0000000000001fc0 <_Z12calc_avg_stdRSt6vectorIjSaIjEES2_j>:
    1fc0:	f3 0f 1e fa          	endbr64
    1fc4:	41 57                	push   r15
    1fc6:	89 d1                	mov    ecx,edx
    1fc8:	66 0f ef c0          	pxor   xmm0,xmm0
    1fcc:	41 89 d7             	mov    r15d,edx
    1fcf:	41 56                	push   r14
    1fd1:	41 55                	push   r13
    1fd3:	41 54                	push   r12
    1fd5:	49 89 f4             	mov    r12,rsi
    1fd8:	55                   	push   rbp
    1fd9:	53                   	push   rbx
    1fda:	48 83 ec 68          	sub    rsp,0x68
    1fde:	48 89 7c 24 08       	mov    QWORD PTR [rsp+0x8],rdi
    1fe3:	64 48 8b 04 25 28 00 	mov    rax,QWORD PTR fs:0x28
    1fea:	00 00 
    1fec:	48 89 44 24 58       	mov    QWORD PTR [rsp+0x58],rax
    1ff1:	b8 01 00 00 00       	mov    eax,0x1
    1ff6:	0f 11 44 24 28       	movups XMMWORD PTR [rsp+0x28],xmm0
    1ffb:	d3 e0                	shl    eax,cl
    1ffd:	41 89 c6             	mov    r14d,eax
    2000:	4c 89 74 24 10       	mov    QWORD PTR [rsp+0x10],r14
    2005:	4c 89 f3             	mov    rbx,r14
    2008:	4d 85 f6             	test   r14,r14
    200b:	0f 84 6a 03 00 00    	je     237b <_Z12calc_avg_stdRSt6vectorIjSaIjEES2_j+0x3bb>
    2011:	4e 8d 2c f5 00 00 00 	lea    r13,[r14*8+0x0]
    2018:	00 
    2019:	4c 89 ef             	mov    rdi,r13
    201c:	e8 2f f1 ff ff       	call   1150 <_Znwm@plt>
    2021:	4c 89 ea             	mov    rdx,r13
    2024:	31 f6                	xor    esi,esi
    2026:	4e 8d 2c 28          	lea    r13,[rax+r13*1]
    202a:	48 89 c7             	mov    rdi,rax
    202d:	48 89 44 24 20       	mov    QWORD PTR [rsp+0x20],rax
    2032:	48 89 c5             	mov    rbp,rax
    2035:	4c 89 6c 24 30       	mov    QWORD PTR [rsp+0x30],r13
    203a:	48 89 54 24 10       	mov    QWORD PTR [rsp+0x10],rdx
    203f:	e8 dc f0 ff ff       	call   1120 <memset@plt>
    2044:	48 8b 7c 24 10       	mov    rdi,QWORD PTR [rsp+0x10]
    2049:	66 0f ef c0          	pxor   xmm0,xmm0
    204d:	4c 89 6c 24 28       	mov    QWORD PTR [rsp+0x28],r13
    2052:	0f 11 44 24 48       	movups XMMWORD PTR [rsp+0x48],xmm0
    2057:	e8 f4 f0 ff ff       	call   1150 <_Znwm@plt>
    205c:	48 8b 54 24 10       	mov    rdx,QWORD PTR [rsp+0x10]
    2061:	31 f6                	xor    esi,esi
    2063:	48 89 c7             	mov    rdi,rax
    2066:	48 89 44 24 40       	mov    QWORD PTR [rsp+0x40],rax
    206b:	49 89 c5             	mov    r13,rax
    206e:	48 8d 0c 10          	lea    rcx,[rax+rdx*1]
    2072:	48 89 4c 24 50       	mov    QWORD PTR [rsp+0x50],rcx
    2077:	48 89 4c 24 18       	mov    QWORD PTR [rsp+0x18],rcx
    207c:	e8 9f f0 ff ff       	call   1120 <memset@plt>
    2081:	48 8b 4c 24 18       	mov    rcx,QWORD PTR [rsp+0x18]
    2086:	8b 05 d8 3f 00 00    	mov    eax,DWORD PTR [rip+0x3fd8]        # 6064 <tot_trials>
    208c:	48 89 4c 24 48       	mov    QWORD PTR [rsp+0x48],rcx
    2091:	85 c0                	test   eax,eax
    2093:	0f 84 64 03 00 00    	je     23fd <_Z12calc_avg_stdRSt6vectorIjSaIjEES2_j+0x43d>
    2099:	48 8b 7c 24 08       	mov    rdi,QWORD PTR [rsp+0x8]
    209e:	45 31 c9             	xor    r9d,r9d
    20a1:	66 0f ef c0          	pxor   xmm0,xmm0
    20a5:	44 89 f9             	mov    ecx,r15d
    20a8:	48 8b 37             	mov    rsi,QWORD PTR [rdi]
    20ab:	89 c7                	mov    edi,eax
    20ad:	0f 1f 00             	nop    DWORD PTR [rax]
    20b0:	42 8b 14 8e          	mov    edx,DWORD PTR [rsi+r9*4]
    20b4:	66 0f ef c9          	pxor   xmm1,xmm1
    20b8:	f2 48 0f 2a ca       	cvtsi2sd xmm1,rdx
    20bd:	f2 0f 58 c1          	addsd  xmm0,xmm1
    20c1:	85 db                	test   ebx,ebx
    20c3:	74 3b                	je     2100 <_Z12calc_avg_stdRSt6vectorIjSaIjEES2_j+0x140>
    20c5:	44 89 ca             	mov    edx,r9d
    20c8:	4d 8b 1c 24          	mov    r11,QWORD PTR [r12]
    20cc:	49 89 e8             	mov    r8,rbp
    20cf:	d3 e2                	shl    edx,cl
    20d1:	44 8d 14 1a          	lea    r10d,[rdx+rbx*1]
    20d5:	0f 1f 00             	nop    DWORD PTR [rax]
    20d8:	41 89 d7             	mov    r15d,edx
    20db:	66 0f ef c9          	pxor   xmm1,xmm1
    20df:	83 c2 01             	add    edx,0x1
    20e2:	49 83 c0 08          	add    r8,0x8
    20e6:	47 8b 3c bb          	mov    r15d,DWORD PTR [r11+r15*4]
    20ea:	f2 49 0f 2a cf       	cvtsi2sd xmm1,r15
    20ef:	f2 41 0f 58 48 f8    	addsd  xmm1,QWORD PTR [r8-0x8]
    20f5:	f2 41 0f 11 48 f8    	movsd  QWORD PTR [r8-0x8],xmm1
    20fb:	41 39 d2             	cmp    r10d,edx
    20fe:	75 d8                	jne    20d8 <_Z12calc_avg_stdRSt6vectorIjSaIjEES2_j+0x118>
    2100:	49 83 c1 01          	add    r9,0x1
    2104:	4c 39 cf             	cmp    rdi,r9
    2107:	75 a7                	jne    20b0 <_Z12calc_avg_stdRSt6vectorIjSaIjEES2_j+0xf0>
    2109:	66 0f ef e4          	pxor   xmm4,xmm4
    210d:	66 0f 28 d8          	movapd xmm3,xmm0
    2111:	41 89 cf             	mov    r15d,ecx
    2114:	f2 0f 2a e0          	cvtsi2sd xmm4,eax
    2118:	f2 0f 5e dc          	divsd  xmm3,xmm4
    211c:	85 db                	test   ebx,ebx
    211e:	74 3c                	je     215c <_Z12calc_avg_stdRSt6vectorIjSaIjEES2_j+0x19c>
    2120:	31 d2                	xor    edx,edx
    2122:	66 0f 1f 44 00 00    	nop    WORD PTR [rax+rax*1+0x0]
    2128:	f2 0f 10 4c d5 00    	movsd  xmm1,QWORD PTR [rbp+rdx*8+0x0]
    212e:	48 c7 44 d5 00 00 00 	mov    QWORD PTR [rbp+rdx*8+0x0],0x0
    2135:	00 00 
    2137:	f2 0f 5e cc          	divsd  xmm1,xmm4
    213b:	f2 41 0f 11 4c d5 00 	movsd  QWORD PTR [r13+rdx*8+0x0],xmm1
    2142:	48 83 c2 01          	add    rdx,0x1
    2146:	39 da                	cmp    edx,ebx
    2148:	72 de                	jb     2128 <_Z12calc_avg_stdRSt6vectorIjSaIjEES2_j+0x168>
    214a:	85 c0                	test   eax,eax
    214c:	0f 84 d4 02 00 00    	je     2426 <_Z12calc_avg_stdRSt6vectorIjSaIjEES2_j+0x466>
    2152:	48 8b 74 24 08       	mov    rsi,QWORD PTR [rsp+0x8]
    2157:	89 c7                	mov    edi,eax
    2159:	48 8b 36             	mov    rsi,QWORD PTR [rsi]
    215c:	45 31 c0             	xor    r8d,r8d
    215f:	66 0f ef c0          	pxor   xmm0,xmm0
    2163:	44 89 f9             	mov    ecx,r15d
    2166:	66 2e 0f 1f 84 00 00 	cs nop WORD PTR [rax+rax*1+0x0]
    216d:	00 00 00 
    2170:	42 8b 04 86          	mov    eax,DWORD PTR [rsi+r8*4]
    2174:	66 0f ef d2          	pxor   xmm2,xmm2
    2178:	f2 48 0f 2a d0       	cvtsi2sd xmm2,rax
    217d:	f2 0f 5c d3          	subsd  xmm2,xmm3
    2181:	f2 0f 59 d2          	mulsd  xmm2,xmm2
    2185:	f2 0f 58 c2          	addsd  xmm0,xmm2
    2189:	85 db                	test   ebx,ebx
    218b:	74 44                	je     21d1 <_Z12calc_avg_stdRSt6vectorIjSaIjEES2_j+0x211>
    218d:	45 89 c1             	mov    r9d,r8d
    2190:	49 8b 14 24          	mov    rdx,QWORD PTR [r12]
    2194:	31 c0                	xor    eax,eax
    2196:	41 d3 e1             	shl    r9d,cl
    2199:	0f 1f 80 00 00 00 00 	nop    DWORD PTR [rax+0x0]
    21a0:	45 8d 14 01          	lea    r10d,[r9+rax*1]
    21a4:	66 0f ef d2          	pxor   xmm2,xmm2
    21a8:	46 8b 14 92          	mov    r10d,DWORD PTR [rdx+r10*4]
    21ac:	f2 49 0f 2a d2       	cvtsi2sd xmm2,r10
    21b1:	f2 41 0f 5c 54 c5 00 	subsd  xmm2,QWORD PTR [r13+rax*8+0x0]
    21b8:	f2 0f 59 d2          	mulsd  xmm2,xmm2
    21bc:	f2 0f 58 54 c5 00    	addsd  xmm2,QWORD PTR [rbp+rax*8+0x0]
    21c2:	f2 0f 11 54 c5 00    	movsd  QWORD PTR [rbp+rax*8+0x0],xmm2
    21c8:	48 83 c0 01          	add    rax,0x1
    21cc:	49 39 c6             	cmp    r14,rax
    21cf:	75 cf                	jne    21a0 <_Z12calc_avg_stdRSt6vectorIjSaIjEES2_j+0x1e0>
    21d1:	49 83 c0 01          	add    r8,0x1
    21d5:	4c 39 c7             	cmp    rdi,r8
    21d8:	75 96                	jne    2170 <_Z12calc_avg_stdRSt6vectorIjSaIjEES2_j+0x1b0>
    21da:	f2 0f 5e c4          	divsd  xmm0,xmm4
    21de:	66 0f ef c9          	pxor   xmm1,xmm1
    21e2:	41 89 cf             	mov    r15d,ecx
    21e5:	66 0f 2e c8          	ucomisd xmm1,xmm0
    21e9:	0f 87 56 02 00 00    	ja     2445 <_Z12calc_avg_stdRSt6vectorIjSaIjEES2_j+0x485>
    21ef:	f2 0f 51 c0          	sqrtsd xmm0,xmm0
    21f3:	8b 05 67 3e 00 00    	mov    eax,DWORD PTR [rip+0x3e67]        # 6060 <single_trial>
    21f9:	66 0f ef c9          	pxor   xmm1,xmm1
    21fd:	48 8d 35 04 1e 00 00 	lea    rsi,[rip+0x1e04]        # 4008 <_IO_stdin_used+0x8>
    2204:	bf 02 00 00 00       	mov    edi,0x2
    2209:	f2 0f 59 1d b7 1f 00 	mulsd  xmm3,QWORD PTR [rip+0x1fb7]        # 41c8 <_IO_stdin_used+0x1c8>
    2210:	00 
    2211:	f2 48 0f 2a c8       	cvtsi2sd xmm1,rax
    2216:	b8 02 00 00 00       	mov    eax,0x2
    221b:	f2 0f 5e d9          	divsd  xmm3,xmm1
    221f:	f2 0f 5e c1          	divsd  xmm0,xmm1
    2223:	66 0f 28 c8          	movapd xmm1,xmm0
    2227:	66 0f 28 c3          	movapd xmm0,xmm3
    222b:	e8 d0 ee ff ff       	call   1100 <__printf_chk@plt>
    2230:	80 3d 89 67 00 00 00 	cmp    BYTE PTR [rip+0x6789],0x0        # 89c0 <verbose>
    2237:	0f 84 d5 01 00 00    	je     2412 <_Z12calc_avg_stdRSt6vectorIjSaIjEES2_j+0x452>
    223d:	48 c7 44 24 08 00 00 	mov    QWORD PTR [rsp+0x8],0x0
    2244:	00 00 
    2246:	85 db                	test   ebx,ebx
    2248:	0f 84 82 01 00 00    	je     23d0 <_Z12calc_avg_stdRSt6vectorIjSaIjEES2_j+0x410>
    224e:	66 90                	xchg   ax,ax
    2250:	48 8b 44 24 08       	mov    rax,QWORD PTR [rsp+0x8]
    2255:	48 8d 35 9d 1e 00 00 	lea    rsi,[rip+0x1e9d]        # 40f9 <_IO_stdin_used+0xf9>
    225c:	bf 02 00 00 00       	mov    edi,0x2
    2261:	89 c2                	mov    edx,eax
    2263:	41 89 c4             	mov    r12d,eax
    2266:	31 c0                	xor    eax,eax
    2268:	83 e2 01             	and    edx,0x1
    226b:	e8 90 ee ff ff       	call   1100 <__printf_chk@plt>
    2270:	bb 01 00 00 00       	mov    ebx,0x1
    2275:	41 83 ff 01          	cmp    r15d,0x1
    2279:	76 2e                	jbe    22a9 <_Z12calc_avg_stdRSt6vectorIjSaIjEES2_j+0x2e9>
    227b:	0f 1f 44 00 00       	nop    DWORD PTR [rax+rax*1+0x0]
    2280:	89 d9                	mov    ecx,ebx
    2282:	ba 01 00 00 00       	mov    edx,0x1
    2287:	48 8d 35 91 1e 00 00 	lea    rsi,[rip+0x1e91]        # 411f <_IO_stdin_used+0x11f>
    228e:	31 c0                	xor    eax,eax
    2290:	d3 e2                	shl    edx,cl
    2292:	bf 02 00 00 00       	mov    edi,0x2
    2297:	44 21 e2             	and    edx,r12d
    229a:	d3 fa                	sar    edx,cl
    229c:	e8 5f ee ff ff       	call   1100 <__printf_chk@plt>
    22a1:	83 c3 01             	add    ebx,0x1
    22a4:	44 39 fb             	cmp    ebx,r15d
    22a7:	75 d7                	jne    2280 <_Z12calc_avg_stdRSt6vectorIjSaIjEES2_j+0x2c0>
    22a9:	48 8d 35 53 1e 00 00 	lea    rsi,[rip+0x1e53]        # 4103 <_IO_stdin_used+0x103>
    22b0:	bf 02 00 00 00       	mov    edi,0x2
    22b5:	31 c0                	xor    eax,eax
    22b7:	e8 44 ee ff ff       	call   1100 <__printf_chk@plt>
    22bc:	8b 05 a2 3d 00 00    	mov    eax,DWORD PTR [rip+0x3da2]        # 6064 <tot_trials>
    22c2:	66 0f ef c0          	pxor   xmm0,xmm0
    22c6:	f2 48 0f 2a c0       	cvtsi2sd xmm0,rax
    22cb:	48 8b 44 24 08       	mov    rax,QWORD PTR [rsp+0x8]
    22d0:	f2 0f 10 4c c5 00    	movsd  xmm1,QWORD PTR [rbp+rax*8+0x0]
    22d6:	f2 0f 5e c8          	divsd  xmm1,xmm0
    22da:	66 0f ef c0          	pxor   xmm0,xmm0
    22de:	66 0f 2e c1          	ucomisd xmm0,xmm1
    22e2:	0f 87 4b 01 00 00    	ja     2433 <_Z12calc_avg_stdRSt6vectorIjSaIjEES2_j+0x473>
    22e8:	f2 0f 51 c9          	sqrtsd xmm1,xmm1
    22ec:	48 8b 5c 24 08       	mov    rbx,QWORD PTR [rsp+0x8]
    22f1:	8b 05 69 3d 00 00    	mov    eax,DWORD PTR [rip+0x3d69]        # 6060 <single_trial>
    22f7:	66 0f ef d2          	pxor   xmm2,xmm2
    22fb:	48 8d 35 22 1e 00 00 	lea    rsi,[rip+0x1e22]        # 4124 <_IO_stdin_used+0x124>
    2302:	f2 0f 10 05 be 1e 00 	movsd  xmm0,QWORD PTR [rip+0x1ebe]        # 41c8 <_IO_stdin_used+0x1c8>
    2309:	00 
    230a:	bf 02 00 00 00       	mov    edi,0x2
    230f:	f2 41 0f 59 44 dd 00 	mulsd  xmm0,QWORD PTR [r13+rbx*8+0x0]
    2316:	f2 48 0f 2a d0       	cvtsi2sd xmm2,rax
    231b:	b8 02 00 00 00       	mov    eax,0x2
    2320:	f2 0f 5e ca          	divsd  xmm1,xmm2
    2324:	f2 0f 5e c2          	divsd  xmm0,xmm2
    2328:	e8 d3 ed ff ff       	call   1100 <__printf_chk@plt>
    232d:	48 83 c3 01          	add    rbx,0x1
    2331:	48 89 5c 24 08       	mov    QWORD PTR [rsp+0x8],rbx
    2336:	4c 39 f3             	cmp    rbx,r14
    2339:	0f 85 11 ff ff ff    	jne    2250 <_Z12calc_avg_stdRSt6vectorIjSaIjEES2_j+0x290>
    233f:	48 8b 74 24 10       	mov    rsi,QWORD PTR [rsp+0x10]
    2344:	4c 89 ef             	mov    rdi,r13
    2347:	e8 14 ee ff ff       	call   1160 <_ZdlPvm@plt>
    234c:	48 8b 44 24 58       	mov    rax,QWORD PTR [rsp+0x58]
    2351:	64 48 2b 04 25 28 00 	sub    rax,QWORD PTR fs:0x28
    2358:	00 00 
    235a:	0f 85 fb 00 00 00    	jne    245b <_Z12calc_avg_stdRSt6vectorIjSaIjEES2_j+0x49b>
    2360:	48 8b 74 24 10       	mov    rsi,QWORD PTR [rsp+0x10]
    2365:	48 83 c4 68          	add    rsp,0x68
    2369:	48 89 ef             	mov    rdi,rbp
    236c:	5b                   	pop    rbx
    236d:	5d                   	pop    rbp
    236e:	41 5c                	pop    r12
    2370:	41 5d                	pop    r13
    2372:	41 5e                	pop    r14
    2374:	41 5f                	pop    r15
    2376:	e9 e5 ed ff ff       	jmp    1160 <_ZdlPvm@plt>
    237b:	8b 05 e3 3c 00 00    	mov    eax,DWORD PTR [rip+0x3ce3]        # 6064 <tot_trials>
    2381:	0f 29 44 24 20       	movaps XMMWORD PTR [rsp+0x20],xmm0
    2386:	31 ed                	xor    ebp,ebp
    2388:	45 31 ed             	xor    r13d,r13d
    238b:	48 c7 44 24 30 00 00 	mov    QWORD PTR [rsp+0x30],0x0
    2392:	00 00 
    2394:	48 c7 44 24 40 00 00 	mov    QWORD PTR [rsp+0x40],0x0
    239b:	00 00 
    239d:	48 c7 44 24 50 00 00 	mov    QWORD PTR [rsp+0x50],0x0
    23a4:	00 00 
    23a6:	48 c7 44 24 48 00 00 	mov    QWORD PTR [rsp+0x48],0x0
    23ad:	00 00 
    23af:	85 c0                	test   eax,eax
    23b1:	0f 85 e2 fc ff ff    	jne    2099 <_Z12calc_avg_stdRSt6vectorIjSaIjEES2_j+0xd9>
    23b7:	66 0f ef c0          	pxor   xmm0,xmm0
    23bb:	f2 0f 5e c0          	divsd  xmm0,xmm0
    23bf:	66 0f 28 d8          	movapd xmm3,xmm0
    23c3:	e9 27 fe ff ff       	jmp    21ef <_Z12calc_avg_stdRSt6vectorIjSaIjEES2_j+0x22f>
    23c8:	0f 1f 84 00 00 00 00 	nop    DWORD PTR [rax+rax*1+0x0]
    23cf:	00 
    23d0:	4d 85 ed             	test   r13,r13
    23d3:	75 42                	jne    2417 <_Z12calc_avg_stdRSt6vectorIjSaIjEES2_j+0x457>
    23d5:	48 85 ed             	test   rbp,rbp
    23d8:	0f 85 6e ff ff ff    	jne    234c <_Z12calc_avg_stdRSt6vectorIjSaIjEES2_j+0x38c>
    23de:	48 8b 44 24 58       	mov    rax,QWORD PTR [rsp+0x58]
    23e3:	64 48 2b 04 25 28 00 	sub    rax,QWORD PTR fs:0x28
    23ea:	00 00 
    23ec:	75 6d                	jne    245b <_Z12calc_avg_stdRSt6vectorIjSaIjEES2_j+0x49b>
    23ee:	48 83 c4 68          	add    rsp,0x68
    23f2:	5b                   	pop    rbx
    23f3:	5d                   	pop    rbp
    23f4:	41 5c                	pop    r12
    23f6:	41 5d                	pop    r13
    23f8:	41 5e                	pop    r14
    23fa:	41 5f                	pop    r15
    23fc:	c3                   	ret
    23fd:	66 0f ef c0          	pxor   xmm0,xmm0
    2401:	66 0f 28 d8          	movapd xmm3,xmm0
    2405:	66 0f 28 e0          	movapd xmm4,xmm0
    2409:	f2 0f 5e d8          	divsd  xmm3,xmm0
    240d:	e9 0e fd ff ff       	jmp    2120 <_Z12calc_avg_stdRSt6vectorIjSaIjEES2_j+0x160>
    2412:	4d 85 ed             	test   r13,r13
    2415:	74 be                	je     23d5 <_Z12calc_avg_stdRSt6vectorIjSaIjEES2_j+0x415>
    2417:	48 8b 74 24 10       	mov    rsi,QWORD PTR [rsp+0x10]
    241c:	4c 89 ef             	mov    rdi,r13
    241f:	e8 3c ed ff ff       	call   1160 <_ZdlPvm@plt>
    2424:	eb af                	jmp    23d5 <_Z12calc_avg_stdRSt6vectorIjSaIjEES2_j+0x415>
    2426:	66 0f ef c0          	pxor   xmm0,xmm0
    242a:	f2 0f 5e c4          	divsd  xmm0,xmm4
    242e:	e9 bc fd ff ff       	jmp    21ef <_Z12calc_avg_stdRSt6vectorIjSaIjEES2_j+0x22f>
    2433:	66 0f 28 c1          	movapd xmm0,xmm1
    2437:	e8 04 ed ff ff       	call   1140 <sqrt@plt>
    243c:	66 0f 28 c8          	movapd xmm1,xmm0
    2440:	e9 a7 fe ff ff       	jmp    22ec <_Z12calc_avg_stdRSt6vectorIjSaIjEES2_j+0x32c>
    2445:	f2 0f 11 5c 24 08    	movsd  QWORD PTR [rsp+0x8],xmm3
    244b:	e8 f0 ec ff ff       	call   1140 <sqrt@plt>
    2450:	f2 0f 10 5c 24 08    	movsd  xmm3,QWORD PTR [rsp+0x8]
    2456:	e9 98 fd ff ff       	jmp    21f3 <_Z12calc_avg_stdRSt6vectorIjSaIjEES2_j+0x233>
    245b:	e8 10 ed ff ff       	call   1170 <__stack_chk_fail@plt>
    2460:	f3 0f 1e fa          	endbr64
    2464:	48 89 c3             	mov    rbx,rax
    2467:	e9 5e ed ff ff       	jmp    11ca <_Z12calc_avg_stdRSt6vectorIjSaIjEES2_j.cold+0xa>
    246c:	f3 0f 1e fa          	endbr64
    2470:	48 89 c3             	mov    rbx,rax
    2473:	e9 48 ed ff ff       	jmp    11c0 <_Z12calc_avg_stdRSt6vectorIjSaIjEES2_j.cold>
    2478:	0f 1f 84 00 00 00 00 	nop    DWORD PTR [rax+rax*1+0x0]
    247f:	00 

0000000000002480 <_Z9test_gatePKcPFbjEj>:
    2480:	f3 0f 1e fa          	endbr64
    2484:	41 57                	push   r15
    2486:	89 d1                	mov    ecx,edx
    2488:	66 0f ef c0          	pxor   xmm0,xmm0
    248c:	41 56                	push   r14
    248e:	41 55                	push   r13
    2490:	49 89 f5             	mov    r13,rsi
    2493:	41 54                	push   r12
    2495:	55                   	push   rbp
    2496:	53                   	push   rbx
    2497:	48 81 ec 88 00 00 00 	sub    rsp,0x88
    249e:	48 89 7c 24 28       	mov    QWORD PTR [rsp+0x28],rdi
    24a3:	89 54 24 14          	mov    DWORD PTR [rsp+0x14],edx
    24a7:	64 48 8b 04 25 28 00 	mov    rax,QWORD PTR fs:0x28
    24ae:	00 00 
    24b0:	48 89 44 24 78       	mov    QWORD PTR [rsp+0x78],rax
    24b5:	b8 01 00 00 00       	mov    eax,0x1
    24ba:	0f 11 44 24 48       	movups XMMWORD PTR [rsp+0x48],xmm0
    24bf:	d3 e0                	shl    eax,cl
    24c1:	89 44 24 0c          	mov    DWORD PTR [rsp+0xc],eax
    24c5:	8b 05 99 3b 00 00    	mov    eax,DWORD PTR [rip+0x3b99]        # 6064 <tot_trials>
    24cb:	48 89 44 24 18       	mov    QWORD PTR [rsp+0x18],rax
    24d0:	48 85 c0             	test   rax,rax
    24d3:	0f 84 36 02 00 00    	je     270f <_Z9test_gatePKcPFbjEj+0x28f>
    24d9:	48 c1 64 24 18 02    	shl    QWORD PTR [rsp+0x18],0x2
    24df:	48 8b 5c 24 18       	mov    rbx,QWORD PTR [rsp+0x18]
    24e4:	48 89 df             	mov    rdi,rbx
    24e7:	e8 64 ec ff ff       	call   1150 <_Znwm@plt>
    24ec:	48 89 da             	mov    rdx,rbx
    24ef:	31 f6                	xor    esi,esi
    24f1:	48 8d 1c 18          	lea    rbx,[rax+rbx*1]
    24f5:	48 89 c7             	mov    rdi,rax
    24f8:	48 89 44 24 20       	mov    QWORD PTR [rsp+0x20],rax
    24fd:	48 89 44 24 40       	mov    QWORD PTR [rsp+0x40],rax
    2502:	48 89 5c 24 50       	mov    QWORD PTR [rsp+0x50],rbx
    2507:	e8 14 ec ff ff       	call   1120 <memset@plt>
    250c:	8b 05 52 3b 00 00    	mov    eax,DWORD PTR [rip+0x3b52]        # 6064 <tot_trials>
    2512:	0f b6 4c 24 14       	movzx  ecx,BYTE PTR [rsp+0x14]
    2517:	66 0f ef c0          	pxor   xmm0,xmm0
    251b:	48 89 5c 24 48       	mov    QWORD PTR [rsp+0x48],rbx
    2520:	d3 e0                	shl    eax,cl
    2522:	0f 11 44 24 68       	movups XMMWORD PTR [rsp+0x68],xmm0
    2527:	48 85 c0             	test   rax,rax
    252a:	0f 84 03 02 00 00    	je     2733 <_Z9test_gatePKcPFbjEj+0x2b3>
    2530:	48 8d 1c 85 00 00 00 	lea    rbx,[rax*4+0x0]
    2537:	00 
    2538:	48 89 df             	mov    rdi,rbx
    253b:	48 89 5c 24 38       	mov    QWORD PTR [rsp+0x38],rbx
    2540:	e8 0b ec ff ff       	call   1150 <_Znwm@plt>
    2545:	48 89 da             	mov    rdx,rbx
    2548:	31 f6                	xor    esi,esi
    254a:	48 8d 1c 18          	lea    rbx,[rax+rbx*1]
    254e:	48 89 c7             	mov    rdi,rax
    2551:	48 89 44 24 60       	mov    QWORD PTR [rsp+0x60],rax
    2556:	49 89 c4             	mov    r12,rax
    2559:	48 89 5c 24 70       	mov    QWORD PTR [rsp+0x70],rbx
    255e:	e8 bd eb ff ff       	call   1120 <memset@plt>
    2563:	48 89 5c 24 68       	mov    QWORD PTR [rsp+0x68],rbx
    2568:	e8 c3 eb ff ff       	call   1130 <clock@plt>
    256d:	8b 15 f1 3a 00 00    	mov    edx,DWORD PTR [rip+0x3af1]        # 6064 <tot_trials>
    2573:	48 89 44 24 30       	mov    QWORD PTR [rsp+0x30],rax
    2578:	85 d2                	test   edx,edx
    257a:	0f 84 97 00 00 00    	je     2617 <_Z9test_gatePKcPFbjEj+0x197>
    2580:	48 8d 44 24 60       	lea    rax,[rsp+0x60]
    2585:	c7 44 24 10 00 00 00 	mov    DWORD PTR [rsp+0x10],0x0
    258c:	00 
    258d:	48 8b 6c 24 20       	mov    rbp,QWORD PTR [rsp+0x20]
    2592:	48 89 04 24          	mov    QWORD PTR [rsp],rax
    2596:	66 2e 0f 1f 84 00 00 	cs nop WORD PTR [rax+rax*1+0x0]
    259d:	00 00 00 
    25a0:	8b 44 24 10          	mov    eax,DWORD PTR [rsp+0x10]
    25a4:	0f b6 4c 24 14       	movzx  ecx,BYTE PTR [rsp+0x14]
    25a9:	31 db                	xor    ebx,ebx
    25ab:	d3 e0                	shl    eax,cl
    25ad:	89 44 24 08          	mov    DWORD PTR [rsp+0x8],eax
    25b1:	8b 05 a9 3a 00 00    	mov    eax,DWORD PTR [rip+0x3aa9]        # 6060 <single_trial>
    25b7:	85 c0                	test   eax,eax
    25b9:	75 14                	jne    25cf <_Z9test_gatePKcPFbjEj+0x14f>
    25bb:	eb 45                	jmp    2602 <_Z9test_gatePKcPFbjEj+0x182>
    25bd:	0f 1f 00             	nop    DWORD PTR [rax]
    25c0:	83 45 00 01          	add    DWORD PTR [rbp+0x0],0x1
    25c4:	83 c3 01             	add    ebx,0x1
    25c7:	3b 1d 93 3a 00 00    	cmp    ebx,DWORD PTR [rip+0x3a93]        # 6060 <single_trial>
    25cd:	73 33                	jae    2602 <_Z9test_gatePKcPFbjEj+0x182>
    25cf:	4c 8b 3c 24          	mov    r15,QWORD PTR [rsp]
    25d3:	4c 8d 74 24 40       	lea    r14,[rsp+0x40]
    25d8:	89 df                	mov    edi,ebx
    25da:	41 ff d5             	call   r13
    25dd:	84 c0                	test   al,al
    25df:	75 df                	jne    25c0 <_Z9test_gatePKcPFbjEj+0x140>
    25e1:	8b 44 24 0c          	mov    eax,DWORD PTR [rsp+0xc]
    25e5:	8b 54 24 08          	mov    edx,DWORD PTR [rsp+0x8]
    25e9:	83 e8 01             	sub    eax,0x1
    25ec:	21 d8                	and    eax,ebx
    25ee:	83 c3 01             	add    ebx,0x1
    25f1:	01 d0                	add    eax,edx
    25f3:	89 c0                	mov    eax,eax
    25f5:	41 83 04 84 01       	add    DWORD PTR [r12+rax*4],0x1
    25fa:	3b 1d 60 3a 00 00    	cmp    ebx,DWORD PTR [rip+0x3a60]        # 6060 <single_trial>
    2600:	72 cd                	jb     25cf <_Z9test_gatePKcPFbjEj+0x14f>
    2602:	83 44 24 10 01       	add    DWORD PTR [rsp+0x10],0x1
    2607:	48 83 c5 04          	add    rbp,0x4
    260b:	8b 44 24 10          	mov    eax,DWORD PTR [rsp+0x10]
    260f:	3b 05 4f 3a 00 00    	cmp    eax,DWORD PTR [rip+0x3a4f]        # 6064 <tot_trials>
    2615:	72 89                	jb     25a0 <_Z9test_gatePKcPFbjEj+0x120>
    2617:	e8 14 eb ff ff       	call   1130 <clock@plt>
    261c:	48 8b 54 24 28       	mov    rdx,QWORD PTR [rsp+0x28]
    2621:	bf 02 00 00 00       	mov    edi,0x2
    2626:	48 8d 35 09 1b 00 00 	lea    rsi,[rip+0x1b09]        # 4136 <_IO_stdin_used+0x136>
    262d:	48 89 c3             	mov    rbx,rax
    2630:	4c 8d 7c 24 60       	lea    r15,[rsp+0x60]
    2635:	4c 8d 74 24 40       	lea    r14,[rsp+0x40]
    263a:	31 c0                	xor    eax,eax
    263c:	e8 bf ea ff ff       	call   1100 <__printf_chk@plt>
    2641:	8b 54 24 14          	mov    edx,DWORD PTR [rsp+0x14]
    2645:	4c 89 fe             	mov    rsi,r15
    2648:	4c 89 f7             	mov    rdi,r14
    264b:	e8 70 f9 ff ff       	call   1fc0 <_Z12calc_avg_stdRSt6vectorIjSaIjEES2_j>
    2650:	48 8b 44 24 30       	mov    rax,QWORD PTR [rsp+0x30]
    2655:	66 0f ef c0          	pxor   xmm0,xmm0
    2659:	bf 02 00 00 00       	mov    edi,0x2
    265e:	48 8d 35 ee 1a 00 00 	lea    rsi,[rip+0x1aee]        # 4153 <_IO_stdin_used+0x153>
    2665:	48 29 c3             	sub    rbx,rax
    2668:	b8 01 00 00 00       	mov    eax,0x1
    266d:	f2 48 0f 2a c3       	cvtsi2sd xmm0,rbx
    2672:	f2 0f 5e 05 56 1b 00 	divsd  xmm0,QWORD PTR [rip+0x1b56]        # 41d0 <_IO_stdin_used+0x1d0>
    2679:	00 
    267a:	e8 81 ea ff ff       	call   1100 <__printf_chk@plt>
    267f:	8b 15 df 39 00 00    	mov    edx,DWORD PTR [rip+0x39df]        # 6064 <tot_trials>
    2685:	0f af 15 d4 39 00 00 	imul   edx,DWORD PTR [rip+0x39d4]        # 6060 <single_trial>
    268c:	bf 02 00 00 00       	mov    edi,0x2
    2691:	31 c0                	xor    eax,eax
    2693:	48 8d 35 cc 1a 00 00 	lea    rsi,[rip+0x1acc]        # 4166 <_IO_stdin_used+0x166>
    269a:	e8 61 ea ff ff       	call   1100 <__printf_chk@plt>
    269f:	4d 85 e4             	test   r12,r12
    26a2:	74 0d                	je     26b1 <_Z9test_gatePKcPFbjEj+0x231>
    26a4:	48 8b 74 24 38       	mov    rsi,QWORD PTR [rsp+0x38]
    26a9:	4c 89 e7             	mov    rdi,r12
    26ac:	e8 af ea ff ff       	call   1160 <_ZdlPvm@plt>
    26b1:	48 83 7c 24 20 00    	cmp    QWORD PTR [rsp+0x20],0x0
    26b7:	74 34                	je     26ed <_Z9test_gatePKcPFbjEj+0x26d>
    26b9:	48 8b 44 24 78       	mov    rax,QWORD PTR [rsp+0x78]
    26be:	64 48 2b 04 25 28 00 	sub    rax,QWORD PTR fs:0x28
    26c5:	00 00 
    26c7:	0f 85 8b 00 00 00    	jne    2758 <_Z9test_gatePKcPFbjEj+0x2d8>
    26cd:	48 8b 74 24 18       	mov    rsi,QWORD PTR [rsp+0x18]
    26d2:	48 8b 7c 24 20       	mov    rdi,QWORD PTR [rsp+0x20]
    26d7:	48 81 c4 88 00 00 00 	add    rsp,0x88
    26de:	5b                   	pop    rbx
    26df:	5d                   	pop    rbp
    26e0:	41 5c                	pop    r12
    26e2:	41 5d                	pop    r13
    26e4:	41 5e                	pop    r14
    26e6:	41 5f                	pop    r15
    26e8:	e9 73 ea ff ff       	jmp    1160 <_ZdlPvm@plt>
    26ed:	48 8b 44 24 78       	mov    rax,QWORD PTR [rsp+0x78]
    26f2:	64 48 2b 04 25 28 00 	sub    rax,QWORD PTR fs:0x28
    26f9:	00 00 
    26fb:	75 5b                	jne    2758 <_Z9test_gatePKcPFbjEj+0x2d8>
    26fd:	48 81 c4 88 00 00 00 	add    rsp,0x88
    2704:	5b                   	pop    rbx
    2705:	5d                   	pop    rbp
    2706:	41 5c                	pop    r12
    2708:	41 5d                	pop    r13
    270a:	41 5e                	pop    r14
    270c:	41 5f                	pop    r15
    270e:	c3                   	ret
    270f:	48 c7 44 24 40 00 00 	mov    QWORD PTR [rsp+0x40],0x0
    2716:	00 00 
    2718:	48 c7 44 24 50 00 00 	mov    QWORD PTR [rsp+0x50],0x0
    271f:	00 00 
    2721:	48 c7 44 24 48 00 00 	mov    QWORD PTR [rsp+0x48],0x0
    2728:	00 00 
    272a:	48 c7 44 24 20 00 00 	mov    QWORD PTR [rsp+0x20],0x0
    2731:	00 00 
    2733:	48 c7 44 24 60 00 00 	mov    QWORD PTR [rsp+0x60],0x0
    273a:	00 00 
    273c:	45 31 e4             	xor    r12d,r12d
    273f:	31 db                	xor    ebx,ebx
    2741:	48 c7 44 24 70 00 00 	mov    QWORD PTR [rsp+0x70],0x0
    2748:	00 00 
    274a:	48 c7 44 24 38 00 00 	mov    QWORD PTR [rsp+0x38],0x0
    2751:	00 00 
    2753:	e9 0b fe ff ff       	jmp    2563 <_Z9test_gatePKcPFbjEj+0xe3>
    2758:	e8 13 ea ff ff       	call   1170 <__stack_chk_fail@plt>
    275d:	f3 0f 1e fa          	endbr64
    2761:	48 89 c3             	mov    rbx,rax
    2764:	e9 88 ea ff ff       	jmp    11f1 <_Z9test_gatePKcPFbjEj.cold>
    2769:	f3 0f 1e fa          	endbr64
    276d:	48 89 c3             	mov    rbx,rax
    2770:	4c 8d 74 24 40       	lea    r14,[rsp+0x40]
    2775:	e9 7f ea ff ff       	jmp    11f9 <_Z9test_gatePKcPFbjEj.cold+0x8>
    277a:	66 0f 1f 44 00 00    	nop    WORD PTR [rax+rax*1+0x0]

0000000000002780 <_ZNSt6vectorIdSaIdEED1Ev>:
    2780:	f3 0f 1e fa          	endbr64
    2784:	48 8b 07             	mov    rax,QWORD PTR [rdi]
    2787:	48 85 c0             	test   rax,rax
    278a:	74 14                	je     27a0 <_ZNSt6vectorIdSaIdEED1Ev+0x20>
    278c:	48 8b 77 10          	mov    rsi,QWORD PTR [rdi+0x10]
    2790:	48 89 c7             	mov    rdi,rax
    2793:	48 29 c6             	sub    rsi,rax
    2796:	e9 c5 e9 ff ff       	jmp    1160 <_ZdlPvm@plt>
    279b:	0f 1f 44 00 00       	nop    DWORD PTR [rax+rax*1+0x0]
    27a0:	c3                   	ret
    27a1:	66 2e 0f 1f 84 00 00 	cs nop WORD PTR [rax+rax*1+0x0]
    27a8:	00 00 00 
    27ab:	0f 1f 44 00 00       	nop    DWORD PTR [rax+rax*1+0x0]

00000000000027b0 <_ZNSt6vectorIjSaIjEED1Ev>:
    27b0:	f3 0f 1e fa          	endbr64
    27b4:	48 8b 07             	mov    rax,QWORD PTR [rdi]
    27b7:	48 85 c0             	test   rax,rax
    27ba:	74 14                	je     27d0 <_ZNSt6vectorIjSaIjEED1Ev+0x20>
    27bc:	48 8b 77 10          	mov    rsi,QWORD PTR [rdi+0x10]
    27c0:	48 89 c7             	mov    rdi,rax
    27c3:	48 29 c6             	sub    rsi,rax
    27c6:	e9 95 e9 ff ff       	jmp    1160 <_ZdlPvm@plt>
    27cb:	0f 1f 44 00 00       	nop    DWORD PTR [rax+rax*1+0x0]
    27d0:	c3                   	ret
    27d1:	66 2e 0f 1f 84 00 00 	cs nop WORD PTR [rax+rax*1+0x0]
    27d8:	00 00 00 
    27db:	0f 1f 44 00 00       	nop    DWORD PTR [rax+rax*1+0x0]

00000000000027e0 <_Z9nand_gatePhS_S_>:
    27e0:	f3 0f 1e fa          	endbr64
    27e4:	49 89 d0             	mov    r8,rdx
    27e7:	c6 05 f2 a9 00 00 00 	mov    BYTE PTR [rip+0xa9f2],0x0        # d1e0 <tmp_reg1>
    27ee:	c6 05 eb a1 00 00 00 	mov    BYTE PTR [rip+0xa1eb],0x0        # c9e0 <tmp_reg2>
    27f5:	c6 05 e4 99 00 00 00 	mov    BYTE PTR [rip+0x99e4],0x0        # c1e0 <tmp_reg3>
    27fc:	c6 05 dd 91 00 00 00 	mov    BYTE PTR [rip+0x91dd],0x0        # b9e0 <tmp_reg4>
    2803:	0f ae 3d d6 a9 00 00 	clflush BYTE PTR [rip+0xa9d6]        # d1e0 <tmp_reg1>
    280a:	0f ae 3d cf a1 00 00 	clflush BYTE PTR [rip+0xa1cf]        # c9e0 <tmp_reg2>
    2811:	0f ae 3d c8 99 00 00 	clflush BYTE PTR [rip+0x99c8]        # c1e0 <tmp_reg3>
    2818:	0f ae 3d c1 91 00 00 	clflush BYTE PTR [rip+0x91c1]        # b9e0 <tmp_reg4>
    281f:	c7 44 24 f4 00 00 00 	mov    DWORD PTR [rsp-0xc],0x0
    2826:	00 
    2827:	8b 44 24 f4          	mov    eax,DWORD PTR [rsp-0xc]
    282b:	3d ff 00 00 00       	cmp    eax,0xff
    2830:	7f 1c                	jg     284e <_Z9nand_gatePhS_S_+0x6e>
    2832:	66 0f 1f 44 00 00    	nop    WORD PTR [rax+rax*1+0x0]
    2838:	8b 44 24 f4          	mov    eax,DWORD PTR [rsp-0xc]
    283c:	83 c0 01             	add    eax,0x1
    283f:	89 44 24 f4          	mov    DWORD PTR [rsp-0xc],eax
    2843:	8b 44 24 f4          	mov    eax,DWORD PTR [rsp-0xc]
    2847:	3d ff 00 00 00       	cmp    eax,0xff
    284c:	7e ea                	jle    2838 <_Z9nand_gatePhS_S_+0x58>
    284e:	4c 8d 0d 8b a9 00 00 	lea    r9,[rip+0xa98b]        # d1e0 <tmp_reg1>
    2855:	48 31 d2             	xor    rdx,rdx
    2858:	f6 f2                	div    dl
    285a:	48 0f b6 0f          	movzx  rcx,BYTE PTR [rdi]
    285e:	48 01 f1             	add    rcx,rsi
    2861:	48 0f b6 11          	movzx  rdx,BYTE PTR [rcx]
    2865:	4c 01 ca             	add    rdx,r9
    2868:	8a 12                	mov    dl,BYTE PTR [rdx]
    286a:	90                   	nop
    286b:	90                   	nop
    286c:	90                   	nop
    286d:	90                   	nop
    286e:	90                   	nop
    286f:	90                   	nop
    2870:	90                   	nop
    2871:	90                   	nop
    2872:	90                   	nop
    2873:	90                   	nop
    2874:	90                   	nop
    2875:	90                   	nop
    2876:	90                   	nop
    2877:	90                   	nop
    2878:	90                   	nop
    2879:	90                   	nop
    287a:	90                   	nop
    287b:	90                   	nop
    287c:	90                   	nop
    287d:	90                   	nop
    287e:	90                   	nop
    287f:	90                   	nop
    2880:	90                   	nop
    2881:	90                   	nop
    2882:	90                   	nop
    2883:	90                   	nop
    2884:	90                   	nop
    2885:	90                   	nop
    2886:	90                   	nop
    2887:	90                   	nop
    2888:	90                   	nop
    2889:	90                   	nop
    288a:	90                   	nop
    288b:	90                   	nop
    288c:	90                   	nop
    288d:	90                   	nop
    288e:	90                   	nop
    288f:	90                   	nop
    2890:	90                   	nop
    2891:	90                   	nop
    2892:	90                   	nop
    2893:	90                   	nop
    2894:	90                   	nop
    2895:	90                   	nop
    2896:	90                   	nop
    2897:	90                   	nop
    2898:	90                   	nop
    2899:	90                   	nop
    289a:	90                   	nop
    289b:	90                   	nop
    289c:	90                   	nop
    289d:	90                   	nop
    289e:	90                   	nop
    289f:	90                   	nop
    28a0:	90                   	nop
    28a1:	90                   	nop
    28a2:	90                   	nop
    28a3:	90                   	nop
    28a4:	90                   	nop
    28a5:	90                   	nop
    28a6:	90                   	nop
    28a7:	90                   	nop
    28a8:	90                   	nop
    28a9:	90                   	nop
    28aa:	90                   	nop
    28ab:	90                   	nop
    28ac:	90                   	nop
    28ad:	90                   	nop
    28ae:	90                   	nop
    28af:	90                   	nop
    28b0:	90                   	nop
    28b1:	90                   	nop
    28b2:	90                   	nop
    28b3:	90                   	nop
    28b4:	90                   	nop
    28b5:	90                   	nop
    28b6:	90                   	nop
    28b7:	90                   	nop
    28b8:	90                   	nop
    28b9:	90                   	nop
    28ba:	90                   	nop
    28bb:	90                   	nop
    28bc:	90                   	nop
    28bd:	90                   	nop
    28be:	90                   	nop
    28bf:	90                   	nop
    28c0:	90                   	nop
    28c1:	90                   	nop
    28c2:	90                   	nop
    28c3:	90                   	nop
    28c4:	90                   	nop
    28c5:	90                   	nop
    28c6:	90                   	nop
    28c7:	90                   	nop
    28c8:	90                   	nop
    28c9:	90                   	nop
    28ca:	90                   	nop
    28cb:	90                   	nop
    28cc:	90                   	nop
    28cd:	90                   	nop
    28ce:	90                   	nop
    28cf:	90                   	nop
    28d0:	90                   	nop
    28d1:	90                   	nop
    28d2:	90                   	nop
    28d3:	90                   	nop
    28d4:	90                   	nop
    28d5:	90                   	nop
    28d6:	90                   	nop
    28d7:	90                   	nop
    28d8:	90                   	nop
    28d9:	90                   	nop
    28da:	90                   	nop
    28db:	90                   	nop
    28dc:	90                   	nop
    28dd:	90                   	nop
    28de:	90                   	nop
    28df:	90                   	nop
    28e0:	90                   	nop
    28e1:	90                   	nop
    28e2:	90                   	nop
    28e3:	90                   	nop
    28e4:	90                   	nop
    28e5:	90                   	nop
    28e6:	90                   	nop
    28e7:	90                   	nop
    28e8:	90                   	nop
    28e9:	90                   	nop
    28ea:	90                   	nop
    28eb:	90                   	nop
    28ec:	90                   	nop
    28ed:	90                   	nop
    28ee:	90                   	nop
    28ef:	90                   	nop
    28f0:	90                   	nop
    28f1:	90                   	nop
    28f2:	90                   	nop
    28f3:	90                   	nop
    28f4:	90                   	nop
    28f5:	90                   	nop
    28f6:	90                   	nop
    28f7:	90                   	nop
    28f8:	90                   	nop
    28f9:	90                   	nop
    28fa:	90                   	nop
    28fb:	90                   	nop
    28fc:	90                   	nop
    28fd:	90                   	nop
    28fe:	90                   	nop
    28ff:	90                   	nop
    2900:	90                   	nop
    2901:	90                   	nop
    2902:	90                   	nop
    2903:	90                   	nop
    2904:	90                   	nop
    2905:	90                   	nop
    2906:	90                   	nop
    2907:	90                   	nop
    2908:	90                   	nop
    2909:	90                   	nop
    290a:	90                   	nop
    290b:	90                   	nop
    290c:	90                   	nop
    290d:	90                   	nop
    290e:	90                   	nop
    290f:	90                   	nop
    2910:	90                   	nop
    2911:	90                   	nop
    2912:	90                   	nop
    2913:	90                   	nop
    2914:	90                   	nop
    2915:	90                   	nop
    2916:	90                   	nop
    2917:	90                   	nop
    2918:	90                   	nop
    2919:	90                   	nop
    291a:	90                   	nop
    291b:	90                   	nop
    291c:	90                   	nop
    291d:	90                   	nop
    291e:	90                   	nop
    291f:	90                   	nop
    2920:	90                   	nop
    2921:	90                   	nop
    2922:	90                   	nop
    2923:	90                   	nop
    2924:	90                   	nop
    2925:	90                   	nop
    2926:	90                   	nop
    2927:	90                   	nop
    2928:	90                   	nop
    2929:	90                   	nop
    292a:	90                   	nop
    292b:	90                   	nop
    292c:	90                   	nop
    292d:	90                   	nop
    292e:	90                   	nop
    292f:	90                   	nop
    2930:	90                   	nop
    2931:	90                   	nop
    2932:	90                   	nop
    2933:	90                   	nop
    2934:	90                   	nop
    2935:	90                   	nop
    2936:	90                   	nop
    2937:	90                   	nop
    2938:	90                   	nop
    2939:	90                   	nop
    293a:	90                   	nop
    293b:	90                   	nop
    293c:	90                   	nop
    293d:	90                   	nop
    293e:	90                   	nop
    293f:	90                   	nop
    2940:	90                   	nop
    2941:	90                   	nop
    2942:	90                   	nop
    2943:	90                   	nop
    2944:	90                   	nop
    2945:	90                   	nop
    2946:	90                   	nop
    2947:	90                   	nop
    2948:	90                   	nop
    2949:	90                   	nop
    294a:	90                   	nop
    294b:	90                   	nop
    294c:	90                   	nop
    294d:	90                   	nop
    294e:	90                   	nop
    294f:	90                   	nop
    2950:	90                   	nop
    2951:	90                   	nop
    2952:	90                   	nop
    2953:	90                   	nop
    2954:	90                   	nop
    2955:	90                   	nop
    2956:	90                   	nop
    2957:	90                   	nop
    2958:	90                   	nop
    2959:	90                   	nop
    295a:	90                   	nop
    295b:	90                   	nop
    295c:	90                   	nop
    295d:	90                   	nop
    295e:	90                   	nop
    295f:	90                   	nop
    2960:	90                   	nop
    2961:	90                   	nop
    2962:	90                   	nop
    2963:	90                   	nop
    2964:	90                   	nop
    2965:	90                   	nop
    2966:	90                   	nop
    2967:	90                   	nop
    2968:	90                   	nop
    2969:	90                   	nop
    296a:	c7 44 24 f8 00 00 00 	mov    DWORD PTR [rsp-0x8],0x0
    2971:	00 
    2972:	8b 44 24 f8          	mov    eax,DWORD PTR [rsp-0x8]
    2976:	3d ff 00 00 00       	cmp    eax,0xff
    297b:	7f 19                	jg     2996 <_Z9nand_gatePhS_S_+0x1b6>
    297d:	0f 1f 00             	nop    DWORD PTR [rax]
    2980:	8b 44 24 f8          	mov    eax,DWORD PTR [rsp-0x8]
    2984:	83 c0 01             	add    eax,0x1
    2987:	89 44 24 f8          	mov    DWORD PTR [rsp-0x8],eax
    298b:	8b 44 24 f8          	mov    eax,DWORD PTR [rsp-0x8]
    298f:	3d ff 00 00 00       	cmp    eax,0xff
    2994:	7e ea                	jle    2980 <_Z9nand_gatePhS_S_+0x1a0>
    2996:	0f 01 f9             	rdtscp
    2999:	48 c1 e2 20          	shl    rdx,0x20
    299d:	48 89 d6             	mov    rsi,rdx
    29a0:	09 c6                	or     esi,eax
    29a2:	8a 05 38 a8 00 00    	mov    al,BYTE PTR [rip+0xa838]        # d1e0 <tmp_reg1>
    29a8:	0f 01 f9             	rdtscp
    29ab:	48 c1 e2 20          	shl    rdx,0x20
    29af:	09 c2                	or     edx,eax
    29b1:	48 29 f2             	sub    rdx,rsi
    29b4:	48 89 d7             	mov    rdi,rdx
    29b7:	48 81 ff 13 01 00 00 	cmp    rdi,0x113
    29be:	0f 87 6c 01 00 00    	ja     2b30 <_Z9nand_gatePhS_S_+0x350>
    29c4:	c6 05 15 a0 00 00 00 	mov    BYTE PTR [rip+0xa015],0x0        # c9e0 <tmp_reg2>
    29cb:	c6 05 0e 98 00 00 00 	mov    BYTE PTR [rip+0x980e],0x0        # c1e0 <tmp_reg3>
    29d2:	c7 44 24 fc 00 00 00 	mov    DWORD PTR [rsp-0x4],0x0
    29d9:	00 
    29da:	8b 44 24 fc          	mov    eax,DWORD PTR [rsp-0x4]
    29de:	83 f8 3f             	cmp    eax,0x3f
    29e1:	7f 19                	jg     29fc <_Z9nand_gatePhS_S_+0x21c>
    29e3:	0f 1f 44 00 00       	nop    DWORD PTR [rax+rax*1+0x0]
    29e8:	8b 44 24 fc          	mov    eax,DWORD PTR [rsp-0x4]
    29ec:	83 c0 01             	add    eax,0x1
    29ef:	89 44 24 fc          	mov    DWORD PTR [rsp-0x4],eax
    29f3:	8b 44 24 fc          	mov    eax,DWORD PTR [rsp-0x4]
    29f7:	83 f8 3f             	cmp    eax,0x3f
    29fa:	7e ec                	jle    29e8 <_Z9nand_gatePhS_S_+0x208>
    29fc:	48 8d 35 dd 9f 00 00 	lea    rsi,[rip+0x9fdd]        # c9e0 <tmp_reg2>
    2a03:	48 8d 3d d6 8f 00 00 	lea    rdi,[rip+0x8fd6]        # b9e0 <tmp_reg4>
    2a0a:	4c 8d 0d cf 97 00 00 	lea    r9,[rip+0x97cf]        # c1e0 <tmp_reg3>
    2a11:	48 0f b6 16          	movzx  rdx,BYTE PTR [rsi]
    2a15:	4c 01 ca             	add    rdx,r9
    2a18:	48 0f b6 12          	movzx  rdx,BYTE PTR [rdx]
    2a1c:	f6 f2                	div    dl
    2a1e:	48 0f b6 0f          	movzx  rcx,BYTE PTR [rdi]
    2a22:	4c 01 c1             	add    rcx,r8
    2a25:	8a 11                	mov    dl,BYTE PTR [rcx]
    2a27:	90                   	nop
    2a28:	90                   	nop
    2a29:	90                   	nop
    2a2a:	90                   	nop
    2a2b:	90                   	nop
    2a2c:	90                   	nop
    2a2d:	90                   	nop
    2a2e:	90                   	nop
    2a2f:	90                   	nop
    2a30:	90                   	nop
    2a31:	90                   	nop
    2a32:	90                   	nop
    2a33:	90                   	nop
    2a34:	90                   	nop
    2a35:	90                   	nop
    2a36:	90                   	nop
    2a37:	90                   	nop
    2a38:	90                   	nop
    2a39:	90                   	nop
    2a3a:	90                   	nop
    2a3b:	90                   	nop
    2a3c:	90                   	nop
    2a3d:	90                   	nop
    2a3e:	90                   	nop
    2a3f:	90                   	nop
    2a40:	90                   	nop
    2a41:	90                   	nop
    2a42:	90                   	nop
    2a43:	90                   	nop
    2a44:	90                   	nop
    2a45:	90                   	nop
    2a46:	90                   	nop
    2a47:	90                   	nop
    2a48:	90                   	nop
    2a49:	90                   	nop
    2a4a:	90                   	nop
    2a4b:	90                   	nop
    2a4c:	90                   	nop
    2a4d:	90                   	nop
    2a4e:	90                   	nop
    2a4f:	90                   	nop
    2a50:	90                   	nop
    2a51:	90                   	nop
    2a52:	90                   	nop
    2a53:	90                   	nop
    2a54:	90                   	nop
    2a55:	90                   	nop
    2a56:	90                   	nop
    2a57:	90                   	nop
    2a58:	90                   	nop
    2a59:	90                   	nop
    2a5a:	90                   	nop
    2a5b:	90                   	nop
    2a5c:	90                   	nop
    2a5d:	90                   	nop
    2a5e:	90                   	nop
    2a5f:	90                   	nop
    2a60:	90                   	nop
    2a61:	90                   	nop
    2a62:	90                   	nop
    2a63:	90                   	nop
    2a64:	90                   	nop
    2a65:	90                   	nop
    2a66:	90                   	nop
    2a67:	90                   	nop
    2a68:	90                   	nop
    2a69:	90                   	nop
    2a6a:	90                   	nop
    2a6b:	90                   	nop
    2a6c:	90                   	nop
    2a6d:	90                   	nop
    2a6e:	90                   	nop
    2a6f:	90                   	nop
    2a70:	90                   	nop
    2a71:	90                   	nop
    2a72:	90                   	nop
    2a73:	90                   	nop
    2a74:	90                   	nop
    2a75:	90                   	nop
    2a76:	90                   	nop
    2a77:	90                   	nop
    2a78:	90                   	nop
    2a79:	90                   	nop
    2a7a:	90                   	nop
    2a7b:	90                   	nop
    2a7c:	90                   	nop
    2a7d:	90                   	nop
    2a7e:	90                   	nop
    2a7f:	90                   	nop
    2a80:	90                   	nop
    2a81:	90                   	nop
    2a82:	90                   	nop
    2a83:	90                   	nop
    2a84:	90                   	nop
    2a85:	90                   	nop
    2a86:	90                   	nop
    2a87:	90                   	nop
    2a88:	90                   	nop
    2a89:	90                   	nop
    2a8a:	90                   	nop
    2a8b:	90                   	nop
    2a8c:	90                   	nop
    2a8d:	90                   	nop
    2a8e:	90                   	nop
    2a8f:	90                   	nop
    2a90:	90                   	nop
    2a91:	90                   	nop
    2a92:	90                   	nop
    2a93:	90                   	nop
    2a94:	90                   	nop
    2a95:	90                   	nop
    2a96:	90                   	nop
    2a97:	90                   	nop
    2a98:	90                   	nop
    2a99:	90                   	nop
    2a9a:	90                   	nop
    2a9b:	90                   	nop
    2a9c:	90                   	nop
    2a9d:	90                   	nop
    2a9e:	90                   	nop
    2a9f:	90                   	nop
    2aa0:	90                   	nop
    2aa1:	90                   	nop
    2aa2:	90                   	nop
    2aa3:	90                   	nop
    2aa4:	90                   	nop
    2aa5:	90                   	nop
    2aa6:	90                   	nop
    2aa7:	90                   	nop
    2aa8:	90                   	nop
    2aa9:	90                   	nop
    2aaa:	90                   	nop
    2aab:	90                   	nop
    2aac:	90                   	nop
    2aad:	90                   	nop
    2aae:	90                   	nop
    2aaf:	90                   	nop
    2ab0:	90                   	nop
    2ab1:	90                   	nop
    2ab2:	90                   	nop
    2ab3:	90                   	nop
    2ab4:	90                   	nop
    2ab5:	90                   	nop
    2ab6:	90                   	nop
    2ab7:	90                   	nop
    2ab8:	90                   	nop
    2ab9:	90                   	nop
    2aba:	90                   	nop
    2abb:	90                   	nop
    2abc:	90                   	nop
    2abd:	90                   	nop
    2abe:	90                   	nop
    2abf:	90                   	nop
    2ac0:	90                   	nop
    2ac1:	90                   	nop
    2ac2:	90                   	nop
    2ac3:	90                   	nop
    2ac4:	90                   	nop
    2ac5:	90                   	nop
    2ac6:	90                   	nop
    2ac7:	90                   	nop
    2ac8:	90                   	nop
    2ac9:	90                   	nop
    2aca:	90                   	nop
    2acb:	90                   	nop
    2acc:	90                   	nop
    2acd:	90                   	nop
    2ace:	90                   	nop
    2acf:	90                   	nop
    2ad0:	90                   	nop
    2ad1:	90                   	nop
    2ad2:	90                   	nop
    2ad3:	90                   	nop
    2ad4:	90                   	nop
    2ad5:	90                   	nop
    2ad6:	90                   	nop
    2ad7:	90                   	nop
    2ad8:	90                   	nop
    2ad9:	90                   	nop
    2ada:	90                   	nop
    2adb:	90                   	nop
    2adc:	90                   	nop
    2add:	90                   	nop
    2ade:	90                   	nop
    2adf:	90                   	nop
    2ae0:	90                   	nop
    2ae1:	90                   	nop
    2ae2:	90                   	nop
    2ae3:	90                   	nop
    2ae4:	90                   	nop
    2ae5:	90                   	nop
    2ae6:	90                   	nop
    2ae7:	90                   	nop
    2ae8:	90                   	nop
    2ae9:	90                   	nop
    2aea:	90                   	nop
    2aeb:	90                   	nop
    2aec:	90                   	nop
    2aed:	90                   	nop
    2aee:	90                   	nop
    2aef:	90                   	nop
    2af0:	90                   	nop
    2af1:	90                   	nop
    2af2:	90                   	nop
    2af3:	90                   	nop
    2af4:	90                   	nop
    2af5:	90                   	nop
    2af6:	90                   	nop
    2af7:	90                   	nop
    2af8:	90                   	nop
    2af9:	90                   	nop
    2afa:	90                   	nop
    2afb:	90                   	nop
    2afc:	90                   	nop
    2afd:	90                   	nop
    2afe:	90                   	nop
    2aff:	90                   	nop
    2b00:	90                   	nop
    2b01:	90                   	nop
    2b02:	90                   	nop
    2b03:	90                   	nop
    2b04:	90                   	nop
    2b05:	90                   	nop
    2b06:	90                   	nop
    2b07:	90                   	nop
    2b08:	90                   	nop
    2b09:	90                   	nop
    2b0a:	90                   	nop
    2b0b:	90                   	nop
    2b0c:	90                   	nop
    2b0d:	90                   	nop
    2b0e:	90                   	nop
    2b0f:	90                   	nop
    2b10:	90                   	nop
    2b11:	90                   	nop
    2b12:	90                   	nop
    2b13:	90                   	nop
    2b14:	90                   	nop
    2b15:	90                   	nop
    2b16:	90                   	nop
    2b17:	90                   	nop
    2b18:	90                   	nop
    2b19:	90                   	nop
    2b1a:	90                   	nop
    2b1b:	90                   	nop
    2b1c:	90                   	nop
    2b1d:	90                   	nop
    2b1e:	90                   	nop
    2b1f:	90                   	nop
    2b20:	90                   	nop
    2b21:	90                   	nop
    2b22:	90                   	nop
    2b23:	90                   	nop
    2b24:	90                   	nop
    2b25:	90                   	nop
    2b26:	90                   	nop
    2b27:	c3                   	ret
    2b28:	0f 1f 84 00 00 00 00 	nop    DWORD PTR [rax+rax*1+0x0]
    2b2f:	00 
    2b30:	0f ae 3d a9 9e 00 00 	clflush BYTE PTR [rip+0x9ea9]        # c9e0 <tmp_reg2>
    2b37:	0f ae 3d a2 96 00 00 	clflush BYTE PTR [rip+0x96a2]        # c1e0 <tmp_reg3>
    2b3e:	e9 8f fe ff ff       	jmp    29d2 <_Z9nand_gatePhS_S_+0x1f2>
    2b43:	66 66 2e 0f 1f 84 00 	data16 cs nop WORD PTR [rax+rax*1+0x0]
    2b4a:	00 00 00 00 
    2b4e:	66 90                	xchg   ax,ax

0000000000002b50 <_Z8xor_gatePhS_S_j>:
    2b50:	f3 0f 1e fa          	endbr64
    2b54:	53                   	push   rbx
    2b55:	49 89 f8             	mov    r8,rdi
    2b58:	49 89 d2             	mov    r10,rdx
    2b5b:	89 cf                	mov    edi,ecx
    2b5d:	48 83 ec 10          	sub    rsp,0x10
    2b61:	c6 05 78 86 00 00 00 	mov    BYTE PTR [rip+0x8678],0x0        # b1e0 <tmp_reg5>
    2b68:	c6 05 71 7e 00 00 00 	mov    BYTE PTR [rip+0x7e71],0x0        # a9e0 <tmp_reg6>
    2b6f:	c6 05 6a 76 00 00 00 	mov    BYTE PTR [rip+0x766a],0x0        # a1e0 <tmp_reg7>
    2b76:	c6 05 63 6e 00 00 00 	mov    BYTE PTR [rip+0x6e63],0x0        # 99e0 <tmp_reg8>
    2b7d:	c6 05 5c 66 00 00 00 	mov    BYTE PTR [rip+0x665c],0x0        # 91e0 <tmp_reg9>
    2b84:	c6 05 55 5e 00 00 00 	mov    BYTE PTR [rip+0x5e55],0x0        # 89e0 <tmp_reg10>
    2b8b:	0f ae 3d 4e 76 00 00 	clflush BYTE PTR [rip+0x764e]        # a1e0 <tmp_reg7>
    2b92:	0f ae 3d 47 6e 00 00 	clflush BYTE PTR [rip+0x6e47]        # 99e0 <tmp_reg8>
    2b99:	0f ae 3d 40 66 00 00 	clflush BYTE PTR [rip+0x6640]        # 91e0 <tmp_reg9>
    2ba0:	0f ae 3d 39 5e 00 00 	clflush BYTE PTR [rip+0x5e39]        # 89e0 <tmp_reg10>
    2ba7:	c7 44 24 04 00 00 00 	mov    DWORD PTR [rsp+0x4],0x0
    2bae:	00 
    2baf:	8b 44 24 04          	mov    eax,DWORD PTR [rsp+0x4]
    2bb3:	3d ff 00 00 00       	cmp    eax,0xff
    2bb8:	7f 1c                	jg     2bd6 <_Z8xor_gatePhS_S_j+0x86>
    2bba:	66 0f 1f 44 00 00    	nop    WORD PTR [rax+rax*1+0x0]
    2bc0:	8b 44 24 04          	mov    eax,DWORD PTR [rsp+0x4]
    2bc4:	83 c0 01             	add    eax,0x1
    2bc7:	89 44 24 04          	mov    DWORD PTR [rsp+0x4],eax
    2bcb:	8b 44 24 04          	mov    eax,DWORD PTR [rsp+0x4]
    2bcf:	3d ff 00 00 00       	cmp    eax,0xff
    2bd4:	7e ea                	jle    2bc0 <_Z8xor_gatePhS_S_j+0x70>
    2bd6:	4c 8d 1d 03 66 00 00 	lea    r11,[rip+0x6603]        # 91e0 <tmp_reg9>
    2bdd:	48 31 d2             	xor    rdx,rdx
    2be0:	f6 f2                	div    dl
    2be2:	49 0f b6 08          	movzx  rcx,BYTE PTR [r8]
    2be6:	4c 01 d9             	add    rcx,r11
    2be9:	8a 01                	mov    al,BYTE PTR [rcx]
    2beb:	48 0f b6 0e          	movzx  rcx,BYTE PTR [rsi]
    2bef:	4c 01 d9             	add    rcx,r11
    2bf2:	8a 11                	mov    dl,BYTE PTR [rcx]
    2bf4:	90                   	nop
    2bf5:	90                   	nop
    2bf6:	90                   	nop
    2bf7:	90                   	nop
    2bf8:	90                   	nop
    2bf9:	90                   	nop
    2bfa:	90                   	nop
    2bfb:	90                   	nop
    2bfc:	90                   	nop
    2bfd:	90                   	nop
    2bfe:	90                   	nop
    2bff:	90                   	nop
    2c00:	90                   	nop
    2c01:	90                   	nop
    2c02:	90                   	nop
    2c03:	90                   	nop
    2c04:	90                   	nop
    2c05:	90                   	nop
    2c06:	90                   	nop
    2c07:	90                   	nop
    2c08:	90                   	nop
    2c09:	90                   	nop
    2c0a:	90                   	nop
    2c0b:	90                   	nop
    2c0c:	90                   	nop
    2c0d:	90                   	nop
    2c0e:	90                   	nop
    2c0f:	90                   	nop
    2c10:	90                   	nop
    2c11:	90                   	nop
    2c12:	90                   	nop
    2c13:	90                   	nop
    2c14:	90                   	nop
    2c15:	90                   	nop
    2c16:	90                   	nop
    2c17:	90                   	nop
    2c18:	90                   	nop
    2c19:	90                   	nop
    2c1a:	90                   	nop
    2c1b:	90                   	nop
    2c1c:	90                   	nop
    2c1d:	90                   	nop
    2c1e:	90                   	nop
    2c1f:	90                   	nop
    2c20:	90                   	nop
    2c21:	90                   	nop
    2c22:	90                   	nop
    2c23:	90                   	nop
    2c24:	90                   	nop
    2c25:	90                   	nop
    2c26:	90                   	nop
    2c27:	90                   	nop
    2c28:	90                   	nop
    2c29:	90                   	nop
    2c2a:	90                   	nop
    2c2b:	90                   	nop
    2c2c:	90                   	nop
    2c2d:	90                   	nop
    2c2e:	90                   	nop
    2c2f:	90                   	nop
    2c30:	90                   	nop
    2c31:	90                   	nop
    2c32:	90                   	nop
    2c33:	90                   	nop
    2c34:	90                   	nop
    2c35:	90                   	nop
    2c36:	90                   	nop
    2c37:	90                   	nop
    2c38:	90                   	nop
    2c39:	90                   	nop
    2c3a:	90                   	nop
    2c3b:	90                   	nop
    2c3c:	90                   	nop
    2c3d:	90                   	nop
    2c3e:	90                   	nop
    2c3f:	90                   	nop
    2c40:	90                   	nop
    2c41:	90                   	nop
    2c42:	90                   	nop
    2c43:	90                   	nop
    2c44:	90                   	nop
    2c45:	90                   	nop
    2c46:	90                   	nop
    2c47:	90                   	nop
    2c48:	90                   	nop
    2c49:	90                   	nop
    2c4a:	90                   	nop
    2c4b:	90                   	nop
    2c4c:	90                   	nop
    2c4d:	90                   	nop
    2c4e:	90                   	nop
    2c4f:	90                   	nop
    2c50:	90                   	nop
    2c51:	90                   	nop
    2c52:	90                   	nop
    2c53:	90                   	nop
    2c54:	90                   	nop
    2c55:	90                   	nop
    2c56:	90                   	nop
    2c57:	90                   	nop
    2c58:	90                   	nop
    2c59:	90                   	nop
    2c5a:	90                   	nop
    2c5b:	90                   	nop
    2c5c:	90                   	nop
    2c5d:	90                   	nop
    2c5e:	90                   	nop
    2c5f:	90                   	nop
    2c60:	90                   	nop
    2c61:	90                   	nop
    2c62:	90                   	nop
    2c63:	90                   	nop
    2c64:	90                   	nop
    2c65:	90                   	nop
    2c66:	90                   	nop
    2c67:	90                   	nop
    2c68:	90                   	nop
    2c69:	90                   	nop
    2c6a:	90                   	nop
    2c6b:	90                   	nop
    2c6c:	90                   	nop
    2c6d:	90                   	nop
    2c6e:	90                   	nop
    2c6f:	90                   	nop
    2c70:	90                   	nop
    2c71:	90                   	nop
    2c72:	90                   	nop
    2c73:	90                   	nop
    2c74:	90                   	nop
    2c75:	90                   	nop
    2c76:	90                   	nop
    2c77:	90                   	nop
    2c78:	90                   	nop
    2c79:	90                   	nop
    2c7a:	90                   	nop
    2c7b:	90                   	nop
    2c7c:	90                   	nop
    2c7d:	90                   	nop
    2c7e:	90                   	nop
    2c7f:	90                   	nop
    2c80:	90                   	nop
    2c81:	90                   	nop
    2c82:	90                   	nop
    2c83:	90                   	nop
    2c84:	90                   	nop
    2c85:	90                   	nop
    2c86:	90                   	nop
    2c87:	90                   	nop
    2c88:	90                   	nop
    2c89:	90                   	nop
    2c8a:	90                   	nop
    2c8b:	90                   	nop
    2c8c:	90                   	nop
    2c8d:	90                   	nop
    2c8e:	90                   	nop
    2c8f:	90                   	nop
    2c90:	90                   	nop
    2c91:	90                   	nop
    2c92:	90                   	nop
    2c93:	90                   	nop
    2c94:	90                   	nop
    2c95:	90                   	nop
    2c96:	90                   	nop
    2c97:	90                   	nop
    2c98:	90                   	nop
    2c99:	90                   	nop
    2c9a:	90                   	nop
    2c9b:	90                   	nop
    2c9c:	90                   	nop
    2c9d:	90                   	nop
    2c9e:	90                   	nop
    2c9f:	90                   	nop
    2ca0:	90                   	nop
    2ca1:	90                   	nop
    2ca2:	90                   	nop
    2ca3:	90                   	nop
    2ca4:	90                   	nop
    2ca5:	90                   	nop
    2ca6:	90                   	nop
    2ca7:	90                   	nop
    2ca8:	90                   	nop
    2ca9:	90                   	nop
    2caa:	90                   	nop
    2cab:	90                   	nop
    2cac:	90                   	nop
    2cad:	90                   	nop
    2cae:	90                   	nop
    2caf:	90                   	nop
    2cb0:	90                   	nop
    2cb1:	90                   	nop
    2cb2:	90                   	nop
    2cb3:	90                   	nop
    2cb4:	90                   	nop
    2cb5:	90                   	nop
    2cb6:	90                   	nop
    2cb7:	90                   	nop
    2cb8:	90                   	nop
    2cb9:	90                   	nop
    2cba:	90                   	nop
    2cbb:	90                   	nop
    2cbc:	90                   	nop
    2cbd:	90                   	nop
    2cbe:	90                   	nop
    2cbf:	90                   	nop
    2cc0:	90                   	nop
    2cc1:	90                   	nop
    2cc2:	90                   	nop
    2cc3:	90                   	nop
    2cc4:	90                   	nop
    2cc5:	90                   	nop
    2cc6:	90                   	nop
    2cc7:	90                   	nop
    2cc8:	90                   	nop
    2cc9:	90                   	nop
    2cca:	90                   	nop
    2ccb:	90                   	nop
    2ccc:	90                   	nop
    2ccd:	90                   	nop
    2cce:	90                   	nop
    2ccf:	90                   	nop
    2cd0:	90                   	nop
    2cd1:	90                   	nop
    2cd2:	90                   	nop
    2cd3:	90                   	nop
    2cd4:	90                   	nop
    2cd5:	90                   	nop
    2cd6:	90                   	nop
    2cd7:	90                   	nop
    2cd8:	90                   	nop
    2cd9:	90                   	nop
    2cda:	90                   	nop
    2cdb:	90                   	nop
    2cdc:	90                   	nop
    2cdd:	90                   	nop
    2cde:	90                   	nop
    2cdf:	90                   	nop
    2ce0:	90                   	nop
    2ce1:	90                   	nop
    2ce2:	90                   	nop
    2ce3:	90                   	nop
    2ce4:	90                   	nop
    2ce5:	90                   	nop
    2ce6:	90                   	nop
    2ce7:	90                   	nop
    2ce8:	90                   	nop
    2ce9:	90                   	nop
    2cea:	90                   	nop
    2ceb:	90                   	nop
    2cec:	90                   	nop
    2ced:	90                   	nop
    2cee:	90                   	nop
    2cef:	90                   	nop
    2cf0:	90                   	nop
    2cf1:	90                   	nop
    2cf2:	90                   	nop
    2cf3:	90                   	nop
    2cf4:	40 f6 c7 01          	test   dil,0x1
    2cf8:	0f 84 02 02 00 00    	je     2f00 <_Z8xor_gatePhS_S_j+0x3b0>
    2cfe:	c6 05 db 84 00 00 00 	mov    BYTE PTR [rip+0x84db],0x0        # b1e0 <tmp_reg5>
    2d05:	83 e7 02             	and    edi,0x2
    2d08:	0f 84 e2 01 00 00    	je     2ef0 <_Z8xor_gatePhS_S_j+0x3a0>
    2d0e:	c6 05 cb 7c 00 00 00 	mov    BYTE PTR [rip+0x7ccb],0x0        # a9e0 <tmp_reg6>
    2d15:	c7 44 24 08 00 00 00 	mov    DWORD PTR [rsp+0x8],0x0
    2d1c:	00 
    2d1d:	8b 44 24 08          	mov    eax,DWORD PTR [rsp+0x8]
    2d21:	3d ff 00 00 00       	cmp    eax,0xff
    2d26:	7f 1e                	jg     2d46 <_Z8xor_gatePhS_S_j+0x1f6>
    2d28:	0f 1f 84 00 00 00 00 	nop    DWORD PTR [rax+rax*1+0x0]
    2d2f:	00 
    2d30:	8b 44 24 08          	mov    eax,DWORD PTR [rsp+0x8]
    2d34:	83 c0 01             	add    eax,0x1
    2d37:	89 44 24 08          	mov    DWORD PTR [rsp+0x8],eax
    2d3b:	8b 44 24 08          	mov    eax,DWORD PTR [rsp+0x8]
    2d3f:	3d ff 00 00 00       	cmp    eax,0xff
    2d44:	7e ea                	jle    2d30 <_Z8xor_gatePhS_S_j+0x1e0>
    2d46:	48 8d 1d 93 5c 00 00 	lea    rbx,[rip+0x5c93]        # 89e0 <tmp_reg10>
    2d4d:	48 8d 35 8c 7c 00 00 	lea    rsi,[rip+0x7c8c]        # a9e0 <tmp_reg6>
    2d54:	48 89 da             	mov    rdx,rbx
    2d57:	48 8d 3d 82 84 00 00 	lea    rdi,[rip+0x8482]        # b1e0 <tmp_reg5>
    2d5e:	e8 7d fa ff ff       	call   27e0 <_Z9nand_gatePhS_S_>
    2d63:	c7 44 24 0c 00 00 00 	mov    DWORD PTR [rsp+0xc],0x0
    2d6a:	00 
    2d6b:	8b 44 24 0c          	mov    eax,DWORD PTR [rsp+0xc]
    2d6f:	3d ff 00 00 00       	cmp    eax,0xff
    2d74:	7f 20                	jg     2d96 <_Z8xor_gatePhS_S_j+0x246>
    2d76:	66 2e 0f 1f 84 00 00 	cs nop WORD PTR [rax+rax*1+0x0]
    2d7d:	00 00 00 
    2d80:	8b 44 24 0c          	mov    eax,DWORD PTR [rsp+0xc]
    2d84:	83 c0 01             	add    eax,0x1
    2d87:	89 44 24 0c          	mov    DWORD PTR [rsp+0xc],eax
    2d8b:	8b 44 24 0c          	mov    eax,DWORD PTR [rsp+0xc]
    2d8f:	3d ff 00 00 00       	cmp    eax,0xff
    2d94:	7e ea                	jle    2d80 <_Z8xor_gatePhS_S_j+0x230>
    2d96:	0f 01 f9             	rdtscp
    2d99:	48 c1 e2 20          	shl    rdx,0x20
    2d9d:	48 89 d6             	mov    rsi,rdx
    2da0:	09 c6                	or     esi,eax
    2da2:	8a 05 38 5c 00 00    	mov    al,BYTE PTR [rip+0x5c38]        # 89e0 <tmp_reg10>
    2da8:	0f 01 f9             	rdtscp
    2dab:	48 c1 e2 20          	shl    rdx,0x20
    2daf:	09 c2                	or     edx,eax
    2db1:	48 29 f2             	sub    rdx,rsi
    2db4:	48 89 d7             	mov    rdi,rdx
    2db7:	48 81 ff 13 01 00 00 	cmp    rdi,0x113
    2dbe:	0f 87 4c 01 00 00    	ja     2f10 <_Z8xor_gatePhS_S_j+0x3c0>
    2dc4:	c6 05 15 5c 00 00 00 	mov    BYTE PTR [rip+0x5c15],0x0        # 89e0 <tmp_reg10>
    2dcb:	48 31 d2             	xor    rdx,rdx
    2dce:	f6 f2                	div    dl
    2dd0:	49 0f b6 0b          	movzx  rcx,BYTE PTR [r11]
    2dd4:	48 01 d9             	add    rcx,rbx
    2dd7:	48 0f b6 11          	movzx  rdx,BYTE PTR [rcx]
    2ddb:	4c 01 d2             	add    rdx,r10
    2dde:	8a 12                	mov    dl,BYTE PTR [rdx]
    2de0:	90                   	nop
    2de1:	90                   	nop
    2de2:	90                   	nop
    2de3:	90                   	nop
    2de4:	90                   	nop
    2de5:	90                   	nop
    2de6:	90                   	nop
    2de7:	90                   	nop
    2de8:	90                   	nop
    2de9:	90                   	nop
    2dea:	90                   	nop
    2deb:	90                   	nop
    2dec:	90                   	nop
    2ded:	90                   	nop
    2dee:	90                   	nop
    2def:	90                   	nop
    2df0:	90                   	nop
    2df1:	90                   	nop
    2df2:	90                   	nop
    2df3:	90                   	nop
    2df4:	90                   	nop
    2df5:	90                   	nop
    2df6:	90                   	nop
    2df7:	90                   	nop
    2df8:	90                   	nop
    2df9:	90                   	nop
    2dfa:	90                   	nop
    2dfb:	90                   	nop
    2dfc:	90                   	nop
    2dfd:	90                   	nop
    2dfe:	90                   	nop
    2dff:	90                   	nop
    2e00:	90                   	nop
    2e01:	90                   	nop
    2e02:	90                   	nop
    2e03:	90                   	nop
    2e04:	90                   	nop
    2e05:	90                   	nop
    2e06:	90                   	nop
    2e07:	90                   	nop
    2e08:	90                   	nop
    2e09:	90                   	nop
    2e0a:	90                   	nop
    2e0b:	90                   	nop
    2e0c:	90                   	nop
    2e0d:	90                   	nop
    2e0e:	90                   	nop
    2e0f:	90                   	nop
    2e10:	90                   	nop
    2e11:	90                   	nop
    2e12:	90                   	nop
    2e13:	90                   	nop
    2e14:	90                   	nop
    2e15:	90                   	nop
    2e16:	90                   	nop
    2e17:	90                   	nop
    2e18:	90                   	nop
    2e19:	90                   	nop
    2e1a:	90                   	nop
    2e1b:	90                   	nop
    2e1c:	90                   	nop
    2e1d:	90                   	nop
    2e1e:	90                   	nop
    2e1f:	90                   	nop
    2e20:	90                   	nop
    2e21:	90                   	nop
    2e22:	90                   	nop
    2e23:	90                   	nop
    2e24:	90                   	nop
    2e25:	90                   	nop
    2e26:	90                   	nop
    2e27:	90                   	nop
    2e28:	90                   	nop
    2e29:	90                   	nop
    2e2a:	90                   	nop
    2e2b:	90                   	nop
    2e2c:	90                   	nop
    2e2d:	90                   	nop
    2e2e:	90                   	nop
    2e2f:	90                   	nop
    2e30:	90                   	nop
    2e31:	90                   	nop
    2e32:	90                   	nop
    2e33:	90                   	nop
    2e34:	90                   	nop
    2e35:	90                   	nop
    2e36:	90                   	nop
    2e37:	90                   	nop
    2e38:	90                   	nop
    2e39:	90                   	nop
    2e3a:	90                   	nop
    2e3b:	90                   	nop
    2e3c:	90                   	nop
    2e3d:	90                   	nop
    2e3e:	90                   	nop
    2e3f:	90                   	nop
    2e40:	90                   	nop
    2e41:	90                   	nop
    2e42:	90                   	nop
    2e43:	90                   	nop
    2e44:	90                   	nop
    2e45:	90                   	nop
    2e46:	90                   	nop
    2e47:	90                   	nop
    2e48:	90                   	nop
    2e49:	90                   	nop
    2e4a:	90                   	nop
    2e4b:	90                   	nop
    2e4c:	90                   	nop
    2e4d:	90                   	nop
    2e4e:	90                   	nop
    2e4f:	90                   	nop
    2e50:	90                   	nop
    2e51:	90                   	nop
    2e52:	90                   	nop
    2e53:	90                   	nop
    2e54:	90                   	nop
    2e55:	90                   	nop
    2e56:	90                   	nop
    2e57:	90                   	nop
    2e58:	90                   	nop
    2e59:	90                   	nop
    2e5a:	90                   	nop
    2e5b:	90                   	nop
    2e5c:	90                   	nop
    2e5d:	90                   	nop
    2e5e:	90                   	nop
    2e5f:	90                   	nop
    2e60:	90                   	nop
    2e61:	90                   	nop
    2e62:	90                   	nop
    2e63:	90                   	nop
    2e64:	90                   	nop
    2e65:	90                   	nop
    2e66:	90                   	nop
    2e67:	90                   	nop
    2e68:	90                   	nop
    2e69:	90                   	nop
    2e6a:	90                   	nop
    2e6b:	90                   	nop
    2e6c:	90                   	nop
    2e6d:	90                   	nop
    2e6e:	90                   	nop
    2e6f:	90                   	nop
    2e70:	90                   	nop
    2e71:	90                   	nop
    2e72:	90                   	nop
    2e73:	90                   	nop
    2e74:	90                   	nop
    2e75:	90                   	nop
    2e76:	90                   	nop
    2e77:	90                   	nop
    2e78:	90                   	nop
    2e79:	90                   	nop
    2e7a:	90                   	nop
    2e7b:	90                   	nop
    2e7c:	90                   	nop
    2e7d:	90                   	nop
    2e7e:	90                   	nop
    2e7f:	90                   	nop
    2e80:	90                   	nop
    2e81:	90                   	nop
    2e82:	90                   	nop
    2e83:	90                   	nop
    2e84:	90                   	nop
    2e85:	90                   	nop
    2e86:	90                   	nop
    2e87:	90                   	nop
    2e88:	90                   	nop
    2e89:	90                   	nop
    2e8a:	90                   	nop
    2e8b:	90                   	nop
    2e8c:	90                   	nop
    2e8d:	90                   	nop
    2e8e:	90                   	nop
    2e8f:	90                   	nop
    2e90:	90                   	nop
    2e91:	90                   	nop
    2e92:	90                   	nop
    2e93:	90                   	nop
    2e94:	90                   	nop
    2e95:	90                   	nop
    2e96:	90                   	nop
    2e97:	90                   	nop
    2e98:	90                   	nop
    2e99:	90                   	nop
    2e9a:	90                   	nop
    2e9b:	90                   	nop
    2e9c:	90                   	nop
    2e9d:	90                   	nop
    2e9e:	90                   	nop
    2e9f:	90                   	nop
    2ea0:	90                   	nop
    2ea1:	90                   	nop
    2ea2:	90                   	nop
    2ea3:	90                   	nop
    2ea4:	90                   	nop
    2ea5:	90                   	nop
    2ea6:	90                   	nop
    2ea7:	90                   	nop
    2ea8:	90                   	nop
    2ea9:	90                   	nop
    2eaa:	90                   	nop
    2eab:	90                   	nop
    2eac:	90                   	nop
    2ead:	90                   	nop
    2eae:	90                   	nop
    2eaf:	90                   	nop
    2eb0:	90                   	nop
    2eb1:	90                   	nop
    2eb2:	90                   	nop
    2eb3:	90                   	nop
    2eb4:	90                   	nop
    2eb5:	90                   	nop
    2eb6:	90                   	nop
    2eb7:	90                   	nop
    2eb8:	90                   	nop
    2eb9:	90                   	nop
    2eba:	90                   	nop
    2ebb:	90                   	nop
    2ebc:	90                   	nop
    2ebd:	90                   	nop
    2ebe:	90                   	nop
    2ebf:	90                   	nop
    2ec0:	90                   	nop
    2ec1:	90                   	nop
    2ec2:	90                   	nop
    2ec3:	90                   	nop
    2ec4:	90                   	nop
    2ec5:	90                   	nop
    2ec6:	90                   	nop
    2ec7:	90                   	nop
    2ec8:	90                   	nop
    2ec9:	90                   	nop
    2eca:	90                   	nop
    2ecb:	90                   	nop
    2ecc:	90                   	nop
    2ecd:	90                   	nop
    2ece:	90                   	nop
    2ecf:	90                   	nop
    2ed0:	90                   	nop
    2ed1:	90                   	nop
    2ed2:	90                   	nop
    2ed3:	90                   	nop
    2ed4:	90                   	nop
    2ed5:	90                   	nop
    2ed6:	90                   	nop
    2ed7:	90                   	nop
    2ed8:	90                   	nop
    2ed9:	90                   	nop
    2eda:	90                   	nop
    2edb:	90                   	nop
    2edc:	90                   	nop
    2edd:	90                   	nop
    2ede:	90                   	nop
    2edf:	90                   	nop
    2ee0:	48 83 c4 10          	add    rsp,0x10
    2ee4:	5b                   	pop    rbx
    2ee5:	c3                   	ret
    2ee6:	66 2e 0f 1f 84 00 00 	cs nop WORD PTR [rax+rax*1+0x0]
    2eed:	00 00 00 
    2ef0:	0f ae 3d e9 7a 00 00 	clflush BYTE PTR [rip+0x7ae9]        # a9e0 <tmp_reg6>
    2ef7:	e9 19 fe ff ff       	jmp    2d15 <_Z8xor_gatePhS_S_j+0x1c5>
    2efc:	0f 1f 40 00          	nop    DWORD PTR [rax+0x0]
    2f00:	0f ae 3d d9 82 00 00 	clflush BYTE PTR [rip+0x82d9]        # b1e0 <tmp_reg5>
    2f07:	e9 f9 fd ff ff       	jmp    2d05 <_Z8xor_gatePhS_S_j+0x1b5>
    2f0c:	0f 1f 40 00          	nop    DWORD PTR [rax+0x0]
    2f10:	0f ae 3d c9 5a 00 00 	clflush BYTE PTR [rip+0x5ac9]        # 89e0 <tmp_reg10>
    2f17:	e9 af fe ff ff       	jmp    2dcb <_Z8xor_gatePhS_S_j+0x27b>
    2f1c:	0f 1f 40 00          	nop    DWORD PTR [rax+0x0]

0000000000002f20 <_Z8mux_gatePhS_S_S_j>:
    2f20:	f3 0f 1e fa          	endbr64
    2f24:	53                   	push   rbx
    2f25:	49 89 f9             	mov    r9,rdi
    2f28:	49 89 d2             	mov    r10,rdx
    2f2b:	48 89 cf             	mov    rdi,rcx
    2f2e:	c6 05 ab a2 00 00 00 	mov    BYTE PTR [rip+0xa2ab],0x0        # d1e0 <tmp_reg1>
    2f35:	c6 05 a4 9a 00 00 00 	mov    BYTE PTR [rip+0x9aa4],0x0        # c9e0 <tmp_reg2>
    2f3c:	c6 05 9d 92 00 00 00 	mov    BYTE PTR [rip+0x929d],0x0        # c1e0 <tmp_reg3>
    2f43:	c6 05 96 8a 00 00 00 	mov    BYTE PTR [rip+0x8a96],0x0        # b9e0 <tmp_reg4>
    2f4a:	c6 05 8f 82 00 00 00 	mov    BYTE PTR [rip+0x828f],0x0        # b1e0 <tmp_reg5>
    2f51:	c6 05 88 7a 00 00 00 	mov    BYTE PTR [rip+0x7a88],0x0        # a9e0 <tmp_reg6>
    2f58:	41 f6 c0 04          	test   r8b,0x4
    2f5c:	75 0e                	jne    2f6c <_Z8mux_gatePhS_S_S_j+0x4c>
    2f5e:	0f ae 3d 7b a2 00 00 	clflush BYTE PTR [rip+0xa27b]        # d1e0 <tmp_reg1>
    2f65:	0f ae 3d 74 9a 00 00 	clflush BYTE PTR [rip+0x9a74]        # c9e0 <tmp_reg2>
    2f6c:	0f ae 3d 6d 92 00 00 	clflush BYTE PTR [rip+0x926d]        # c1e0 <tmp_reg3>
    2f73:	0f ae 3d 66 8a 00 00 	clflush BYTE PTR [rip+0x8a66]        # b9e0 <tmp_reg4>
    2f7a:	0f ae 3d 5f 82 00 00 	clflush BYTE PTR [rip+0x825f]        # b1e0 <tmp_reg5>
    2f81:	0f ae 3d 58 7a 00 00 	clflush BYTE PTR [rip+0x7a58]        # a9e0 <tmp_reg6>
    2f88:	c7 44 24 f0 00 00 00 	mov    DWORD PTR [rsp-0x10],0x0
    2f8f:	00 
    2f90:	8b 44 24 f0          	mov    eax,DWORD PTR [rsp-0x10]
    2f94:	3d ff 00 00 00       	cmp    eax,0xff
    2f99:	7f 1b                	jg     2fb6 <_Z8mux_gatePhS_S_S_j+0x96>
    2f9b:	0f 1f 44 00 00       	nop    DWORD PTR [rax+rax*1+0x0]
    2fa0:	8b 44 24 f0          	mov    eax,DWORD PTR [rsp-0x10]
    2fa4:	83 c0 01             	add    eax,0x1
    2fa7:	89 44 24 f0          	mov    DWORD PTR [rsp-0x10],eax
    2fab:	8b 44 24 f0          	mov    eax,DWORD PTR [rsp-0x10]
    2faf:	3d ff 00 00 00       	cmp    eax,0xff
    2fb4:	7e ea                	jle    2fa0 <_Z8mux_gatePhS_S_S_j+0x80>
    2fb6:	41 83 e0 01          	and    r8d,0x1
    2fba:	0f 84 e0 05 00 00    	je     35a0 <_Z8mux_gatePhS_S_S_j+0x680>
    2fc0:	41 c6 01 00          	mov    BYTE PTR [r9],0x0
    2fc4:	4c 8d 05 15 92 00 00 	lea    r8,[rip+0x9215]        # c1e0 <tmp_reg3>
    2fcb:	48 31 d2             	xor    rdx,rdx
    2fce:	f6 f2                	div    dl
    2fd0:	48 0f b6 0e          	movzx  rcx,BYTE PTR [rsi]
    2fd4:	4c 01 d1             	add    rcx,r10
    2fd7:	48 0f b6 11          	movzx  rdx,BYTE PTR [rcx]
    2fdb:	4c 01 c2             	add    rdx,r8
    2fde:	8a 12                	mov    dl,BYTE PTR [rdx]
    2fe0:	90                   	nop
    2fe1:	90                   	nop
    2fe2:	90                   	nop
    2fe3:	90                   	nop
    2fe4:	90                   	nop
    2fe5:	90                   	nop
    2fe6:	90                   	nop
    2fe7:	90                   	nop
    2fe8:	90                   	nop
    2fe9:	90                   	nop
    2fea:	90                   	nop
    2feb:	90                   	nop
    2fec:	90                   	nop
    2fed:	90                   	nop
    2fee:	90                   	nop
    2fef:	90                   	nop
    2ff0:	90                   	nop
    2ff1:	90                   	nop
    2ff2:	90                   	nop
    2ff3:	90                   	nop
    2ff4:	90                   	nop
    2ff5:	90                   	nop
    2ff6:	90                   	nop
    2ff7:	90                   	nop
    2ff8:	90                   	nop
    2ff9:	90                   	nop
    2ffa:	90                   	nop
    2ffb:	90                   	nop
    2ffc:	90                   	nop
    2ffd:	90                   	nop
    2ffe:	90                   	nop
    2fff:	90                   	nop
    3000:	90                   	nop
    3001:	90                   	nop
    3002:	90                   	nop
    3003:	90                   	nop
    3004:	90                   	nop
    3005:	90                   	nop
    3006:	90                   	nop
    3007:	90                   	nop
    3008:	90                   	nop
    3009:	90                   	nop
    300a:	90                   	nop
    300b:	90                   	nop
    300c:	90                   	nop
    300d:	90                   	nop
    300e:	90                   	nop
    300f:	90                   	nop
    3010:	90                   	nop
    3011:	90                   	nop
    3012:	90                   	nop
    3013:	90                   	nop
    3014:	90                   	nop
    3015:	90                   	nop
    3016:	90                   	nop
    3017:	90                   	nop
    3018:	90                   	nop
    3019:	90                   	nop
    301a:	90                   	nop
    301b:	90                   	nop
    301c:	90                   	nop
    301d:	90                   	nop
    301e:	90                   	nop
    301f:	90                   	nop
    3020:	90                   	nop
    3021:	90                   	nop
    3022:	90                   	nop
    3023:	90                   	nop
    3024:	90                   	nop
    3025:	90                   	nop
    3026:	90                   	nop
    3027:	90                   	nop
    3028:	90                   	nop
    3029:	90                   	nop
    302a:	90                   	nop
    302b:	90                   	nop
    302c:	90                   	nop
    302d:	90                   	nop
    302e:	90                   	nop
    302f:	90                   	nop
    3030:	90                   	nop
    3031:	90                   	nop
    3032:	90                   	nop
    3033:	90                   	nop
    3034:	90                   	nop
    3035:	90                   	nop
    3036:	90                   	nop
    3037:	90                   	nop
    3038:	90                   	nop
    3039:	90                   	nop
    303a:	90                   	nop
    303b:	90                   	nop
    303c:	90                   	nop
    303d:	90                   	nop
    303e:	90                   	nop
    303f:	90                   	nop
    3040:	90                   	nop
    3041:	90                   	nop
    3042:	90                   	nop
    3043:	90                   	nop
    3044:	90                   	nop
    3045:	90                   	nop
    3046:	90                   	nop
    3047:	90                   	nop
    3048:	90                   	nop
    3049:	90                   	nop
    304a:	90                   	nop
    304b:	90                   	nop
    304c:	90                   	nop
    304d:	90                   	nop
    304e:	90                   	nop
    304f:	90                   	nop
    3050:	90                   	nop
    3051:	90                   	nop
    3052:	90                   	nop
    3053:	90                   	nop
    3054:	90                   	nop
    3055:	90                   	nop
    3056:	90                   	nop
    3057:	90                   	nop
    3058:	90                   	nop
    3059:	90                   	nop
    305a:	90                   	nop
    305b:	90                   	nop
    305c:	90                   	nop
    305d:	90                   	nop
    305e:	90                   	nop
    305f:	90                   	nop
    3060:	90                   	nop
    3061:	90                   	nop
    3062:	90                   	nop
    3063:	90                   	nop
    3064:	90                   	nop
    3065:	90                   	nop
    3066:	90                   	nop
    3067:	90                   	nop
    3068:	90                   	nop
    3069:	90                   	nop
    306a:	90                   	nop
    306b:	90                   	nop
    306c:	90                   	nop
    306d:	90                   	nop
    306e:	90                   	nop
    306f:	90                   	nop
    3070:	90                   	nop
    3071:	90                   	nop
    3072:	90                   	nop
    3073:	90                   	nop
    3074:	90                   	nop
    3075:	90                   	nop
    3076:	90                   	nop
    3077:	90                   	nop
    3078:	90                   	nop
    3079:	90                   	nop
    307a:	90                   	nop
    307b:	90                   	nop
    307c:	90                   	nop
    307d:	90                   	nop
    307e:	90                   	nop
    307f:	90                   	nop
    3080:	90                   	nop
    3081:	90                   	nop
    3082:	90                   	nop
    3083:	90                   	nop
    3084:	90                   	nop
    3085:	90                   	nop
    3086:	90                   	nop
    3087:	90                   	nop
    3088:	90                   	nop
    3089:	90                   	nop
    308a:	90                   	nop
    308b:	90                   	nop
    308c:	90                   	nop
    308d:	90                   	nop
    308e:	90                   	nop
    308f:	90                   	nop
    3090:	90                   	nop
    3091:	90                   	nop
    3092:	90                   	nop
    3093:	90                   	nop
    3094:	90                   	nop
    3095:	90                   	nop
    3096:	90                   	nop
    3097:	90                   	nop
    3098:	90                   	nop
    3099:	90                   	nop
    309a:	90                   	nop
    309b:	90                   	nop
    309c:	90                   	nop
    309d:	90                   	nop
    309e:	90                   	nop
    309f:	90                   	nop
    30a0:	90                   	nop
    30a1:	90                   	nop
    30a2:	90                   	nop
    30a3:	90                   	nop
    30a4:	90                   	nop
    30a5:	90                   	nop
    30a6:	90                   	nop
    30a7:	90                   	nop
    30a8:	90                   	nop
    30a9:	90                   	nop
    30aa:	90                   	nop
    30ab:	90                   	nop
    30ac:	90                   	nop
    30ad:	90                   	nop
    30ae:	90                   	nop
    30af:	90                   	nop
    30b0:	90                   	nop
    30b1:	90                   	nop
    30b2:	90                   	nop
    30b3:	90                   	nop
    30b4:	90                   	nop
    30b5:	90                   	nop
    30b6:	90                   	nop
    30b7:	90                   	nop
    30b8:	90                   	nop
    30b9:	90                   	nop
    30ba:	90                   	nop
    30bb:	90                   	nop
    30bc:	90                   	nop
    30bd:	90                   	nop
    30be:	90                   	nop
    30bf:	90                   	nop
    30c0:	90                   	nop
    30c1:	90                   	nop
    30c2:	90                   	nop
    30c3:	90                   	nop
    30c4:	90                   	nop
    30c5:	90                   	nop
    30c6:	90                   	nop
    30c7:	90                   	nop
    30c8:	90                   	nop
    30c9:	90                   	nop
    30ca:	90                   	nop
    30cb:	90                   	nop
    30cc:	90                   	nop
    30cd:	90                   	nop
    30ce:	90                   	nop
    30cf:	90                   	nop
    30d0:	90                   	nop
    30d1:	90                   	nop
    30d2:	90                   	nop
    30d3:	90                   	nop
    30d4:	90                   	nop
    30d5:	90                   	nop
    30d6:	90                   	nop
    30d7:	90                   	nop
    30d8:	90                   	nop
    30d9:	90                   	nop
    30da:	90                   	nop
    30db:	90                   	nop
    30dc:	90                   	nop
    30dd:	90                   	nop
    30de:	90                   	nop
    30df:	90                   	nop
    30e0:	4c 8d 1d f9 88 00 00 	lea    r11,[rip+0x88f9]        # b9e0 <tmp_reg4>
    30e7:	48 8d 35 f2 a0 00 00 	lea    rsi,[rip+0xa0f2]        # d1e0 <tmp_reg1>
    30ee:	4c 8d 15 eb 80 00 00 	lea    r10,[rip+0x80eb]        # b1e0 <tmp_reg5>
    30f5:	48 8d 1d e4 98 00 00 	lea    rbx,[rip+0x98e4]        # c9e0 <tmp_reg2>
    30fc:	48 0f b6 16          	movzx  rdx,BYTE PTR [rsi]
    3100:	48 01 da             	add    rdx,rbx
    3103:	48 0f b6 12          	movzx  rdx,BYTE PTR [rdx]
    3107:	f6 f2                	div    dl
    3109:	49 0f b6 0a          	movzx  rcx,BYTE PTR [r10]
    310d:	4c 01 d9             	add    rcx,r11
    3110:	8a 11                	mov    dl,BYTE PTR [rcx]
    3112:	90                   	nop
    3113:	90                   	nop
    3114:	90                   	nop
    3115:	90                   	nop
    3116:	90                   	nop
    3117:	90                   	nop
    3118:	90                   	nop
    3119:	90                   	nop
    311a:	90                   	nop
    311b:	90                   	nop
    311c:	90                   	nop
    311d:	90                   	nop
    311e:	90                   	nop
    311f:	90                   	nop
    3120:	90                   	nop
    3121:	90                   	nop
    3122:	90                   	nop
    3123:	90                   	nop
    3124:	90                   	nop
    3125:	90                   	nop
    3126:	90                   	nop
    3127:	90                   	nop
    3128:	90                   	nop
    3129:	90                   	nop
    312a:	90                   	nop
    312b:	90                   	nop
    312c:	90                   	nop
    312d:	90                   	nop
    312e:	90                   	nop
    312f:	90                   	nop
    3130:	90                   	nop
    3131:	90                   	nop
    3132:	90                   	nop
    3133:	90                   	nop
    3134:	90                   	nop
    3135:	90                   	nop
    3136:	90                   	nop
    3137:	90                   	nop
    3138:	90                   	nop
    3139:	90                   	nop
    313a:	90                   	nop
    313b:	90                   	nop
    313c:	90                   	nop
    313d:	90                   	nop
    313e:	90                   	nop
    313f:	90                   	nop
    3140:	90                   	nop
    3141:	90                   	nop
    3142:	90                   	nop
    3143:	90                   	nop
    3144:	90                   	nop
    3145:	90                   	nop
    3146:	90                   	nop
    3147:	90                   	nop
    3148:	90                   	nop
    3149:	90                   	nop
    314a:	90                   	nop
    314b:	90                   	nop
    314c:	90                   	nop
    314d:	90                   	nop
    314e:	90                   	nop
    314f:	90                   	nop
    3150:	90                   	nop
    3151:	90                   	nop
    3152:	90                   	nop
    3153:	90                   	nop
    3154:	90                   	nop
    3155:	90                   	nop
    3156:	90                   	nop
    3157:	90                   	nop
    3158:	90                   	nop
    3159:	90                   	nop
    315a:	90                   	nop
    315b:	90                   	nop
    315c:	90                   	nop
    315d:	90                   	nop
    315e:	90                   	nop
    315f:	90                   	nop
    3160:	90                   	nop
    3161:	90                   	nop
    3162:	90                   	nop
    3163:	90                   	nop
    3164:	90                   	nop
    3165:	90                   	nop
    3166:	90                   	nop
    3167:	90                   	nop
    3168:	90                   	nop
    3169:	90                   	nop
    316a:	90                   	nop
    316b:	90                   	nop
    316c:	90                   	nop
    316d:	90                   	nop
    316e:	90                   	nop
    316f:	90                   	nop
    3170:	90                   	nop
    3171:	90                   	nop
    3172:	90                   	nop
    3173:	90                   	nop
    3174:	90                   	nop
    3175:	90                   	nop
    3176:	90                   	nop
    3177:	90                   	nop
    3178:	90                   	nop
    3179:	90                   	nop
    317a:	90                   	nop
    317b:	90                   	nop
    317c:	90                   	nop
    317d:	90                   	nop
    317e:	90                   	nop
    317f:	90                   	nop
    3180:	90                   	nop
    3181:	90                   	nop
    3182:	90                   	nop
    3183:	90                   	nop
    3184:	90                   	nop
    3185:	90                   	nop
    3186:	90                   	nop
    3187:	90                   	nop
    3188:	90                   	nop
    3189:	90                   	nop
    318a:	90                   	nop
    318b:	90                   	nop
    318c:	90                   	nop
    318d:	90                   	nop
    318e:	90                   	nop
    318f:	90                   	nop
    3190:	90                   	nop
    3191:	90                   	nop
    3192:	90                   	nop
    3193:	90                   	nop
    3194:	90                   	nop
    3195:	90                   	nop
    3196:	90                   	nop
    3197:	90                   	nop
    3198:	90                   	nop
    3199:	90                   	nop
    319a:	90                   	nop
    319b:	90                   	nop
    319c:	90                   	nop
    319d:	90                   	nop
    319e:	90                   	nop
    319f:	90                   	nop
    31a0:	90                   	nop
    31a1:	90                   	nop
    31a2:	90                   	nop
    31a3:	90                   	nop
    31a4:	90                   	nop
    31a5:	90                   	nop
    31a6:	90                   	nop
    31a7:	90                   	nop
    31a8:	90                   	nop
    31a9:	90                   	nop
    31aa:	90                   	nop
    31ab:	90                   	nop
    31ac:	90                   	nop
    31ad:	90                   	nop
    31ae:	90                   	nop
    31af:	90                   	nop
    31b0:	90                   	nop
    31b1:	90                   	nop
    31b2:	90                   	nop
    31b3:	90                   	nop
    31b4:	90                   	nop
    31b5:	90                   	nop
    31b6:	90                   	nop
    31b7:	90                   	nop
    31b8:	90                   	nop
    31b9:	90                   	nop
    31ba:	90                   	nop
    31bb:	90                   	nop
    31bc:	90                   	nop
    31bd:	90                   	nop
    31be:	90                   	nop
    31bf:	90                   	nop
    31c0:	90                   	nop
    31c1:	90                   	nop
    31c2:	90                   	nop
    31c3:	90                   	nop
    31c4:	90                   	nop
    31c5:	90                   	nop
    31c6:	90                   	nop
    31c7:	90                   	nop
    31c8:	90                   	nop
    31c9:	90                   	nop
    31ca:	90                   	nop
    31cb:	90                   	nop
    31cc:	90                   	nop
    31cd:	90                   	nop
    31ce:	90                   	nop
    31cf:	90                   	nop
    31d0:	90                   	nop
    31d1:	90                   	nop
    31d2:	90                   	nop
    31d3:	90                   	nop
    31d4:	90                   	nop
    31d5:	90                   	nop
    31d6:	90                   	nop
    31d7:	90                   	nop
    31d8:	90                   	nop
    31d9:	90                   	nop
    31da:	90                   	nop
    31db:	90                   	nop
    31dc:	90                   	nop
    31dd:	90                   	nop
    31de:	90                   	nop
    31df:	90                   	nop
    31e0:	90                   	nop
    31e1:	90                   	nop
    31e2:	90                   	nop
    31e3:	90                   	nop
    31e4:	90                   	nop
    31e5:	90                   	nop
    31e6:	90                   	nop
    31e7:	90                   	nop
    31e8:	90                   	nop
    31e9:	90                   	nop
    31ea:	90                   	nop
    31eb:	90                   	nop
    31ec:	90                   	nop
    31ed:	90                   	nop
    31ee:	90                   	nop
    31ef:	90                   	nop
    31f0:	90                   	nop
    31f1:	90                   	nop
    31f2:	90                   	nop
    31f3:	90                   	nop
    31f4:	90                   	nop
    31f5:	90                   	nop
    31f6:	90                   	nop
    31f7:	90                   	nop
    31f8:	90                   	nop
    31f9:	90                   	nop
    31fa:	90                   	nop
    31fb:	90                   	nop
    31fc:	90                   	nop
    31fd:	90                   	nop
    31fe:	90                   	nop
    31ff:	90                   	nop
    3200:	90                   	nop
    3201:	90                   	nop
    3202:	90                   	nop
    3203:	90                   	nop
    3204:	90                   	nop
    3205:	90                   	nop
    3206:	90                   	nop
    3207:	90                   	nop
    3208:	90                   	nop
    3209:	90                   	nop
    320a:	90                   	nop
    320b:	90                   	nop
    320c:	90                   	nop
    320d:	90                   	nop
    320e:	90                   	nop
    320f:	90                   	nop
    3210:	90                   	nop
    3211:	90                   	nop
    3212:	c7 44 24 f4 00 00 00 	mov    DWORD PTR [rsp-0xc],0x0
    3219:	00 
    321a:	8b 44 24 f4          	mov    eax,DWORD PTR [rsp-0xc]
    321e:	3d ff 00 00 00       	cmp    eax,0xff
    3223:	7f 19                	jg     323e <_Z8mux_gatePhS_S_S_j+0x31e>
    3225:	0f 1f 00             	nop    DWORD PTR [rax]
    3228:	8b 44 24 f4          	mov    eax,DWORD PTR [rsp-0xc]
    322c:	83 c0 01             	add    eax,0x1
    322f:	89 44 24 f4          	mov    DWORD PTR [rsp-0xc],eax
    3233:	8b 44 24 f4          	mov    eax,DWORD PTR [rsp-0xc]
    3237:	3d ff 00 00 00       	cmp    eax,0xff
    323c:	7e ea                	jle    3228 <_Z8mux_gatePhS_S_S_j+0x308>
    323e:	0f 01 f9             	rdtscp
    3241:	48 c1 e2 20          	shl    rdx,0x20
    3245:	48 89 d6             	mov    rsi,rdx
    3248:	09 c6                	or     esi,eax
    324a:	8a 05 90 87 00 00    	mov    al,BYTE PTR [rip+0x8790]        # b9e0 <tmp_reg4>
    3250:	0f 01 f9             	rdtscp
    3253:	48 c1 e2 20          	shl    rdx,0x20
    3257:	09 c2                	or     edx,eax
    3259:	48 29 f2             	sub    rdx,rsi
    325c:	49 89 d2             	mov    r10,rdx
    325f:	49 81 fa 13 01 00 00 	cmp    r10,0x113
    3266:	0f 87 24 03 00 00    	ja     3590 <_Z8mux_gatePhS_S_S_j+0x670>
    326c:	c6 05 6d 87 00 00 00 	mov    BYTE PTR [rip+0x876d],0x0        # b9e0 <tmp_reg4>
    3273:	0f 01 f9             	rdtscp
    3276:	48 c1 e2 20          	shl    rdx,0x20
    327a:	48 89 d6             	mov    rsi,rdx
    327d:	09 c6                	or     esi,eax
    327f:	8a 05 5b 8f 00 00    	mov    al,BYTE PTR [rip+0x8f5b]        # c1e0 <tmp_reg3>
    3285:	0f 01 f9             	rdtscp
    3288:	48 c1 e2 20          	shl    rdx,0x20
    328c:	09 c2                	or     edx,eax
    328e:	48 29 f2             	sub    rdx,rsi
    3291:	48 89 d3             	mov    rbx,rdx
    3294:	4c 8d 15 45 77 00 00 	lea    r10,[rip+0x7745]        # a9e0 <tmp_reg6>
    329b:	48 31 d2             	xor    rdx,rdx
    329e:	f6 f2                	div    dl
    32a0:	49 0f b6 09          	movzx  rcx,BYTE PTR [r9]
    32a4:	4c 01 d9             	add    rcx,r11
    32a7:	48 0f b6 11          	movzx  rdx,BYTE PTR [rcx]
    32ab:	4c 01 d2             	add    rdx,r10
    32ae:	8a 12                	mov    dl,BYTE PTR [rdx]
    32b0:	90                   	nop
    32b1:	90                   	nop
    32b2:	90                   	nop
    32b3:	90                   	nop
    32b4:	90                   	nop
    32b5:	90                   	nop
    32b6:	90                   	nop
    32b7:	90                   	nop
    32b8:	90                   	nop
    32b9:	90                   	nop
    32ba:	90                   	nop
    32bb:	90                   	nop
    32bc:	90                   	nop
    32bd:	90                   	nop
    32be:	90                   	nop
    32bf:	90                   	nop
    32c0:	90                   	nop
    32c1:	90                   	nop
    32c2:	90                   	nop
    32c3:	90                   	nop
    32c4:	90                   	nop
    32c5:	90                   	nop
    32c6:	90                   	nop
    32c7:	90                   	nop
    32c8:	90                   	nop
    32c9:	90                   	nop
    32ca:	90                   	nop
    32cb:	90                   	nop
    32cc:	90                   	nop
    32cd:	90                   	nop
    32ce:	90                   	nop
    32cf:	90                   	nop
    32d0:	90                   	nop
    32d1:	90                   	nop
    32d2:	90                   	nop
    32d3:	90                   	nop
    32d4:	90                   	nop
    32d5:	90                   	nop
    32d6:	90                   	nop
    32d7:	90                   	nop
    32d8:	90                   	nop
    32d9:	90                   	nop
    32da:	90                   	nop
    32db:	90                   	nop
    32dc:	90                   	nop
    32dd:	90                   	nop
    32de:	90                   	nop
    32df:	90                   	nop
    32e0:	90                   	nop
    32e1:	90                   	nop
    32e2:	90                   	nop
    32e3:	90                   	nop
    32e4:	90                   	nop
    32e5:	90                   	nop
    32e6:	90                   	nop
    32e7:	90                   	nop
    32e8:	90                   	nop
    32e9:	90                   	nop
    32ea:	90                   	nop
    32eb:	90                   	nop
    32ec:	90                   	nop
    32ed:	90                   	nop
    32ee:	90                   	nop
    32ef:	90                   	nop
    32f0:	90                   	nop
    32f1:	90                   	nop
    32f2:	90                   	nop
    32f3:	90                   	nop
    32f4:	90                   	nop
    32f5:	90                   	nop
    32f6:	90                   	nop
    32f7:	90                   	nop
    32f8:	90                   	nop
    32f9:	90                   	nop
    32fa:	90                   	nop
    32fb:	90                   	nop
    32fc:	90                   	nop
    32fd:	90                   	nop
    32fe:	90                   	nop
    32ff:	90                   	nop
    3300:	90                   	nop
    3301:	90                   	nop
    3302:	90                   	nop
    3303:	90                   	nop
    3304:	90                   	nop
    3305:	90                   	nop
    3306:	90                   	nop
    3307:	90                   	nop
    3308:	90                   	nop
    3309:	90                   	nop
    330a:	90                   	nop
    330b:	90                   	nop
    330c:	90                   	nop
    330d:	90                   	nop
    330e:	90                   	nop
    330f:	90                   	nop
    3310:	90                   	nop
    3311:	90                   	nop
    3312:	90                   	nop
    3313:	90                   	nop
    3314:	90                   	nop
    3315:	90                   	nop
    3316:	90                   	nop
    3317:	90                   	nop
    3318:	90                   	nop
    3319:	90                   	nop
    331a:	90                   	nop
    331b:	90                   	nop
    331c:	90                   	nop
    331d:	90                   	nop
    331e:	90                   	nop
    331f:	90                   	nop
    3320:	90                   	nop
    3321:	90                   	nop
    3322:	90                   	nop
    3323:	90                   	nop
    3324:	90                   	nop
    3325:	90                   	nop
    3326:	90                   	nop
    3327:	90                   	nop
    3328:	90                   	nop
    3329:	90                   	nop
    332a:	90                   	nop
    332b:	90                   	nop
    332c:	90                   	nop
    332d:	90                   	nop
    332e:	90                   	nop
    332f:	90                   	nop
    3330:	90                   	nop
    3331:	90                   	nop
    3332:	90                   	nop
    3333:	90                   	nop
    3334:	90                   	nop
    3335:	90                   	nop
    3336:	90                   	nop
    3337:	90                   	nop
    3338:	90                   	nop
    3339:	90                   	nop
    333a:	90                   	nop
    333b:	90                   	nop
    333c:	90                   	nop
    333d:	90                   	nop
    333e:	90                   	nop
    333f:	90                   	nop
    3340:	90                   	nop
    3341:	90                   	nop
    3342:	90                   	nop
    3343:	90                   	nop
    3344:	90                   	nop
    3345:	90                   	nop
    3346:	90                   	nop
    3347:	90                   	nop
    3348:	90                   	nop
    3349:	90                   	nop
    334a:	90                   	nop
    334b:	90                   	nop
    334c:	90                   	nop
    334d:	90                   	nop
    334e:	90                   	nop
    334f:	90                   	nop
    3350:	90                   	nop
    3351:	90                   	nop
    3352:	90                   	nop
    3353:	90                   	nop
    3354:	90                   	nop
    3355:	90                   	nop
    3356:	90                   	nop
    3357:	90                   	nop
    3358:	90                   	nop
    3359:	90                   	nop
    335a:	90                   	nop
    335b:	90                   	nop
    335c:	90                   	nop
    335d:	90                   	nop
    335e:	90                   	nop
    335f:	90                   	nop
    3360:	90                   	nop
    3361:	90                   	nop
    3362:	90                   	nop
    3363:	90                   	nop
    3364:	90                   	nop
    3365:	90                   	nop
    3366:	90                   	nop
    3367:	90                   	nop
    3368:	90                   	nop
    3369:	90                   	nop
    336a:	90                   	nop
    336b:	90                   	nop
    336c:	90                   	nop
    336d:	90                   	nop
    336e:	90                   	nop
    336f:	90                   	nop
    3370:	90                   	nop
    3371:	90                   	nop
    3372:	90                   	nop
    3373:	90                   	nop
    3374:	90                   	nop
    3375:	90                   	nop
    3376:	90                   	nop
    3377:	90                   	nop
    3378:	90                   	nop
    3379:	90                   	nop
    337a:	90                   	nop
    337b:	90                   	nop
    337c:	90                   	nop
    337d:	90                   	nop
    337e:	90                   	nop
    337f:	90                   	nop
    3380:	90                   	nop
    3381:	90                   	nop
    3382:	90                   	nop
    3383:	90                   	nop
    3384:	90                   	nop
    3385:	90                   	nop
    3386:	90                   	nop
    3387:	90                   	nop
    3388:	90                   	nop
    3389:	90                   	nop
    338a:	90                   	nop
    338b:	90                   	nop
    338c:	90                   	nop
    338d:	90                   	nop
    338e:	90                   	nop
    338f:	90                   	nop
    3390:	90                   	nop
    3391:	90                   	nop
    3392:	90                   	nop
    3393:	90                   	nop
    3394:	90                   	nop
    3395:	90                   	nop
    3396:	90                   	nop
    3397:	90                   	nop
    3398:	90                   	nop
    3399:	90                   	nop
    339a:	90                   	nop
    339b:	90                   	nop
    339c:	90                   	nop
    339d:	90                   	nop
    339e:	90                   	nop
    339f:	90                   	nop
    33a0:	90                   	nop
    33a1:	90                   	nop
    33a2:	90                   	nop
    33a3:	90                   	nop
    33a4:	90                   	nop
    33a5:	90                   	nop
    33a6:	90                   	nop
    33a7:	90                   	nop
    33a8:	90                   	nop
    33a9:	90                   	nop
    33aa:	90                   	nop
    33ab:	90                   	nop
    33ac:	90                   	nop
    33ad:	90                   	nop
    33ae:	90                   	nop
    33af:	90                   	nop
    33b0:	c7 44 24 f8 00 00 00 	mov    DWORD PTR [rsp-0x8],0x0
    33b7:	00 
    33b8:	8b 44 24 f8          	mov    eax,DWORD PTR [rsp-0x8]
    33bc:	3d ff 00 00 00       	cmp    eax,0xff
    33c1:	7f 1b                	jg     33de <_Z8mux_gatePhS_S_S_j+0x4be>
    33c3:	0f 1f 44 00 00       	nop    DWORD PTR [rax+rax*1+0x0]
    33c8:	8b 44 24 f8          	mov    eax,DWORD PTR [rsp-0x8]
    33cc:	83 c0 01             	add    eax,0x1
    33cf:	89 44 24 f8          	mov    DWORD PTR [rsp-0x8],eax
    33d3:	8b 44 24 f8          	mov    eax,DWORD PTR [rsp-0x8]
    33d7:	3d ff 00 00 00       	cmp    eax,0xff
    33dc:	7e ea                	jle    33c8 <_Z8mux_gatePhS_S_S_j+0x4a8>
    33de:	0f 01 f9             	rdtscp
    33e1:	48 c1 e2 20          	shl    rdx,0x20
    33e5:	48 89 d6             	mov    rsi,rdx
    33e8:	09 c6                	or     esi,eax
    33ea:	8a 05 f0 75 00 00    	mov    al,BYTE PTR [rip+0x75f0]        # a9e0 <tmp_reg6>
    33f0:	0f 01 f9             	rdtscp
    33f3:	48 c1 e2 20          	shl    rdx,0x20
    33f7:	09 c2                	or     edx,eax
    33f9:	48 29 f2             	sub    rdx,rsi
    33fc:	49 89 d1             	mov    r9,rdx
    33ff:	49 81 f9 13 01 00 00 	cmp    r9,0x113
    3406:	0f 87 74 01 00 00    	ja     3580 <_Z8mux_gatePhS_S_S_j+0x660>
    340c:	c6 05 cd 75 00 00 00 	mov    BYTE PTR [rip+0x75cd],0x0        # a9e0 <tmp_reg6>
    3413:	48 81 fb 13 01 00 00 	cmp    rbx,0x113
    341a:	0f 87 50 01 00 00    	ja     3570 <_Z8mux_gatePhS_S_S_j+0x650>
    3420:	c6 05 b9 8d 00 00 00 	mov    BYTE PTR [rip+0x8db9],0x0        # c1e0 <tmp_reg3>
    3427:	c7 44 24 fc 00 00 00 	mov    DWORD PTR [rsp-0x4],0x0
    342e:	00 
    342f:	8b 44 24 fc          	mov    eax,DWORD PTR [rsp-0x4]
    3433:	3d ff 00 00 00       	cmp    eax,0xff
    3438:	7f 1c                	jg     3456 <_Z8mux_gatePhS_S_S_j+0x536>
    343a:	66 0f 1f 44 00 00    	nop    WORD PTR [rax+rax*1+0x0]
    3440:	8b 44 24 fc          	mov    eax,DWORD PTR [rsp-0x4]
    3444:	83 c0 01             	add    eax,0x1
    3447:	89 44 24 fc          	mov    DWORD PTR [rsp-0x4],eax
    344b:	8b 44 24 fc          	mov    eax,DWORD PTR [rsp-0x4]
    344f:	3d ff 00 00 00       	cmp    eax,0xff
    3454:	7e ea                	jle    3440 <_Z8mux_gatePhS_S_S_j+0x520>
    3456:	48 31 d2             	xor    rdx,rdx
    3459:	f6 f2                	div    dl
    345b:	49 0f b6 08          	movzx  rcx,BYTE PTR [r8]
    345f:	48 01 f9             	add    rcx,rdi
    3462:	8a 01                	mov    al,BYTE PTR [rcx]
    3464:	49 0f b6 0a          	movzx  rcx,BYTE PTR [r10]
    3468:	48 01 f9             	add    rcx,rdi
    346b:	8a 11                	mov    dl,BYTE PTR [rcx]
    346d:	90                   	nop
    346e:	90                   	nop
    346f:	90                   	nop
    3470:	90                   	nop
    3471:	90                   	nop
    3472:	90                   	nop
    3473:	90                   	nop
    3474:	90                   	nop
    3475:	90                   	nop
    3476:	90                   	nop
    3477:	90                   	nop
    3478:	90                   	nop
    3479:	90                   	nop
    347a:	90                   	nop
    347b:	90                   	nop
    347c:	90                   	nop
    347d:	90                   	nop
    347e:	90                   	nop
    347f:	90                   	nop
    3480:	90                   	nop
    3481:	90                   	nop
    3482:	90                   	nop
    3483:	90                   	nop
    3484:	90                   	nop
    3485:	90                   	nop
    3486:	90                   	nop
    3487:	90                   	nop
    3488:	90                   	nop
    3489:	90                   	nop
    348a:	90                   	nop
    348b:	90                   	nop
    348c:	90                   	nop
    348d:	90                   	nop
    348e:	90                   	nop
    348f:	90                   	nop
    3490:	90                   	nop
    3491:	90                   	nop
    3492:	90                   	nop
    3493:	90                   	nop
    3494:	90                   	nop
    3495:	90                   	nop
    3496:	90                   	nop
    3497:	90                   	nop
    3498:	90                   	nop
    3499:	90                   	nop
    349a:	90                   	nop
    349b:	90                   	nop
    349c:	90                   	nop
    349d:	90                   	nop
    349e:	90                   	nop
    349f:	90                   	nop
    34a0:	90                   	nop
    34a1:	90                   	nop
    34a2:	90                   	nop
    34a3:	90                   	nop
    34a4:	90                   	nop
    34a5:	90                   	nop
    34a6:	90                   	nop
    34a7:	90                   	nop
    34a8:	90                   	nop
    34a9:	90                   	nop
    34aa:	90                   	nop
    34ab:	90                   	nop
    34ac:	90                   	nop
    34ad:	90                   	nop
    34ae:	90                   	nop
    34af:	90                   	nop
    34b0:	90                   	nop
    34b1:	90                   	nop
    34b2:	90                   	nop
    34b3:	90                   	nop
    34b4:	90                   	nop
    34b5:	90                   	nop
    34b6:	90                   	nop
    34b7:	90                   	nop
    34b8:	90                   	nop
    34b9:	90                   	nop
    34ba:	90                   	nop
    34bb:	90                   	nop
    34bc:	90                   	nop
    34bd:	90                   	nop
    34be:	90                   	nop
    34bf:	90                   	nop
    34c0:	90                   	nop
    34c1:	90                   	nop
    34c2:	90                   	nop
    34c3:	90                   	nop
    34c4:	90                   	nop
    34c5:	90                   	nop
    34c6:	90                   	nop
    34c7:	90                   	nop
    34c8:	90                   	nop
    34c9:	90                   	nop
    34ca:	90                   	nop
    34cb:	90                   	nop
    34cc:	90                   	nop
    34cd:	90                   	nop
    34ce:	90                   	nop
    34cf:	90                   	nop
    34d0:	90                   	nop
    34d1:	90                   	nop
    34d2:	90                   	nop
    34d3:	90                   	nop
    34d4:	90                   	nop
    34d5:	90                   	nop
    34d6:	90                   	nop
    34d7:	90                   	nop
    34d8:	90                   	nop
    34d9:	90                   	nop
    34da:	90                   	nop
    34db:	90                   	nop
    34dc:	90                   	nop
    34dd:	90                   	nop
    34de:	90                   	nop
    34df:	90                   	nop
    34e0:	90                   	nop
    34e1:	90                   	nop
    34e2:	90                   	nop
    34e3:	90                   	nop
    34e4:	90                   	nop
    34e5:	90                   	nop
    34e6:	90                   	nop
    34e7:	90                   	nop
    34e8:	90                   	nop
    34e9:	90                   	nop
    34ea:	90                   	nop
    34eb:	90                   	nop
    34ec:	90                   	nop
    34ed:	90                   	nop
    34ee:	90                   	nop
    34ef:	90                   	nop
    34f0:	90                   	nop
    34f1:	90                   	nop
    34f2:	90                   	nop
    34f3:	90                   	nop
    34f4:	90                   	nop
    34f5:	90                   	nop
    34f6:	90                   	nop
    34f7:	90                   	nop
    34f8:	90                   	nop
    34f9:	90                   	nop
    34fa:	90                   	nop
    34fb:	90                   	nop
    34fc:	90                   	nop
    34fd:	90                   	nop
    34fe:	90                   	nop
    34ff:	90                   	nop
    3500:	90                   	nop
    3501:	90                   	nop
    3502:	90                   	nop
    3503:	90                   	nop
    3504:	90                   	nop
    3505:	90                   	nop
    3506:	90                   	nop
    3507:	90                   	nop
    3508:	90                   	nop
    3509:	90                   	nop
    350a:	90                   	nop
    350b:	90                   	nop
    350c:	90                   	nop
    350d:	90                   	nop
    350e:	90                   	nop
    350f:	90                   	nop
    3510:	90                   	nop
    3511:	90                   	nop
    3512:	90                   	nop
    3513:	90                   	nop
    3514:	90                   	nop
    3515:	90                   	nop
    3516:	90                   	nop
    3517:	90                   	nop
    3518:	90                   	nop
    3519:	90                   	nop
    351a:	90                   	nop
    351b:	90                   	nop
    351c:	90                   	nop
    351d:	90                   	nop
    351e:	90                   	nop
    351f:	90                   	nop
    3520:	90                   	nop
    3521:	90                   	nop
    3522:	90                   	nop
    3523:	90                   	nop
    3524:	90                   	nop
    3525:	90                   	nop
    3526:	90                   	nop
    3527:	90                   	nop
    3528:	90                   	nop
    3529:	90                   	nop
    352a:	90                   	nop
    352b:	90                   	nop
    352c:	90                   	nop
    352d:	90                   	nop
    352e:	90                   	nop
    352f:	90                   	nop
    3530:	90                   	nop
    3531:	90                   	nop
    3532:	90                   	nop
    3533:	90                   	nop
    3534:	90                   	nop
    3535:	90                   	nop
    3536:	90                   	nop
    3537:	90                   	nop
    3538:	90                   	nop
    3539:	90                   	nop
    353a:	90                   	nop
    353b:	90                   	nop
    353c:	90                   	nop
    353d:	90                   	nop
    353e:	90                   	nop
    353f:	90                   	nop
    3540:	90                   	nop
    3541:	90                   	nop
    3542:	90                   	nop
    3543:	90                   	nop
    3544:	90                   	nop
    3545:	90                   	nop
    3546:	90                   	nop
    3547:	90                   	nop
    3548:	90                   	nop
    3549:	90                   	nop
    354a:	90                   	nop
    354b:	90                   	nop
    354c:	90                   	nop
    354d:	90                   	nop
    354e:	90                   	nop
    354f:	90                   	nop
    3550:	90                   	nop
    3551:	90                   	nop
    3552:	90                   	nop
    3553:	90                   	nop
    3554:	90                   	nop
    3555:	90                   	nop
    3556:	90                   	nop
    3557:	90                   	nop
    3558:	90                   	nop
    3559:	90                   	nop
    355a:	90                   	nop
    355b:	90                   	nop
    355c:	90                   	nop
    355d:	90                   	nop
    355e:	90                   	nop
    355f:	90                   	nop
    3560:	90                   	nop
    3561:	90                   	nop
    3562:	90                   	nop
    3563:	90                   	nop
    3564:	90                   	nop
    3565:	90                   	nop
    3566:	90                   	nop
    3567:	90                   	nop
    3568:	90                   	nop
    3569:	90                   	nop
    356a:	90                   	nop
    356b:	90                   	nop
    356c:	90                   	nop
    356d:	5b                   	pop    rbx
    356e:	c3                   	ret
    356f:	90                   	nop
    3570:	0f ae 3d 69 8c 00 00 	clflush BYTE PTR [rip+0x8c69]        # c1e0 <tmp_reg3>
    3577:	e9 ab fe ff ff       	jmp    3427 <_Z8mux_gatePhS_S_S_j+0x507>
    357c:	0f 1f 40 00          	nop    DWORD PTR [rax+0x0]
    3580:	0f ae 3d 59 74 00 00 	clflush BYTE PTR [rip+0x7459]        # a9e0 <tmp_reg6>
    3587:	e9 87 fe ff ff       	jmp    3413 <_Z8mux_gatePhS_S_S_j+0x4f3>
    358c:	0f 1f 40 00          	nop    DWORD PTR [rax+0x0]
    3590:	0f ae 3d 49 84 00 00 	clflush BYTE PTR [rip+0x8449]        # b9e0 <tmp_reg4>
    3597:	e9 d7 fc ff ff       	jmp    3273 <_Z8mux_gatePhS_S_S_j+0x353>
    359c:	0f 1f 40 00          	nop    DWORD PTR [rax+0x0]
    35a0:	41 0f ae 39          	clflush BYTE PTR [r9]
    35a4:	e9 1b fa ff ff       	jmp    2fc4 <_Z8mux_gatePhS_S_S_j+0xa4>

Disassembly of section .fini:

00000000000035ac <_fini>:
    35ac:	f3 0f 1e fa          	endbr64
    35b0:	48 83 ec 08          	sub    rsp,0x8
    35b4:	48 83 c4 08          	add    rsp,0x8
    35b8:	c3                   	ret
