
sha1_round.elf:     file format elf64-x86-64


Disassembly of section .init:

0000000000001000 <_init>:
    1000:	f3 0f 1e fa          	endbr64
    1004:	48 83 ec 08          	sub    rsp,0x8
    1008:	48 8b 05 c9 1f 03 00 	mov    rax,QWORD PTR [rip+0x31fc9]        # 32fd8 <__gmon_start__@Base>
    100f:	48 85 c0             	test   rax,rax
    1012:	74 02                	je     1016 <_init+0x16>
    1014:	ff d0                	call   rax
    1016:	48 83 c4 08          	add    rsp,0x8
    101a:	c3                   	ret

Disassembly of section .plt:

0000000000001020 <printf@plt-0x10>:
    1020:	ff 35 ca 1f 03 00    	push   QWORD PTR [rip+0x31fca]        # 32ff0 <_GLOBAL_OFFSET_TABLE_+0x8>
    1026:	ff 25 cc 1f 03 00    	jmp    QWORD PTR [rip+0x31fcc]        # 32ff8 <_GLOBAL_OFFSET_TABLE_+0x10>
    102c:	0f 1f 40 00          	nop    DWORD PTR [rax+0x0]

0000000000001030 <printf@plt>:
    1030:	ff 25 ca 1f 03 00    	jmp    QWORD PTR [rip+0x31fca]        # 33000 <printf@GLIBC_2.2.5>
    1036:	68 00 00 00 00       	push   0x0
    103b:	e9 e0 ff ff ff       	jmp    1020 <_init+0x20>

0000000000001040 <argp_parse@plt>:
    1040:	ff 25 c2 1f 03 00    	jmp    QWORD PTR [rip+0x31fc2]        # 33008 <argp_parse@GLIBC_2.2.5>
    1046:	68 01 00 00 00       	push   0x1
    104b:	e9 d0 ff ff ff       	jmp    1020 <_init+0x20>

0000000000001050 <rand@plt>:
    1050:	ff 25 ba 1f 03 00    	jmp    QWORD PTR [rip+0x31fba]        # 33010 <rand@GLIBC_2.2.5>
    1056:	68 02 00 00 00       	push   0x2
    105b:	e9 c0 ff ff ff       	jmp    1020 <_init+0x20>

0000000000001060 <memset@plt>:
    1060:	ff 25 b2 1f 03 00    	jmp    QWORD PTR [rip+0x31fb2]        # 33018 <memset@GLIBC_2.2.5>
    1066:	68 03 00 00 00       	push   0x3
    106b:	e9 b0 ff ff ff       	jmp    1020 <_init+0x20>

0000000000001070 <clock_gettime@plt>:
    1070:	ff 25 aa 1f 03 00    	jmp    QWORD PTR [rip+0x31faa]        # 33020 <clock_gettime@GLIBC_2.17>
    1076:	68 04 00 00 00       	push   0x4
    107b:	e9 a0 ff ff ff       	jmp    1020 <_init+0x20>

0000000000001080 <time@plt>:
    1080:	ff 25 a2 1f 03 00    	jmp    QWORD PTR [rip+0x31fa2]        # 33028 <time@GLIBC_2.2.5>
    1086:	68 05 00 00 00       	push   0x5
    108b:	e9 90 ff ff ff       	jmp    1020 <_init+0x20>

0000000000001090 <srand@plt>:
    1090:	ff 25 9a 1f 03 00    	jmp    QWORD PTR [rip+0x31f9a]        # 33030 <srand@GLIBC_2.2.5>
    1096:	68 06 00 00 00       	push   0x6
    109b:	e9 80 ff ff ff       	jmp    1020 <_init+0x20>

00000000000010a0 <puts@plt>:
    10a0:	ff 25 92 1f 03 00    	jmp    QWORD PTR [rip+0x31f92]        # 33038 <puts@GLIBC_2.2.5>
    10a6:	68 07 00 00 00       	push   0x7
    10ab:	e9 70 ff ff ff       	jmp    1020 <_init+0x20>

00000000000010b0 <atoi@plt>:
    10b0:	ff 25 8a 1f 03 00    	jmp    QWORD PTR [rip+0x31f8a]        # 33040 <atoi@GLIBC_2.2.5>
    10b6:	68 08 00 00 00       	push   0x8
    10bb:	e9 60 ff ff ff       	jmp    1020 <_init+0x20>

Disassembly of section .plt.got:

00000000000010c0 <__cxa_finalize@plt>:
    10c0:	ff 25 fa 1e 03 00    	jmp    QWORD PTR [rip+0x31efa]        # 32fc0 <__cxa_finalize@GLIBC_2.2.5>
    10c6:	66 90                	xchg   ax,ax

Disassembly of section .text:

00000000000010d0 <_start>:
    10d0:	f3 0f 1e fa          	endbr64
    10d4:	31 ed                	xor    ebp,ebp
    10d6:	49 89 d1             	mov    r9,rdx
    10d9:	5e                   	pop    rsi
    10da:	48 89 e2             	mov    rdx,rsp
    10dd:	48 83 e4 f0          	and    rsp,0xfffffffffffffff0
    10e1:	50                   	push   rax
    10e2:	54                   	push   rsp
    10e3:	45 31 c0             	xor    r8d,r8d
    10e6:	31 c9                	xor    ecx,ecx
    10e8:	48 8d 3d 91 7d 02 00 	lea    rdi,[rip+0x27d91]        # 28e80 <main>
    10ef:	ff 15 d3 1e 03 00    	call   QWORD PTR [rip+0x31ed3]        # 32fc8 <__libc_start_main@GLIBC_2.34>
    10f5:	f4                   	hlt
    10f6:	66 2e 0f 1f 84 00 00 	cs nop WORD PTR [rax+rax*1+0x0]
    10fd:	00 00 00 

0000000000001100 <deregister_tm_clones>:
    1100:	48 8d 3d 61 20 03 00 	lea    rdi,[rip+0x32061]        # 33168 <__TMC_END__>
    1107:	48 8d 05 5a 20 03 00 	lea    rax,[rip+0x3205a]        # 33168 <__TMC_END__>
    110e:	48 39 f8             	cmp    rax,rdi
    1111:	74 15                	je     1128 <deregister_tm_clones+0x28>
    1113:	48 8b 05 b6 1e 03 00 	mov    rax,QWORD PTR [rip+0x31eb6]        # 32fd0 <_ITM_deregisterTMCloneTable@Base>
    111a:	48 85 c0             	test   rax,rax
    111d:	74 09                	je     1128 <deregister_tm_clones+0x28>
    111f:	ff e0                	jmp    rax
    1121:	0f 1f 80 00 00 00 00 	nop    DWORD PTR [rax+0x0]
    1128:	c3                   	ret
    1129:	0f 1f 80 00 00 00 00 	nop    DWORD PTR [rax+0x0]

0000000000001130 <register_tm_clones>:
    1130:	48 8d 3d 31 20 03 00 	lea    rdi,[rip+0x32031]        # 33168 <__TMC_END__>
    1137:	48 8d 35 2a 20 03 00 	lea    rsi,[rip+0x3202a]        # 33168 <__TMC_END__>
    113e:	48 29 fe             	sub    rsi,rdi
    1141:	48 89 f0             	mov    rax,rsi
    1144:	48 c1 ee 3f          	shr    rsi,0x3f
    1148:	48 c1 f8 03          	sar    rax,0x3
    114c:	48 01 c6             	add    rsi,rax
    114f:	48 d1 fe             	sar    rsi,1
    1152:	74 14                	je     1168 <register_tm_clones+0x38>
    1154:	48 8b 05 85 1e 03 00 	mov    rax,QWORD PTR [rip+0x31e85]        # 32fe0 <_ITM_registerTMCloneTable@Base>
    115b:	48 85 c0             	test   rax,rax
    115e:	74 08                	je     1168 <register_tm_clones+0x38>
    1160:	ff e0                	jmp    rax
    1162:	66 0f 1f 44 00 00    	nop    WORD PTR [rax+rax*1+0x0]
    1168:	c3                   	ret
    1169:	0f 1f 80 00 00 00 00 	nop    DWORD PTR [rax+0x0]

0000000000001170 <__do_global_dtors_aux>:
    1170:	f3 0f 1e fa          	endbr64
    1174:	80 3d e7 1f 03 00 00 	cmp    BYTE PTR [rip+0x31fe7],0x0        # 33162 <completed.0>
    117b:	75 2b                	jne    11a8 <__do_global_dtors_aux+0x38>
    117d:	55                   	push   rbp
    117e:	48 83 3d 3a 1e 03 00 	cmp    QWORD PTR [rip+0x31e3a],0x0        # 32fc0 <__cxa_finalize@GLIBC_2.2.5>
    1185:	00 
    1186:	48 89 e5             	mov    rbp,rsp
    1189:	74 0c                	je     1197 <__do_global_dtors_aux+0x27>
    118b:	48 8b 3d c6 1e 03 00 	mov    rdi,QWORD PTR [rip+0x31ec6]        # 33058 <__dso_handle>
    1192:	e8 29 ff ff ff       	call   10c0 <__cxa_finalize@plt>
    1197:	e8 64 ff ff ff       	call   1100 <deregister_tm_clones>
    119c:	c6 05 bf 1f 03 00 01 	mov    BYTE PTR [rip+0x31fbf],0x1        # 33162 <completed.0>
    11a3:	5d                   	pop    rbp
    11a4:	c3                   	ret
    11a5:	0f 1f 00             	nop    DWORD PTR [rax]
    11a8:	c3                   	ret
    11a9:	0f 1f 80 00 00 00 00 	nop    DWORD PTR [rax+0x0]

00000000000011b0 <frame_dummy>:
    11b0:	f3 0f 1e fa          	endbr64
    11b4:	e9 77 ff ff ff       	jmp    1130 <register_tm_clones>
    11b9:	0f 1f 80 00 00 00 00 	nop    DWORD PTR [rax+0x0]

00000000000011c0 <mod_ret_addr>:
    11c0:	48 c7 c1 99 3a 00 00 	mov    rcx,0x3a99
    11c7:	48 c7 c0 d3 54 00 00 	mov    rax,0x54d3
    11ce:	48 c7 c2 98 1c 00 00 	mov    rdx,0x1c98
    11d5:	66 f7 f1             	div    cx
    11d8:	66 f7 f1             	div    cx
    11db:	66 f7 f1             	div    cx
    11de:	66 f7 f1             	div    cx
    11e1:	66 f7 f1             	div    cx
    11e4:	48 01 14 24          	add    QWORD PTR [rsp],rdx
    11e8:	c3                   	ret
    11e9:	0f 1f 80 00 00 00 00 	nop    DWORD PTR [rax+0x0]

00000000000011f0 <time_elasped>:
    11f0:	48 8b 06             	mov    rax,QWORD PTR [rsi]
    11f3:	48 2b 07             	sub    rax,QWORD PTR [rdi]
    11f6:	48 69 c8 00 ca 9a 3b 	imul   rcx,rax,0x3b9aca00
    11fd:	48 8b 46 08          	mov    rax,QWORD PTR [rsi+0x8]
    1201:	48 2b 47 08          	sub    rax,QWORD PTR [rdi+0x8]
    1205:	48 01 c8             	add    rax,rcx
    1208:	c3                   	ret
    1209:	0f 1f 80 00 00 00 00 	nop    DWORD PTR [rax+0x0]

0000000000001210 <ref_sha1_round>:
    1210:	41 56                	push   r14
    1212:	53                   	push   rbx
    1213:	89 74 24 dc          	mov    DWORD PTR [rsp-0x24],esi
    1217:	48 89 54 24 e0       	mov    QWORD PTR [rsp-0x20],rdx
    121c:	89 4c 24 e8          	mov    DWORD PTR [rsp-0x18],ecx
    1220:	8b 07                	mov    eax,DWORD PTR [rdi]
    1222:	89 44 24 ec          	mov    DWORD PTR [rsp-0x14],eax
    1226:	8b 47 04             	mov    eax,DWORD PTR [rdi+0x4]
    1229:	89 44 24 f0          	mov    DWORD PTR [rsp-0x10],eax
    122d:	8b 47 08             	mov    eax,DWORD PTR [rdi+0x8]
    1230:	89 44 24 f4          	mov    DWORD PTR [rsp-0xc],eax
    1234:	8b 47 0c             	mov    eax,DWORD PTR [rdi+0xc]
    1237:	89 44 24 f8          	mov    DWORD PTR [rsp-0x8],eax
    123b:	8b 47 10             	mov    eax,DWORD PTR [rdi+0x10]
    123e:	89 44 24 fc          	mov    DWORD PTR [rsp-0x4],eax
    1242:	85 c9                	test   ecx,ecx
    1244:	0f 84 29 00 00 00    	je     1273 <ref_sha1_round+0x63>
    124a:	e9 00 00 00 00       	jmp    124f <ref_sha1_round+0x3f>
    124f:	8b 44 24 e8          	mov    eax,DWORD PTR [rsp-0x18]
    1253:	83 e8 01             	sub    eax,0x1
    1256:	0f 84 35 00 00 00    	je     1291 <ref_sha1_round+0x81>
    125c:	e9 00 00 00 00       	jmp    1261 <ref_sha1_round+0x51>
    1261:	8b 44 24 e8          	mov    eax,DWORD PTR [rsp-0x18]
    1265:	83 e8 02             	sub    eax,0x2
    1268:	0f 84 3c 00 00 00    	je     12aa <ref_sha1_round+0x9a>
    126e:	e9 56 00 00 00       	jmp    12c9 <ref_sha1_round+0xb9>
    1273:	8b 44 24 f8          	mov    eax,DWORD PTR [rsp-0x8]
    1277:	8b 54 24 f0          	mov    edx,DWORD PTR [rsp-0x10]
    127b:	8b 4c 24 f4          	mov    ecx,DWORD PTR [rsp-0xc]
    127f:	21 d1                	and    ecx,edx
    1281:	83 f2 ff             	xor    edx,0xffffffff
    1284:	21 d0                	and    eax,edx
    1286:	09 c8                	or     eax,ecx
    1288:	89 44 24 d8          	mov    DWORD PTR [rsp-0x28],eax
    128c:	e9 4c 00 00 00       	jmp    12dd <ref_sha1_round+0xcd>
    1291:	8b 4c 24 f8          	mov    ecx,DWORD PTR [rsp-0x8]
    1295:	8b 54 24 f0          	mov    edx,DWORD PTR [rsp-0x10]
    1299:	8b 44 24 f4          	mov    eax,DWORD PTR [rsp-0xc]
    129d:	31 d0                	xor    eax,edx
    129f:	31 c8                	xor    eax,ecx
    12a1:	89 44 24 d8          	mov    DWORD PTR [rsp-0x28],eax
    12a5:	e9 33 00 00 00       	jmp    12dd <ref_sha1_round+0xcd>
    12aa:	8b 54 24 f4          	mov    edx,DWORD PTR [rsp-0xc]
    12ae:	8b 4c 24 f8          	mov    ecx,DWORD PTR [rsp-0x8]
    12b2:	8b 74 24 f0          	mov    esi,DWORD PTR [rsp-0x10]
    12b6:	89 c8                	mov    eax,ecx
    12b8:	09 d0                	or     eax,edx
    12ba:	21 f0                	and    eax,esi
    12bc:	21 d1                	and    ecx,edx
    12be:	09 c8                	or     eax,ecx
    12c0:	89 44 24 d8          	mov    DWORD PTR [rsp-0x28],eax
    12c4:	e9 14 00 00 00       	jmp    12dd <ref_sha1_round+0xcd>
    12c9:	8b 4c 24 f8          	mov    ecx,DWORD PTR [rsp-0x8]
    12cd:	8b 54 24 f0          	mov    edx,DWORD PTR [rsp-0x10]
    12d1:	8b 44 24 f4          	mov    eax,DWORD PTR [rsp-0xc]
    12d5:	31 d0                	xor    eax,edx
    12d7:	31 c8                	xor    eax,ecx
    12d9:	89 44 24 d8          	mov    DWORD PTR [rsp-0x28],eax
    12dd:	48 8b 44 24 e0       	mov    rax,QWORD PTR [rsp-0x20]
    12e2:	8b 4c 24 f8          	mov    ecx,DWORD PTR [rsp-0x8]
    12e6:	8b 54 24 f4          	mov    edx,DWORD PTR [rsp-0xc]
    12ea:	8b 74 24 f0          	mov    esi,DWORD PTR [rsp-0x10]
    12ee:	8b 7c 24 ec          	mov    edi,DWORD PTR [rsp-0x14]
    12f2:	44 8b 5c 24 fc       	mov    r11d,DWORD PTR [rsp-0x4]
    12f7:	8b 5c 24 dc          	mov    ebx,DWORD PTR [rsp-0x24]
    12fb:	44 8b 4c 24 e8       	mov    r9d,DWORD PTR [rsp-0x18]
    1300:	44 8b 54 24 d8       	mov    r10d,DWORD PTR [rsp-0x28]
    1305:	41 89 f8             	mov    r8d,edi
    1308:	41 c1 c0 05          	rol    r8d,0x5
    130c:	45 89 c9             	mov    r9d,r9d
    130f:	45 89 ce             	mov    r14d,r9d
    1312:	4c 8d 0d f7 fc 02 00 	lea    r9,[rip+0x2fcf7]        # 31010 <_IO_stdin_used+0x10>
    1319:	47 8b 0c b1          	mov    r9d,DWORD PTR [r9+r14*4]
    131d:	41 01 d8             	add    r8d,ebx
    1320:	45 01 d8             	add    r8d,r11d
    1323:	45 01 d0             	add    r8d,r10d
    1326:	45 01 c8             	add    r8d,r9d
    1329:	44 89 00             	mov    DWORD PTR [rax],r8d
    132c:	89 78 04             	mov    DWORD PTR [rax+0x4],edi
    132f:	c1 c6 1e             	rol    esi,0x1e
    1332:	89 70 08             	mov    DWORD PTR [rax+0x8],esi
    1335:	89 50 0c             	mov    DWORD PTR [rax+0xc],edx
    1338:	89 48 10             	mov    DWORD PTR [rax+0x10],ecx
    133b:	5b                   	pop    rbx
    133c:	41 5e                	pop    r14
    133e:	c3                   	ret
    133f:	90                   	nop

0000000000001340 <update_votes>:
    1340:	48 89 7c 24 d8       	mov    QWORD PTR [rsp-0x28],rdi
    1345:	48 89 74 24 e0       	mov    QWORD PTR [rsp-0x20],rsi
    134a:	48 89 54 24 e8       	mov    QWORD PTR [rsp-0x18],rdx
    134f:	31 c0                	xor    eax,eax
    1351:	89 c1                	mov    ecx,eax
    1353:	b0 01                	mov    al,0x1
    1355:	48 89 4c 24 f0       	mov    QWORD PTR [rsp-0x10],rcx
    135a:	88 44 24 ff          	mov    BYTE PTR [rsp-0x1],al
    135e:	e9 11 00 00 00       	jmp    1374 <update_votes+0x34>
    1363:	8a 44 24 d7          	mov    al,BYTE PTR [rsp-0x29]
    1367:	24 01                	and    al,0x1
    1369:	3c 00                	cmp    al,0x0
    136b:	0f 95 c0             	setne  al
    136e:	24 01                	and    al,0x1
    1370:	0f b6 c0             	movzx  eax,al
    1373:	c3                   	ret
    1374:	48 8b 44 24 f0       	mov    rax,QWORD PTR [rsp-0x10]
    1379:	8a 4c 24 ff          	mov    cl,BYTE PTR [rsp-0x1]
    137d:	88 4c 24 bf          	mov    BYTE PTR [rsp-0x41],cl
    1381:	48 89 44 24 c0       	mov    QWORD PTR [rsp-0x40],rax
    1386:	48 89 c2             	mov    rdx,rax
    1389:	48 c1 ea 05          	shr    rdx,0x5
    138d:	48 81 e2 ff ff ff 07 	and    rdx,0x7ffffff
    1394:	48 89 54 24 c8       	mov    QWORD PTR [rsp-0x38],rdx
    1399:	89 c1                	mov    ecx,eax
    139b:	83 e1 1f             	and    ecx,0x1f
    139e:	b8 01 00 00 00       	mov    eax,0x1
    13a3:	d3 e0                	shl    eax,cl
    13a5:	48 8b 4c 24 e0       	mov    rcx,QWORD PTR [rsp-0x20]
    13aa:	89 44 24 d0          	mov    DWORD PTR [rsp-0x30],eax
    13ae:	23 04 91             	and    eax,DWORD PTR [rcx+rdx*4]
    13b1:	83 f8 00             	cmp    eax,0x0
    13b4:	0f 85 72 00 00 00    	jne    142c <update_votes+0xec>
    13ba:	48 8b 4c 24 e8       	mov    rcx,QWORD PTR [rsp-0x18]
    13bf:	48 8b 54 24 c0       	mov    rdx,QWORD PTR [rsp-0x40]
    13c4:	48 8b 74 24 d8       	mov    rsi,QWORD PTR [rsp-0x28]
    13c9:	48 8b 7c 24 c8       	mov    rdi,QWORD PTR [rsp-0x38]
    13ce:	8b 44 24 d0          	mov    eax,DWORD PTR [rsp-0x30]
    13d2:	23 04 be             	and    eax,DWORD PTR [rsi+rdi*4]
    13d5:	48 89 ce             	mov    rsi,rcx
    13d8:	48 01 d6             	add    rsi,rdx
    13db:	48 89 74 24 b0       	mov    QWORD PTR [rsp-0x50],rsi
    13e0:	8a 0c 11             	mov    cl,BYTE PTR [rcx+rdx*1]
    13e3:	88 4c 24 be          	mov    BYTE PTR [rsp-0x42],cl
    13e7:	83 f8 00             	cmp    eax,0x0
    13ea:	0f 84 18 00 00 00    	je     1408 <update_votes+0xc8>
    13f0:	8a 4c 24 be          	mov    cl,BYTE PTR [rsp-0x42]
    13f4:	b0 01                	mov    al,0x1
    13f6:	80 f9 7e             	cmp    cl,0x7e
    13f9:	88 44 24 af          	mov    BYTE PTR [rsp-0x51],al
    13fd:	0f 8c 18 00 00 00    	jl     141b <update_votes+0xdb>
    1403:	e9 24 00 00 00       	jmp    142c <update_votes+0xec>
    1408:	8a 4c 24 be          	mov    cl,BYTE PTR [rsp-0x42]
    140c:	b0 ff                	mov    al,0xff
    140e:	80 f9 82             	cmp    cl,0x82
    1411:	88 44 24 af          	mov    BYTE PTR [rsp-0x51],al
    1415:	0f 8e 11 00 00 00    	jle    142c <update_votes+0xec>
    141b:	48 8b 44 24 b0       	mov    rax,QWORD PTR [rsp-0x50]
    1420:	8a 4c 24 be          	mov    cl,BYTE PTR [rsp-0x42]
    1424:	8a 54 24 af          	mov    dl,BYTE PTR [rsp-0x51]
    1428:	00 d1                	add    cl,dl
    142a:	88 08                	mov    BYTE PTR [rax],cl
    142c:	48 8b 44 24 e8       	mov    rax,QWORD PTR [rsp-0x18]
    1431:	48 8b 4c 24 c0       	mov    rcx,QWORD PTR [rsp-0x40]
    1436:	8a 0c 08             	mov    cl,BYTE PTR [rax+rcx*1]
    1439:	80 c1 01             	add    cl,0x1
    143c:	31 c0                	xor    eax,eax
    143e:	80 f9 03             	cmp    cl,0x3
    1441:	88 44 24 ae          	mov    BYTE PTR [rsp-0x52],al
    1445:	0f 82 08 00 00 00    	jb     1453 <update_votes+0x113>
    144b:	8a 44 24 bf          	mov    al,BYTE PTR [rsp-0x41]
    144f:	88 44 24 ae          	mov    BYTE PTR [rsp-0x52],al
    1453:	48 8b 4c 24 c0       	mov    rcx,QWORD PTR [rsp-0x40]
    1458:	8a 44 24 ae          	mov    al,BYTE PTR [rsp-0x52]
    145c:	88 44 24 d7          	mov    BYTE PTR [rsp-0x29],al
    1460:	48 83 c1 01          	add    rcx,0x1
    1464:	48 81 f9 a0 00 00 00 	cmp    rcx,0xa0
    146b:	48 89 4c 24 f0       	mov    QWORD PTR [rsp-0x10],rcx
    1470:	88 44 24 ff          	mov    BYTE PTR [rsp-0x1],al
    1474:	0f 84 e9 fe ff ff    	je     1363 <update_votes+0x23>
    147a:	e9 f5 fe ff ff       	jmp    1374 <update_votes+0x34>
    147f:	90                   	nop

0000000000001480 <merge_output>:
    1480:	48 89 7c 24 e8       	mov    QWORD PTR [rsp-0x18],rdi
    1485:	48 89 74 24 f0       	mov    QWORD PTR [rsp-0x10],rsi
    148a:	31 c0                	xor    eax,eax
    148c:	48 89 44 24 f8       	mov    QWORD PTR [rsp-0x8],rax
    1491:	e9 01 00 00 00       	jmp    1497 <merge_output+0x17>
    1496:	c3                   	ret
    1497:	48 8b 44 24 f0       	mov    rax,QWORD PTR [rsp-0x10]
    149c:	48 8b 4c 24 f8       	mov    rcx,QWORD PTR [rsp-0x8]
    14a1:	48 89 4c 24 d0       	mov    QWORD PTR [rsp-0x30],rcx
    14a6:	48 89 c2             	mov    rdx,rax
    14a9:	48 01 ca             	add    rdx,rcx
    14ac:	48 89 54 24 d8       	mov    QWORD PTR [rsp-0x28],rdx
    14b1:	8a 04 08             	mov    al,BYTE PTR [rax+rcx*1]
    14b4:	88 44 24 e7          	mov    BYTE PTR [rsp-0x19],al
    14b8:	3c 01                	cmp    al,0x1
    14ba:	0f 8e 2f 00 00 00    	jle    14ef <merge_output+0x6f>
    14c0:	48 8b 44 24 e8       	mov    rax,QWORD PTR [rsp-0x18]
    14c5:	48 8b 4c 24 d0       	mov    rcx,QWORD PTR [rsp-0x30]
    14ca:	83 e1 1f             	and    ecx,0x1f
    14cd:	ba 01 00 00 00       	mov    edx,0x1
    14d2:	d3 e2                	shl    edx,cl
    14d4:	48 8b 4c 24 d0       	mov    rcx,QWORD PTR [rsp-0x30]
    14d9:	48 c1 e9 05          	shr    rcx,0x5
    14dd:	48 81 e1 ff ff ff 07 	and    rcx,0x7ffffff
    14e4:	0b 14 88             	or     edx,DWORD PTR [rax+rcx*4]
    14e7:	89 14 88             	mov    DWORD PTR [rax+rcx*4],edx
    14ea:	e9 39 00 00 00       	jmp    1528 <merge_output+0xa8>
    14ef:	8a 44 24 e7          	mov    al,BYTE PTR [rsp-0x19]
    14f3:	3c ff                	cmp    al,0xff
    14f5:	0f 8d 2d 00 00 00    	jge    1528 <merge_output+0xa8>
    14fb:	48 8b 44 24 e8       	mov    rax,QWORD PTR [rsp-0x18]
    1500:	48 8b 4c 24 d0       	mov    rcx,QWORD PTR [rsp-0x30]
    1505:	83 e1 1f             	and    ecx,0x1f
    1508:	ba 01 00 00 00       	mov    edx,0x1
    150d:	d3 e2                	shl    edx,cl
    150f:	48 8b 4c 24 d0       	mov    rcx,QWORD PTR [rsp-0x30]
    1514:	83 f2 ff             	xor    edx,0xffffffff
    1517:	48 c1 e9 05          	shr    rcx,0x5
    151b:	48 81 e1 ff ff ff 07 	and    rcx,0x7ffffff
    1522:	23 14 88             	and    edx,DWORD PTR [rax+rcx*4]
    1525:	89 14 88             	mov    DWORD PTR [rax+rcx*4],edx
    1528:	48 8b 44 24 d0       	mov    rax,QWORD PTR [rsp-0x30]
    152d:	48 8b 4c 24 d8       	mov    rcx,QWORD PTR [rsp-0x28]
    1532:	c6 01 00             	mov    BYTE PTR [rcx],0x0
    1535:	48 83 c0 01          	add    rax,0x1
    1539:	48 3d a0 00 00 00    	cmp    rax,0xa0
    153f:	48 89 44 24 f8       	mov    QWORD PTR [rsp-0x8],rax
    1544:	0f 84 4c ff ff ff    	je     1496 <merge_output+0x16>
    154a:	e9 48 ff ff ff       	jmp    1497 <merge_output+0x17>
    154f:	90                   	nop

0000000000001550 <__weird__sha1_round>:
    1550:	55                   	push   rbp
    1551:	48 89 e5             	mov    rbp,rsp
    1554:	41 57                	push   r15
    1556:	41 56                	push   r14
    1558:	41 55                	push   r13
    155a:	41 54                	push   r12
    155c:	53                   	push   rbx
    155d:	48 81 ec e8 6f 00 00 	sub    rsp,0x6fe8
    1564:	48 89 bd 88 de ff ff 	mov    QWORD PTR [rbp-0x2178],rdi
    156b:	89 b5 94 de ff ff    	mov    DWORD PTR [rbp-0x216c],esi
    1571:	48 89 95 98 de ff ff 	mov    QWORD PTR [rbp-0x2168],rdx
    1578:	48 89 8d a0 de ff ff 	mov    QWORD PTR [rbp-0x2160],rcx
    157f:	e8 cc fa ff ff       	call   1050 <rand@plt>
    1584:	89 85 ac de ff ff    	mov    DWORD PTR [rbp-0x2154],eax
    158a:	31 c0                	xor    eax,eax
    158c:	89 85 a8 de ff ff    	mov    DWORD PTR [rbp-0x2158],eax
    1592:	8b 8d a8 de ff ff    	mov    ecx,DWORD PTR [rbp-0x2158]
    1598:	48 63 c1             	movsxd rax,ecx
    159b:	89 8c 85 b0 de ff ff 	mov    DWORD PTR [rbp+rax*4-0x2150],ecx
    15a2:	83 c1 01             	add    ecx,0x1
    15a5:	31 c0                	xor    eax,eax
    15a7:	81 f9 4a 08 00 00    	cmp    ecx,0x84a
    15ad:	89 8d a8 de ff ff    	mov    DWORD PTR [rbp-0x2158],ecx
    15b3:	89 85 84 de ff ff    	mov    DWORD PTR [rbp-0x217c],eax
    15b9:	0f 85 d3 ff ff ff    	jne    1592 <__weird__sha1_round+0x42>
    15bf:	8b 95 84 de ff ff    	mov    edx,DWORD PTR [rbp-0x217c]
    15c5:	89 95 7c de ff ff    	mov    DWORD PTR [rbp-0x2184],edx
    15cb:	8b 85 ac de ff ff    	mov    eax,DWORD PTR [rbp-0x2154]
    15d1:	89 85 80 de ff ff    	mov    DWORD PTR [rbp-0x2180],eax
    15d7:	b9 4a 08 00 00       	mov    ecx,0x84a
    15dc:	29 d1                	sub    ecx,edx
    15de:	31 d2                	xor    edx,edx
    15e0:	f7 f1                	div    ecx
    15e2:	8b 85 7c de ff ff    	mov    eax,DWORD PTR [rbp-0x2184]
    15e8:	89 d6                	mov    esi,edx
    15ea:	8b 95 80 de ff ff    	mov    edx,DWORD PTR [rbp-0x2180]
    15f0:	89 c1                	mov    ecx,eax
    15f2:	01 f1                	add    ecx,esi
    15f4:	69 d2 0d 66 19 00    	imul   edx,edx,0x19660d
    15fa:	81 c2 5f f3 6e 3c    	add    edx,0x3c6ef35f
    1600:	89 95 ac de ff ff    	mov    DWORD PTR [rbp-0x2154],edx
    1606:	48 63 d0             	movsxd rdx,eax
    1609:	8b b4 95 b0 de ff ff 	mov    esi,DWORD PTR [rbp+rdx*4-0x2150]
    1610:	48 63 d1             	movsxd rdx,ecx
    1613:	8b 94 95 b0 de ff ff 	mov    edx,DWORD PTR [rbp+rdx*4-0x2150]
    161a:	48 63 c9             	movsxd rcx,ecx
    161d:	89 b4 8d b0 de ff ff 	mov    DWORD PTR [rbp+rcx*4-0x2150],esi
    1624:	48 63 c8             	movsxd rcx,eax
    1627:	89 94 8d b0 de ff ff 	mov    DWORD PTR [rbp+rcx*4-0x2150],edx
    162e:	83 c0 01             	add    eax,0x1
    1631:	3d 49 08 00 00       	cmp    eax,0x849
    1636:	89 85 84 de ff ff    	mov    DWORD PTR [rbp-0x217c],eax
    163c:	0f 85 7d ff ff ff    	jne    15bf <__weird__sha1_round+0x6f>
    1642:	48 8b 85 88 de ff ff 	mov    rax,QWORD PTR [rbp-0x2178]
    1649:	49 89 e1             	mov    r9,rsp
    164c:	49 81 c1 40 57 ed ff 	add    r9,0xffffffffffed5740
    1653:	4c 89 8d b0 da ff ff 	mov    QWORD PTR [rbp-0x2550],r9
    165a:	4c 89 cc             	mov    rsp,r9
    165d:	8a 48 10             	mov    cl,BYTE PTR [rax+0x10]
    1660:	80 e1 01             	and    cl,0x1
    1663:	88 8d 77 9c ff ff    	mov    BYTE PTR [rbp-0x6389],cl
    1669:	8b 95 c0 e2 ff ff    	mov    edx,DWORD PTR [rbp-0x1d40]
    166f:	48 83 c2 01          	add    rdx,0x1
    1673:	4c 69 d2 40 02 00 00 	imul   r10,rdx,0x240
    167a:	4c 89 95 78 9c ff ff 	mov    QWORD PTR [rbp-0x6388],r10
    1681:	4c 89 cf             	mov    rdi,r9
    1684:	4c 01 d7             	add    rdi,r10
    1687:	48 89 bd 98 9c ff ff 	mov    QWORD PTR [rbp-0x6368],rdi
    168e:	8b 95 c4 e2 ff ff    	mov    edx,DWORD PTR [rbp-0x1d3c]
    1694:	48 83 c2 01          	add    rdx,0x1
    1698:	4c 69 c2 40 02 00 00 	imul   r8,rdx,0x240
    169f:	4c 89 85 b8 9c ff ff 	mov    QWORD PTR [rbp-0x6348],r8
    16a6:	4c 89 ce             	mov    rsi,r9
    16a9:	4c 01 c6             	add    rsi,r8
    16ac:	48 89 b5 a0 9c ff ff 	mov    QWORD PTR [rbp-0x6360],rsi
    16b3:	4d 89 c3             	mov    r11,r8
    16b6:	4d 29 d3             	sub    r11,r10
    16b9:	0f b6 c9             	movzx  ecx,cl
    16bc:	89 ca                	mov    edx,ecx
    16be:	48 89 d1             	mov    rcx,rdx
    16c1:	49 0f af cb          	imul   rcx,r11
    16c5:	4c 01 d1             	add    rcx,r10
    16c8:	4d 29 c2             	sub    r10,r8
    16cb:	49 0f af d2          	imul   rdx,r10
    16cf:	4c 01 c2             	add    rdx,r8
    16d2:	41 c6 04 09 00       	mov    BYTE PTR [r9+rcx*1],0x0
    16d7:	4c 89 c9             	mov    rcx,r9
    16da:	48 01 d1             	add    rcx,rdx
    16dd:	0f ae 39             	clflush BYTE PTR [rcx]
    16e0:	8a 40 03             	mov    al,BYTE PTR [rax+0x3]
    16e3:	c0 e8 03             	shr    al,0x3
    16e6:	24 01                	and    al,0x1
    16e8:	88 85 22 de ff ff    	mov    BYTE PTR [rbp-0x21de],al
    16ee:	8b 8d 98 df ff ff    	mov    ecx,DWORD PTR [rbp-0x2068]
    16f4:	48 83 c1 01          	add    rcx,0x1
    16f8:	4c 69 d9 40 02 00 00 	imul   r11,rcx,0x240
    16ff:	4c 89 9d c0 9c ff ff 	mov    QWORD PTR [rbp-0x6340],r11
    1706:	4c 89 ca             	mov    rdx,r9
    1709:	4c 01 da             	add    rdx,r11
    170c:	48 89 95 e8 9c ff ff 	mov    QWORD PTR [rbp-0x6318],rdx
    1713:	8b 8d 9c df ff ff    	mov    ecx,DWORD PTR [rbp-0x2064]
    1719:	48 83 c1 01          	add    rcx,0x1
    171d:	4c 69 d1 40 02 00 00 	imul   r10,rcx,0x240
    1724:	4c 89 95 d0 9c ff ff 	mov    QWORD PTR [rbp-0x6330],r10
    172b:	4c 89 c9             	mov    rcx,r9
    172e:	4c 01 d1             	add    rcx,r10
    1731:	48 89 8d a8 9c ff ff 	mov    QWORD PTR [rbp-0x6358],rcx
    1738:	4c 89 d3             	mov    rbx,r10
    173b:	4c 29 db             	sub    rbx,r11
    173e:	0f b6 c0             	movzx  eax,al
    1741:	41 89 c0             	mov    r8d,eax
    1744:	4c 89 c0             	mov    rax,r8
    1747:	48 0f af c3          	imul   rax,rbx
    174b:	4c 01 d8             	add    rax,r11
    174e:	4d 29 d3             	sub    r11,r10
    1751:	4d 0f af c3          	imul   r8,r11
    1755:	4d 01 d0             	add    r8,r10
    1758:	41 c6 04 01 00       	mov    BYTE PTR [r9+rax*1],0x0
    175d:	4c 89 c8             	mov    rax,r9
    1760:	4c 01 c0             	add    rax,r8
    1763:	0f ae 38             	clflush BYTE PTR [rax]
    1766:	8b 85 c8 e5 ff ff    	mov    eax,DWORD PTR [rbp-0x1a38]
    176c:	48 83 c0 01          	add    rax,0x1
    1770:	4c 69 c0 40 02 00 00 	imul   r8,rax,0x240
    1777:	4d 89 c2             	mov    r10,r8
    177a:	49 81 ea 00 01 00 00 	sub    r10,0x100
    1781:	4c 89 c8             	mov    rax,r9
    1784:	4c 01 c0             	add    rax,r8
    1787:	48 89 85 90 97 ff ff 	mov    QWORD PTR [rbp-0x6870],rax
    178e:	4d 89 c8             	mov    r8,r9
    1791:	4d 01 d0             	add    r8,r10
    1794:	0f ae 38             	clflush BYTE PTR [rax]
    1797:	8b 85 cc e5 ff ff    	mov    eax,DWORD PTR [rbp-0x1a34]
    179d:	48 83 c0 01          	add    rax,0x1
    17a1:	4c 69 d8 40 02 00 00 	imul   r11,rax,0x240
    17a8:	4d 89 da             	mov    r10,r11
    17ab:	49 81 ea 00 01 00 00 	sub    r10,0x100
    17b2:	4c 89 c8             	mov    rax,r9
    17b5:	4c 01 d8             	add    rax,r11
    17b8:	48 89 85 98 97 ff ff 	mov    QWORD PTR [rbp-0x6868],rax
    17bf:	4d 01 d1             	add    r9,r10
    17c2:	0f ae 38             	clflush BYTE PTR [rax]
    17c5:	0f ae f0             	mfence
    17c8:	e8 33 7c 02 00       	call   29400 <__DualGate__2_1_6>
    17cd:	4c 8b 85 88 de ff ff 	mov    r8,QWORD PTR [rbp-0x2178]
    17d4:	48 8b 85 b0 da ff ff 	mov    rax,QWORD PTR [rbp-0x2550]
    17db:	0f ae f0             	mfence
    17de:	41 8a 48 04          	mov    cl,BYTE PTR [r8+0x4]
    17e2:	80 e1 01             	and    cl,0x1
    17e5:	88 8d 45 de ff ff    	mov    BYTE PTR [rbp-0x21bb],cl
    17eb:	8b 95 c0 df ff ff    	mov    edx,DWORD PTR [rbp-0x2040]
    17f1:	48 83 c2 01          	add    rdx,0x1
    17f5:	4c 69 d2 40 02 00 00 	imul   r10,rdx,0x240
    17fc:	48 89 c7             	mov    rdi,rax
    17ff:	4c 01 d7             	add    rdi,r10
    1802:	8b 95 c4 df ff ff    	mov    edx,DWORD PTR [rbp-0x203c]
    1808:	48 83 c2 01          	add    rdx,0x1
    180c:	4c 69 ca 40 02 00 00 	imul   r9,rdx,0x240
    1813:	48 89 c6             	mov    rsi,rax
    1816:	4c 01 ce             	add    rsi,r9
    1819:	4d 89 cb             	mov    r11,r9
    181c:	4d 29 d3             	sub    r11,r10
    181f:	0f b6 c9             	movzx  ecx,cl
    1822:	89 ca                	mov    edx,ecx
    1824:	48 89 d1             	mov    rcx,rdx
    1827:	49 0f af cb          	imul   rcx,r11
    182b:	4c 01 d1             	add    rcx,r10
    182e:	4d 29 ca             	sub    r10,r9
    1831:	49 0f af d2          	imul   rdx,r10
    1835:	4c 01 ca             	add    rdx,r9
    1838:	c6 04 08 00          	mov    BYTE PTR [rax+rcx*1],0x0
    183c:	48 89 c1             	mov    rcx,rax
    183f:	48 01 d1             	add    rcx,rdx
    1842:	0f ae 39             	clflush BYTE PTR [rcx]
    1845:	45 8a 48 08          	mov    r9b,BYTE PTR [r8+0x8]
    1849:	41 80 e1 01          	and    r9b,0x1
    184d:	44 88 8d 47 de ff ff 	mov    BYTE PTR [rbp-0x21b9],r9b
    1854:	8b 8d c0 e0 ff ff    	mov    ecx,DWORD PTR [rbp-0x1f40]
    185a:	48 83 c1 01          	add    rcx,0x1
    185e:	48 69 d9 40 02 00 00 	imul   rbx,rcx,0x240
    1865:	48 89 c2             	mov    rdx,rax
    1868:	48 01 da             	add    rdx,rbx
    186b:	8b 8d c4 e0 ff ff    	mov    ecx,DWORD PTR [rbp-0x1f3c]
    1871:	48 83 c1 01          	add    rcx,0x1
    1875:	4c 69 d9 40 02 00 00 	imul   r11,rcx,0x240
    187c:	48 89 c1             	mov    rcx,rax
    187f:	4c 01 d9             	add    rcx,r11
    1882:	4d 89 de             	mov    r14,r11
    1885:	49 29 de             	sub    r14,rbx
    1888:	45 0f b6 c9          	movzx  r9d,r9b
    188c:	45 89 ca             	mov    r10d,r9d
    188f:	4d 89 d1             	mov    r9,r10
    1892:	4d 0f af ce          	imul   r9,r14
    1896:	49 01 d9             	add    r9,rbx
    1899:	4c 29 db             	sub    rbx,r11
    189c:	4c 0f af d3          	imul   r10,rbx
    18a0:	4d 01 da             	add    r10,r11
    18a3:	42 c6 04 08 00       	mov    BYTE PTR [rax+r9*1],0x0
    18a8:	49 89 c1             	mov    r9,rax
    18ab:	4d 01 d1             	add    r9,r10
    18ae:	41 0f ae 39          	clflush BYTE PTR [r9]
    18b2:	45 8a 50 0c          	mov    r10b,BYTE PTR [r8+0xc]
    18b6:	41 80 e2 01          	and    r10b,0x1
    18ba:	44 88 95 67 de ff ff 	mov    BYTE PTR [rbp-0x2199],r10b
    18c1:	44 8b 85 c0 e1 ff ff 	mov    r8d,DWORD PTR [rbp-0x1e40]
    18c8:	49 83 c0 01          	add    r8,0x1
    18cc:	4d 69 f0 40 02 00 00 	imul   r14,r8,0x240
    18d3:	49 89 c0             	mov    r8,rax
    18d6:	4d 01 f0             	add    r8,r14
    18d9:	44 8b 8d c4 e1 ff ff 	mov    r9d,DWORD PTR [rbp-0x1e3c]
    18e0:	49 83 c1 01          	add    r9,0x1
    18e4:	49 69 d9 40 02 00 00 	imul   rbx,r9,0x240
    18eb:	49 89 c1             	mov    r9,rax
    18ee:	49 01 d9             	add    r9,rbx
    18f1:	49 89 df             	mov    r15,rbx
    18f4:	4d 29 f7             	sub    r15,r14
    18f7:	45 0f b6 d2          	movzx  r10d,r10b
    18fb:	45 89 d3             	mov    r11d,r10d
    18fe:	4d 89 da             	mov    r10,r11
    1901:	4d 0f af d7          	imul   r10,r15
    1905:	4d 01 f2             	add    r10,r14
    1908:	49 29 de             	sub    r14,rbx
    190b:	4d 0f af de          	imul   r11,r14
    190f:	49 01 db             	add    r11,rbx
    1912:	42 c6 04 10 00       	mov    BYTE PTR [rax+r10*1],0x0
    1917:	49 89 c2             	mov    r10,rax
    191a:	4d 01 da             	add    r10,r11
    191d:	41 0f ae 3a          	clflush BYTE PTR [r10]
    1921:	44 8b 95 c0 e5 ff ff 	mov    r10d,DWORD PTR [rbp-0x1a40]
    1928:	49 83 c2 01          	add    r10,0x1
    192c:	4d 69 d2 40 02 00 00 	imul   r10,r10,0x240
    1933:	4c 89 d3             	mov    rbx,r10
    1936:	48 81 eb 00 01 00 00 	sub    rbx,0x100
    193d:	49 89 c3             	mov    r11,rax
    1940:	4d 01 d3             	add    r11,r10
    1943:	4c 89 9d 78 97 ff ff 	mov    QWORD PTR [rbp-0x6888],r11
    194a:	49 89 c2             	mov    r10,rax
    194d:	49 01 da             	add    r10,rbx
    1950:	41 0f ae 3b          	clflush BYTE PTR [r11]
    1954:	44 8b 9d c4 e5 ff ff 	mov    r11d,DWORD PTR [rbp-0x1a3c]
    195b:	49 83 c3 01          	add    r11,0x1
    195f:	4d 69 f3 40 02 00 00 	imul   r14,r11,0x240
    1966:	4c 89 f3             	mov    rbx,r14
    1969:	48 81 eb 00 01 00 00 	sub    rbx,0x100
    1970:	49 89 c3             	mov    r11,rax
    1973:	4d 01 f3             	add    r11,r14
    1976:	4c 89 9d 80 97 ff ff 	mov    QWORD PTR [rbp-0x6880],r11
    197d:	48 01 d8             	add    rax,rbx
    1980:	41 0f ae 3b          	clflush BYTE PTR [r11]
    1984:	0f ae f0             	mfence
    1987:	48 83 ec 10          	sub    rsp,0x10
    198b:	4c 89 14 24          	mov    QWORD PTR [rsp],r10
    198f:	48 89 44 24 08       	mov    QWORD PTR [rsp+0x8],rax
    1994:	e8 c7 7c 02 00       	call   29660 <__DualGate__3_1_53>
    1999:	8b 85 94 de ff ff    	mov    eax,DWORD PTR [rbp-0x216c]
    199f:	48 8b 8d 88 de ff ff 	mov    rcx,QWORD PTR [rbp-0x2178]
    19a6:	4c 8b 9d b0 da ff ff 	mov    r11,QWORD PTR [rbp-0x2550]
    19ad:	48 83 c4 10          	add    rsp,0x10
    19b1:	0f ae f0             	mfence
    19b4:	8a 51 10             	mov    dl,BYTE PTR [rcx+0x10]
    19b7:	c0 ea 02             	shr    dl,0x2
    19ba:	80 e2 01             	and    dl,0x1
    19bd:	88 95 8f 90 ff ff    	mov    BYTE PTR [rbp-0x6f71],dl
    19c3:	8b b5 d0 e2 ff ff    	mov    esi,DWORD PTR [rbp-0x1d30]
    19c9:	48 83 c6 01          	add    rsi,0x1
    19cd:	4c 69 d6 40 02 00 00 	imul   r10,rsi,0x240
    19d4:	4c 89 95 90 90 ff ff 	mov    QWORD PTR [rbp-0x6f70],r10
    19db:	4c 89 df             	mov    rdi,r11
    19de:	4c 01 d7             	add    rdi,r10
    19e1:	48 89 bd a0 90 ff ff 	mov    QWORD PTR [rbp-0x6f60],rdi
    19e8:	8b b5 d4 e2 ff ff    	mov    esi,DWORD PTR [rbp-0x1d2c]
    19ee:	48 83 c6 01          	add    rsi,0x1
    19f2:	4c 69 ce 40 02 00 00 	imul   r9,rsi,0x240
    19f9:	4c 89 8d d0 90 ff ff 	mov    QWORD PTR [rbp-0x6f30],r9
    1a00:	4c 89 de             	mov    rsi,r11
    1a03:	4c 01 ce             	add    rsi,r9
    1a06:	48 89 b5 a8 90 ff ff 	mov    QWORD PTR [rbp-0x6f58],rsi
    1a0d:	4c 89 cb             	mov    rbx,r9
    1a10:	4c 29 d3             	sub    rbx,r10
    1a13:	0f b6 d2             	movzx  edx,dl
    1a16:	41 89 d0             	mov    r8d,edx
    1a19:	4c 89 c2             	mov    rdx,r8
    1a1c:	48 0f af d3          	imul   rdx,rbx
    1a20:	4c 01 d2             	add    rdx,r10
    1a23:	4d 29 ca             	sub    r10,r9
    1a26:	4d 0f af c2          	imul   r8,r10
    1a2a:	4d 01 c8             	add    r8,r9
    1a2d:	41 c6 04 13 00       	mov    BYTE PTR [r11+rdx*1],0x0
    1a32:	4c 89 da             	mov    rdx,r11
    1a35:	4c 01 c2             	add    rdx,r8
    1a38:	0f ae 3a             	clflush BYTE PTR [rdx]
    1a3b:	44 8a 41 03          	mov    r8b,BYTE PTR [rcx+0x3]
    1a3f:	41 c0 e8 05          	shr    r8b,0x5
    1a43:	41 80 e0 01          	and    r8b,0x1
    1a47:	44 88 85 24 de ff ff 	mov    BYTE PTR [rbp-0x21dc],r8b
    1a4e:	8b 8d a8 df ff ff    	mov    ecx,DWORD PTR [rbp-0x2058]
    1a54:	48 83 c1 01          	add    rcx,0x1
    1a58:	4c 69 e9 40 02 00 00 	imul   r13,rcx,0x240
    1a5f:	4c 89 da             	mov    rdx,r11
    1a62:	4c 01 ea             	add    rdx,r13
    1a65:	48 89 95 b0 90 ff ff 	mov    QWORD PTR [rbp-0x6f50],rdx
    1a6c:	8b 8d ac df ff ff    	mov    ecx,DWORD PTR [rbp-0x2054]
    1a72:	48 83 c1 01          	add    rcx,0x1
    1a76:	4c 69 e1 40 02 00 00 	imul   r12,rcx,0x240
    1a7d:	4c 89 d9             	mov    rcx,r11
    1a80:	4c 01 e1             	add    rcx,r12
    1a83:	48 89 8d c8 90 ff ff 	mov    QWORD PTR [rbp-0x6f38],rcx
    1a8a:	4d 89 e2             	mov    r10,r12
    1a8d:	4d 29 ea             	sub    r10,r13
    1a90:	45 0f b6 c0          	movzx  r8d,r8b
    1a94:	45 89 c1             	mov    r9d,r8d
    1a97:	4d 89 c8             	mov    r8,r9
    1a9a:	4d 0f af c2          	imul   r8,r10
    1a9e:	4d 01 e8             	add    r8,r13
    1aa1:	4d 89 ea             	mov    r10,r13
    1aa4:	4d 29 e2             	sub    r10,r12
    1aa7:	4d 0f af ca          	imul   r9,r10
    1aab:	4d 01 e1             	add    r9,r12
    1aae:	43 c6 04 03 00       	mov    BYTE PTR [r11+r8*1],0x0
    1ab3:	4d 89 d8             	mov    r8,r11
    1ab6:	4d 01 c8             	add    r8,r9
    1ab9:	41 0f ae 38          	clflush BYTE PTR [r8]
    1abd:	c1 e8 02             	shr    eax,0x2
    1ac0:	24 01                	and    al,0x1
    1ac2:	88 85 9f 90 ff ff    	mov    BYTE PTR [rbp-0x6f61],al
    1ac8:	44 8b 85 d0 e3 ff ff 	mov    r8d,DWORD PTR [rbp-0x1c30]
    1acf:	49 83 c0 01          	add    r8,0x1
    1ad3:	4d 69 f0 40 02 00 00 	imul   r14,r8,0x240
    1ada:	4d 89 d8             	mov    r8,r11
    1add:	4d 01 f0             	add    r8,r14
    1ae0:	4c 89 85 b8 90 ff ff 	mov    QWORD PTR [rbp-0x6f48],r8
    1ae7:	44 8b 8d d4 e3 ff ff 	mov    r9d,DWORD PTR [rbp-0x1c2c]
    1aee:	49 83 c1 01          	add    r9,0x1
    1af2:	49 69 d9 40 02 00 00 	imul   rbx,r9,0x240
    1af9:	4d 89 d9             	mov    r9,r11
    1afc:	49 01 d9             	add    r9,rbx
    1aff:	4c 89 8d c0 90 ff ff 	mov    QWORD PTR [rbp-0x6f40],r9
    1b06:	49 89 df             	mov    r15,rbx
    1b09:	4d 29 f7             	sub    r15,r14
    1b0c:	0f b6 c0             	movzx  eax,al
    1b0f:	41 89 c2             	mov    r10d,eax
    1b12:	4c 89 d0             	mov    rax,r10
    1b15:	49 0f af c7          	imul   rax,r15
    1b19:	4c 01 f0             	add    rax,r14
    1b1c:	4d 89 f7             	mov    r15,r14
    1b1f:	49 29 df             	sub    r15,rbx
    1b22:	4d 0f af d7          	imul   r10,r15
    1b26:	49 01 da             	add    r10,rbx
    1b29:	41 c6 04 03 00       	mov    BYTE PTR [r11+rax*1],0x0
    1b2e:	4c 89 d8             	mov    rax,r11
    1b31:	4c 01 d0             	add    rax,r10
    1b34:	0f ae 38             	clflush BYTE PTR [rax]
    1b37:	8b 85 10 e6 ff ff    	mov    eax,DWORD PTR [rbp-0x19f0]
    1b3d:	48 83 c0 01          	add    rax,0x1
    1b41:	4c 69 d0 40 02 00 00 	imul   r10,rax,0x240
    1b48:	4d 89 d7             	mov    r15,r10
    1b4b:	49 81 ef 00 01 00 00 	sub    r15,0x100
    1b52:	4c 89 d8             	mov    rax,r11
    1b55:	4c 01 d0             	add    rax,r10
    1b58:	48 89 85 d8 97 ff ff 	mov    QWORD PTR [rbp-0x6828],rax
    1b5f:	4d 89 da             	mov    r10,r11
    1b62:	4d 01 fa             	add    r10,r15
    1b65:	0f ae 38             	clflush BYTE PTR [rax]
    1b68:	8b 85 14 e6 ff ff    	mov    eax,DWORD PTR [rbp-0x19ec]
    1b6e:	48 83 c0 01          	add    rax,0x1
    1b72:	48 69 c0 40 02 00 00 	imul   rax,rax,0x240
    1b79:	49 89 c7             	mov    r15,rax
    1b7c:	49 81 ef 00 01 00 00 	sub    r15,0x100
    1b83:	49 01 c3             	add    r11,rax
    1b86:	48 8b 85 b0 da ff ff 	mov    rax,QWORD PTR [rbp-0x2550]
    1b8d:	4c 89 9d e0 97 ff ff 	mov    QWORD PTR [rbp-0x6820],r11
    1b94:	4c 01 f8             	add    rax,r15
    1b97:	41 0f ae 3b          	clflush BYTE PTR [r11]
    1b9b:	0f ae f0             	mfence
    1b9e:	48 83 ec 10          	sub    rsp,0x10
    1ba2:	4c 89 14 24          	mov    QWORD PTR [rsp],r10
    1ba6:	48 89 44 24 08       	mov    QWORD PTR [rsp+0x8],rax
    1bab:	e8 20 7d 02 00       	call   298d0 <__DualGate__3_1_105>
    1bb0:	8b 85 94 de ff ff    	mov    eax,DWORD PTR [rbp-0x216c]
    1bb6:	48 8b 8d 88 de ff ff 	mov    rcx,QWORD PTR [rbp-0x2178]
    1bbd:	4c 8b 9d b0 da ff ff 	mov    r11,QWORD PTR [rbp-0x2550]
    1bc4:	48 83 c4 10          	add    rsp,0x10
    1bc8:	0f ae f0             	mfence
    1bcb:	8a 51 10             	mov    dl,BYTE PTR [rcx+0x10]
    1bce:	d0 ea                	shr    dl,1
    1bd0:	80 e2 01             	and    dl,0x1
    1bd3:	88 95 0f 90 ff ff    	mov    BYTE PTR [rbp-0x6ff1],dl
    1bd9:	8b b5 c8 e2 ff ff    	mov    esi,DWORD PTR [rbp-0x1d38]
    1bdf:	48 83 c6 01          	add    rsi,0x1
    1be3:	4c 69 d6 40 02 00 00 	imul   r10,rsi,0x240
    1bea:	4c 89 95 10 90 ff ff 	mov    QWORD PTR [rbp-0x6ff0],r10
    1bf1:	4c 89 df             	mov    rdi,r11
    1bf4:	4c 01 d7             	add    rdi,r10
    1bf7:	48 89 bd 20 90 ff ff 	mov    QWORD PTR [rbp-0x6fe0],rdi
    1bfe:	8b b5 cc e2 ff ff    	mov    esi,DWORD PTR [rbp-0x1d34]
    1c04:	48 83 c6 01          	add    rsi,0x1
    1c08:	4c 69 ce 40 02 00 00 	imul   r9,rsi,0x240
    1c0f:	4c 89 8d 50 90 ff ff 	mov    QWORD PTR [rbp-0x6fb0],r9
    1c16:	4c 89 de             	mov    rsi,r11
    1c19:	4c 01 ce             	add    rsi,r9
    1c1c:	48 89 b5 28 90 ff ff 	mov    QWORD PTR [rbp-0x6fd8],rsi
    1c23:	4d 89 cf             	mov    r15,r9
    1c26:	4d 29 d7             	sub    r15,r10
    1c29:	0f b6 d2             	movzx  edx,dl
    1c2c:	41 89 d0             	mov    r8d,edx
    1c2f:	4c 89 c2             	mov    rdx,r8
    1c32:	49 0f af d7          	imul   rdx,r15
    1c36:	4c 01 d2             	add    rdx,r10
    1c39:	4d 29 ca             	sub    r10,r9
    1c3c:	4d 0f af c2          	imul   r8,r10
    1c40:	4d 01 c8             	add    r8,r9
    1c43:	41 c6 04 13 00       	mov    BYTE PTR [r11+rdx*1],0x0
    1c48:	4c 89 da             	mov    rdx,r11
    1c4b:	4c 01 c2             	add    rdx,r8
    1c4e:	0f ae 3a             	clflush BYTE PTR [rdx]
    1c51:	8a 49 03             	mov    cl,BYTE PTR [rcx+0x3]
    1c54:	c0 e9 04             	shr    cl,0x4
    1c57:	80 e1 01             	and    cl,0x1
    1c5a:	88 8d 23 de ff ff    	mov    BYTE PTR [rbp-0x21dd],cl
    1c60:	8b 95 a0 df ff ff    	mov    edx,DWORD PTR [rbp-0x2060]
    1c66:	48 83 c2 01          	add    rdx,0x1
    1c6a:	4c 69 ca 40 02 00 00 	imul   r9,rdx,0x240
    1c71:	4c 89 8d 60 90 ff ff 	mov    QWORD PTR [rbp-0x6fa0],r9
    1c78:	4c 89 da             	mov    rdx,r11
    1c7b:	4c 01 ca             	add    rdx,r9
    1c7e:	48 89 95 30 90 ff ff 	mov    QWORD PTR [rbp-0x6fd0],rdx
    1c85:	8b 95 a4 df ff ff    	mov    edx,DWORD PTR [rbp-0x205c]
    1c8b:	48 83 c2 01          	add    rdx,0x1
    1c8f:	4c 69 c2 40 02 00 00 	imul   r8,rdx,0x240
    1c96:	4c 89 85 58 90 ff ff 	mov    QWORD PTR [rbp-0x6fa8],r8
    1c9d:	4c 89 da             	mov    rdx,r11
    1ca0:	4c 01 c2             	add    rdx,r8
    1ca3:	48 89 95 78 90 ff ff 	mov    QWORD PTR [rbp-0x6f88],rdx
    1caa:	4d 89 c2             	mov    r10,r8
    1cad:	4d 29 ca             	sub    r10,r9
    1cb0:	0f b6 c9             	movzx  ecx,cl
    1cb3:	89 ca                	mov    edx,ecx
    1cb5:	48 89 d1             	mov    rcx,rdx
    1cb8:	49 0f af ca          	imul   rcx,r10
    1cbc:	4c 01 c9             	add    rcx,r9
    1cbf:	4d 29 c1             	sub    r9,r8
    1cc2:	49 0f af d1          	imul   rdx,r9
    1cc6:	4c 01 c2             	add    rdx,r8
    1cc9:	41 c6 04 0b 00       	mov    BYTE PTR [r11+rcx*1],0x0
    1cce:	4c 89 d9             	mov    rcx,r11
    1cd1:	48 01 d1             	add    rcx,rdx
    1cd4:	0f ae 39             	clflush BYTE PTR [rcx]
    1cd7:	d1 e8                	shr    eax,1
    1cd9:	24 01                	and    al,0x1
    1cdb:	88 85 77 90 ff ff    	mov    BYTE PTR [rbp-0x6f89],al
    1ce1:	8b 8d c8 e3 ff ff    	mov    ecx,DWORD PTR [rbp-0x1c38]
    1ce7:	48 83 c1 01          	add    rcx,0x1
    1ceb:	4c 69 d1 40 02 00 00 	imul   r10,rcx,0x240
    1cf2:	4c 89 95 18 90 ff ff 	mov    QWORD PTR [rbp-0x6fe8],r10
    1cf9:	4d 89 d8             	mov    r8,r11
    1cfc:	4d 01 d0             	add    r8,r10
    1cff:	4c 89 85 38 90 ff ff 	mov    QWORD PTR [rbp-0x6fc8],r8
    1d06:	8b 8d cc e3 ff ff    	mov    ecx,DWORD PTR [rbp-0x1c34]
    1d0c:	48 83 c1 01          	add    rcx,0x1
    1d10:	4c 69 f9 40 02 00 00 	imul   r15,rcx,0x240
    1d17:	4d 89 d9             	mov    r9,r11
    1d1a:	4d 01 f9             	add    r9,r15
    1d1d:	4c 89 8d 40 90 ff ff 	mov    QWORD PTR [rbp-0x6fc0],r9
    1d24:	4c 89 fa             	mov    rdx,r15
    1d27:	4c 29 d2             	sub    rdx,r10
    1d2a:	0f b6 c0             	movzx  eax,al
    1d2d:	89 c1                	mov    ecx,eax
    1d2f:	48 89 c8             	mov    rax,rcx
    1d32:	48 0f af c2          	imul   rax,rdx
    1d36:	48 8b 95 30 90 ff ff 	mov    rdx,QWORD PTR [rbp-0x6fd0]
    1d3d:	4c 01 d0             	add    rax,r10
    1d40:	4d 29 fa             	sub    r10,r15
    1d43:	49 0f af ca          	imul   rcx,r10
    1d47:	4c 01 f9             	add    rcx,r15
    1d4a:	41 c6 04 03 00       	mov    BYTE PTR [r11+rax*1],0x0
    1d4f:	4c 89 d8             	mov    rax,r11
    1d52:	48 01 c8             	add    rax,rcx
    1d55:	0f ae 38             	clflush BYTE PTR [rax]
    1d58:	8b 85 08 e6 ff ff    	mov    eax,DWORD PTR [rbp-0x19f8]
    1d5e:	48 83 c0 01          	add    rax,0x1
    1d62:	4c 69 d0 40 02 00 00 	imul   r10,rax,0x240
    1d69:	4c 89 d1             	mov    rcx,r10
    1d6c:	48 81 e9 00 01 00 00 	sub    rcx,0x100
    1d73:	4c 89 d8             	mov    rax,r11
    1d76:	4c 01 d0             	add    rax,r10
    1d79:	48 89 85 c8 97 ff ff 	mov    QWORD PTR [rbp-0x6838],rax
    1d80:	4d 89 da             	mov    r10,r11
    1d83:	49 01 ca             	add    r10,rcx
    1d86:	0f ae 38             	clflush BYTE PTR [rax]
    1d89:	8b 85 0c e6 ff ff    	mov    eax,DWORD PTR [rbp-0x19f4]
    1d8f:	48 83 c0 01          	add    rax,0x1
    1d93:	48 69 c0 40 02 00 00 	imul   rax,rax,0x240
    1d9a:	48 89 c1             	mov    rcx,rax
    1d9d:	48 81 e9 00 01 00 00 	sub    rcx,0x100
    1da4:	49 01 c3             	add    r11,rax
    1da7:	48 8b 85 b0 da ff ff 	mov    rax,QWORD PTR [rbp-0x2550]
    1dae:	4c 89 9d d0 97 ff ff 	mov    QWORD PTR [rbp-0x6830],r11
    1db5:	48 01 c8             	add    rax,rcx
    1db8:	48 8b 8d 78 90 ff ff 	mov    rcx,QWORD PTR [rbp-0x6f88]
    1dbf:	41 0f ae 3b          	clflush BYTE PTR [r11]
    1dc3:	0f ae f0             	mfence
    1dc6:	48 83 ec 10          	sub    rsp,0x10
    1dca:	4c 89 14 24          	mov    QWORD PTR [rsp],r10
    1dce:	48 89 44 24 08       	mov    QWORD PTR [rsp+0x8],rax
    1dd3:	e8 b8 7d 02 00       	call   29b90 <__DualGate__3_1_23>
    1dd8:	48 8b 85 88 de ff ff 	mov    rax,QWORD PTR [rbp-0x2178]
    1ddf:	4c 8b 8d b0 da ff ff 	mov    r9,QWORD PTR [rbp-0x2550]
    1de6:	48 83 c4 10          	add    rsp,0x10
    1dea:	0f ae f0             	mfence
    1ded:	8a 48 04             	mov    cl,BYTE PTR [rax+0x4]
    1df0:	c0 e9 02             	shr    cl,0x2
    1df3:	80 e1 01             	and    cl,0x1
    1df6:	88 8d 27 de ff ff    	mov    BYTE PTR [rbp-0x21d9],cl
    1dfc:	8b 95 d0 df ff ff    	mov    edx,DWORD PTR [rbp-0x2030]
    1e02:	48 83 c2 01          	add    rdx,0x1
    1e06:	4c 69 d2 40 02 00 00 	imul   r10,rdx,0x240
    1e0d:	4c 89 cf             	mov    rdi,r9
    1e10:	4c 01 d7             	add    rdi,r10
    1e13:	8b 95 d4 df ff ff    	mov    edx,DWORD PTR [rbp-0x202c]
    1e19:	48 83 c2 01          	add    rdx,0x1
    1e1d:	4c 69 c2 40 02 00 00 	imul   r8,rdx,0x240
    1e24:	4c 89 ce             	mov    rsi,r9
    1e27:	4c 01 c6             	add    rsi,r8
    1e2a:	4d 89 c3             	mov    r11,r8
    1e2d:	4d 29 d3             	sub    r11,r10
    1e30:	0f b6 c9             	movzx  ecx,cl
    1e33:	89 ca                	mov    edx,ecx
    1e35:	48 89 d1             	mov    rcx,rdx
    1e38:	49 0f af cb          	imul   rcx,r11
    1e3c:	4c 01 d1             	add    rcx,r10
    1e3f:	4d 29 c2             	sub    r10,r8
    1e42:	49 0f af d2          	imul   rdx,r10
    1e46:	4c 01 c2             	add    rdx,r8
    1e49:	41 c6 04 09 00       	mov    BYTE PTR [r9+rcx*1],0x0
    1e4e:	4c 89 c9             	mov    rcx,r9
    1e51:	48 01 d1             	add    rcx,rdx
    1e54:	0f ae 39             	clflush BYTE PTR [rcx]
    1e57:	8a 48 08             	mov    cl,BYTE PTR [rax+0x8]
    1e5a:	c0 e9 02             	shr    cl,0x2
    1e5d:	80 e1 01             	and    cl,0x1
    1e60:	88 8d 49 de ff ff    	mov    BYTE PTR [rbp-0x21b7],cl
    1e66:	8b 85 d0 e0 ff ff    	mov    eax,DWORD PTR [rbp-0x1f30]
    1e6c:	48 83 c0 01          	add    rax,0x1
    1e70:	4c 69 d8 40 02 00 00 	imul   r11,rax,0x240
    1e77:	4c 89 ca             	mov    rdx,r9
    1e7a:	4c 01 da             	add    rdx,r11
    1e7d:	8b 85 d4 e0 ff ff    	mov    eax,DWORD PTR [rbp-0x1f2c]
    1e83:	48 83 c0 01          	add    rax,0x1
    1e87:	4c 69 d0 40 02 00 00 	imul   r10,rax,0x240
    1e8e:	4c 89 c8             	mov    rax,r9
    1e91:	4c 01 d0             	add    rax,r10
    1e94:	48 89 85 00 90 ff ff 	mov    QWORD PTR [rbp-0x7000],rax
    1e9b:	4c 89 d0             	mov    rax,r10
    1e9e:	4c 29 d8             	sub    rax,r11
    1ea1:	0f b6 c9             	movzx  ecx,cl
    1ea4:	41 89 c8             	mov    r8d,ecx
    1ea7:	4c 89 c1             	mov    rcx,r8
    1eaa:	48 0f af c8          	imul   rcx,rax
    1eae:	48 8b 85 88 de ff ff 	mov    rax,QWORD PTR [rbp-0x2178]
    1eb5:	4c 01 d9             	add    rcx,r11
    1eb8:	4d 29 d3             	sub    r11,r10
    1ebb:	4d 0f af c3          	imul   r8,r11
    1ebf:	4d 01 d0             	add    r8,r10
    1ec2:	41 c6 04 09 00       	mov    BYTE PTR [r9+rcx*1],0x0
    1ec7:	4c 89 c9             	mov    rcx,r9
    1eca:	4c 01 c1             	add    rcx,r8
    1ecd:	0f ae 39             	clflush BYTE PTR [rcx]
    1ed0:	8a 48 0c             	mov    cl,BYTE PTR [rax+0xc]
    1ed3:	c0 e9 02             	shr    cl,0x2
    1ed6:	80 e1 01             	and    cl,0x1
    1ed9:	88 8d 69 de ff ff    	mov    BYTE PTR [rbp-0x2197],cl
    1edf:	8b 85 d0 e1 ff ff    	mov    eax,DWORD PTR [rbp-0x1e30]
    1ee5:	48 83 c0 01          	add    rax,0x1
    1ee9:	4c 69 d0 40 02 00 00 	imul   r10,rax,0x240
    1ef0:	4c 89 95 f8 8f ff ff 	mov    QWORD PTR [rbp-0x7008],r10
    1ef7:	4d 89 c8             	mov    r8,r9
    1efa:	4d 01 d0             	add    r8,r10
    1efd:	8b 85 d4 e1 ff ff    	mov    eax,DWORD PTR [rbp-0x1e2c]
    1f03:	48 83 c0 01          	add    rax,0x1
    1f07:	4c 69 d8 40 02 00 00 	imul   r11,rax,0x240
    1f0e:	4d 01 d9             	add    r9,r11
    1f11:	4c 89 d8             	mov    rax,r11
    1f14:	4c 29 d0             	sub    rax,r10
    1f17:	0f b6 c9             	movzx  ecx,cl
    1f1a:	41 89 ca             	mov    r10d,ecx
    1f1d:	4c 89 d1             	mov    rcx,r10
    1f20:	48 0f af c8          	imul   rcx,rax
    1f24:	48 8b 85 f8 8f ff ff 	mov    rax,QWORD PTR [rbp-0x7008]
    1f2b:	48 01 c1             	add    rcx,rax
    1f2e:	4c 29 d8             	sub    rax,r11
    1f31:	4c 0f af d0          	imul   r10,rax
    1f35:	48 8b 85 b0 da ff ff 	mov    rax,QWORD PTR [rbp-0x2550]
    1f3c:	4d 01 da             	add    r10,r11
    1f3f:	c6 04 08 00          	mov    BYTE PTR [rax+rcx*1],0x0
    1f43:	48 89 c1             	mov    rcx,rax
    1f46:	4c 01 d1             	add    rcx,r10
    1f49:	0f ae 39             	clflush BYTE PTR [rcx]
    1f4c:	8b 8d 00 e6 ff ff    	mov    ecx,DWORD PTR [rbp-0x1a00]
    1f52:	48 83 c1 01          	add    rcx,0x1
    1f56:	4c 69 d1 40 02 00 00 	imul   r10,rcx,0x240
    1f5d:	4d 89 d3             	mov    r11,r10
    1f60:	49 81 eb 00 01 00 00 	sub    r11,0x100
    1f67:	48 89 c1             	mov    rcx,rax
    1f6a:	4c 01 d1             	add    rcx,r10
    1f6d:	48 89 8d b8 97 ff ff 	mov    QWORD PTR [rbp-0x6848],rcx
    1f74:	49 89 c2             	mov    r10,rax
    1f77:	4d 01 da             	add    r10,r11
    1f7a:	0f ae 39             	clflush BYTE PTR [rcx]
    1f7d:	8b 8d 04 e6 ff ff    	mov    ecx,DWORD PTR [rbp-0x19fc]
    1f83:	48 83 c1 01          	add    rcx,0x1
    1f87:	48 69 c9 40 02 00 00 	imul   rcx,rcx,0x240
    1f8e:	49 89 cb             	mov    r11,rcx
    1f91:	49 81 eb 00 01 00 00 	sub    r11,0x100
    1f98:	48 01 c8             	add    rax,rcx
    1f9b:	48 8b 8d 00 90 ff ff 	mov    rcx,QWORD PTR [rbp-0x7000]
    1fa2:	48 89 85 c0 97 ff ff 	mov    QWORD PTR [rbp-0x6840],rax
    1fa9:	48 8b 85 b0 da ff ff 	mov    rax,QWORD PTR [rbp-0x2550]
    1fb0:	4c 01 d8             	add    rax,r11
    1fb3:	4c 8b 9d c0 97 ff ff 	mov    r11,QWORD PTR [rbp-0x6840]
    1fba:	41 0f ae 3b          	clflush BYTE PTR [r11]
    1fbe:	0f ae f0             	mfence
    1fc1:	48 83 ec 10          	sub    rsp,0x10
    1fc5:	4c 89 14 24          	mov    QWORD PTR [rsp],r10
    1fc9:	48 89 44 24 08       	mov    QWORD PTR [rsp+0x8],rax
    1fce:	e8 8d 76 02 00       	call   29660 <__DualGate__3_1_53>
    1fd3:	44 8a 95 0f 90 ff ff 	mov    r10b,BYTE PTR [rbp-0x6ff1]
    1fda:	48 8b 85 10 90 ff ff 	mov    rax,QWORD PTR [rbp-0x6ff0]
    1fe1:	48 8b 8d 50 90 ff ff 	mov    rcx,QWORD PTR [rbp-0x6fb0]
    1fe8:	4c 8b 9d 18 90 ff ff 	mov    r11,QWORD PTR [rbp-0x6fe8]
    1fef:	48 8b bd 20 90 ff ff 	mov    rdi,QWORD PTR [rbp-0x6fe0]
    1ff6:	48 8b b5 28 90 ff ff 	mov    rsi,QWORD PTR [rbp-0x6fd8]
    1ffd:	48 8b 95 30 90 ff ff 	mov    rdx,QWORD PTR [rbp-0x6fd0]
    2004:	4c 8b 85 38 90 ff ff 	mov    r8,QWORD PTR [rbp-0x6fc8]
    200b:	4c 8b 8d 40 90 ff ff 	mov    r9,QWORD PTR [rbp-0x6fc0]
    2012:	48 83 c4 10          	add    rsp,0x10
    2016:	0f ae f0             	mfence
    2019:	48 29 c1             	sub    rcx,rax
    201c:	45 0f b6 d2          	movzx  r10d,r10b
    2020:	4c 89 95 48 90 ff ff 	mov    QWORD PTR [rbp-0x6fb8],r10
    2027:	4c 0f af d1          	imul   r10,rcx
    202b:	48 8b 8d 50 90 ff ff 	mov    rcx,QWORD PTR [rbp-0x6fb0]
    2032:	49 01 c2             	add    r10,rax
    2035:	48 29 c8             	sub    rax,rcx
    2038:	48 8b 8d 48 90 ff ff 	mov    rcx,QWORD PTR [rbp-0x6fb8]
    203f:	48 0f af c8          	imul   rcx,rax
    2043:	48 8b 85 50 90 ff ff 	mov    rax,QWORD PTR [rbp-0x6fb0]
    204a:	48 01 c1             	add    rcx,rax
    204d:	48 8b 85 b0 da ff ff 	mov    rax,QWORD PTR [rbp-0x2550]
    2054:	42 c6 04 10 00       	mov    BYTE PTR [rax+r10*1],0x0
    2059:	4c 8b 95 60 90 ff ff 	mov    r10,QWORD PTR [rbp-0x6fa0]
    2060:	48 01 c8             	add    rax,rcx
    2063:	48 8b 8d 58 90 ff ff 	mov    rcx,QWORD PTR [rbp-0x6fa8]
    206a:	0f ae 38             	clflush BYTE PTR [rax]
    206d:	8a 85 23 de ff ff    	mov    al,BYTE PTR [rbp-0x21dd]
    2073:	4c 29 d1             	sub    rcx,r10
    2076:	0f b6 c0             	movzx  eax,al
    2079:	41 89 c2             	mov    r10d,eax
    207c:	4c 89 d0             	mov    rax,r10
    207f:	48 0f af c1          	imul   rax,rcx
    2083:	48 8b 8d 60 90 ff ff 	mov    rcx,QWORD PTR [rbp-0x6fa0]
    208a:	48 01 c8             	add    rax,rcx
    208d:	48 8b 8d 58 90 ff ff 	mov    rcx,QWORD PTR [rbp-0x6fa8]
    2094:	48 89 85 68 90 ff ff 	mov    QWORD PTR [rbp-0x6f98],rax
    209b:	48 8b 85 60 90 ff ff 	mov    rax,QWORD PTR [rbp-0x6fa0]
    20a2:	48 29 c8             	sub    rax,rcx
    20a5:	4c 0f af d0          	imul   r10,rax
    20a9:	48 8b 85 68 90 ff ff 	mov    rax,QWORD PTR [rbp-0x6f98]
    20b0:	49 01 ca             	add    r10,rcx
    20b3:	48 8b 8d b0 da ff ff 	mov    rcx,QWORD PTR [rbp-0x2550]
    20ba:	c6 04 01 00          	mov    BYTE PTR [rcx+rax*1],0x0
    20be:	8a 85 77 90 ff ff    	mov    al,BYTE PTR [rbp-0x6f89]
    20c4:	4c 01 d1             	add    rcx,r10
    20c7:	0f ae 39             	clflush BYTE PTR [rcx]
    20ca:	4c 89 f9             	mov    rcx,r15
    20cd:	4c 29 d9             	sub    rcx,r11
    20d0:	0f b6 c0             	movzx  eax,al
    20d3:	41 89 c2             	mov    r10d,eax
    20d6:	4c 89 d0             	mov    rax,r10
    20d9:	48 0f af c1          	imul   rax,rcx
    20dd:	48 8b 8d 78 90 ff ff 	mov    rcx,QWORD PTR [rbp-0x6f88]
    20e4:	4c 01 d8             	add    rax,r11
    20e7:	4d 29 fb             	sub    r11,r15
    20ea:	4d 0f af d3          	imul   r10,r11
    20ee:	4c 8b 9d b0 da ff ff 	mov    r11,QWORD PTR [rbp-0x2550]
    20f5:	4d 01 fa             	add    r10,r15
    20f8:	41 c6 04 03 00       	mov    BYTE PTR [r11+rax*1],0x0
    20fd:	4c 89 d8             	mov    rax,r11
    2100:	4c 01 d0             	add    rax,r10
    2103:	0f ae 38             	clflush BYTE PTR [rax]
    2106:	8b 85 20 e6 ff ff    	mov    eax,DWORD PTR [rbp-0x19e0]
    210c:	48 83 c0 01          	add    rax,0x1
    2110:	4c 69 d0 40 02 00 00 	imul   r10,rax,0x240
    2117:	4d 89 d7             	mov    r15,r10
    211a:	49 81 ef 00 01 00 00 	sub    r15,0x100
    2121:	4c 89 d8             	mov    rax,r11
    2124:	4c 01 d0             	add    rax,r10
    2127:	48 89 85 f8 97 ff ff 	mov    QWORD PTR [rbp-0x6808],rax
    212e:	4d 89 da             	mov    r10,r11
    2131:	4d 01 fa             	add    r10,r15
    2134:	0f ae 38             	clflush BYTE PTR [rax]
    2137:	8b 85 24 e6 ff ff    	mov    eax,DWORD PTR [rbp-0x19dc]
    213d:	48 83 c0 01          	add    rax,0x1
    2141:	48 69 c0 40 02 00 00 	imul   rax,rax,0x240
    2148:	49 89 c7             	mov    r15,rax
    214b:	49 81 ef 00 01 00 00 	sub    r15,0x100
    2152:	49 01 c3             	add    r11,rax
    2155:	48 8b 85 b0 da ff ff 	mov    rax,QWORD PTR [rbp-0x2550]
    215c:	4c 89 9d 00 98 ff ff 	mov    QWORD PTR [rbp-0x6800],r11
    2163:	4c 01 f8             	add    rax,r15
    2166:	41 0f ae 3b          	clflush BYTE PTR [r11]
    216a:	0f ae f0             	mfence
    216d:	48 83 ec 10          	sub    rsp,0x10
    2171:	4c 89 14 24          	mov    QWORD PTR [rsp],r10
    2175:	48 89 44 24 08       	mov    QWORD PTR [rsp+0x8],rax
    217a:	e8 51 77 02 00       	call   298d0 <__DualGate__3_1_105>
    217f:	48 8b 85 88 de ff ff 	mov    rax,QWORD PTR [rbp-0x2178]
    2186:	4c 8b 8d b0 da ff ff 	mov    r9,QWORD PTR [rbp-0x2550]
    218d:	48 83 c4 10          	add    rsp,0x10
    2191:	0f ae f0             	mfence
    2194:	8a 48 04             	mov    cl,BYTE PTR [rax+0x4]
    2197:	d0 e9                	shr    cl,1
    2199:	80 e1 01             	and    cl,0x1
    219c:	88 8d 46 de ff ff    	mov    BYTE PTR [rbp-0x21ba],cl
    21a2:	8b 95 c8 df ff ff    	mov    edx,DWORD PTR [rbp-0x2038]
    21a8:	48 83 c2 01          	add    rdx,0x1
    21ac:	4c 69 d2 40 02 00 00 	imul   r10,rdx,0x240
    21b3:	4c 89 cf             	mov    rdi,r9
    21b6:	4c 01 d7             	add    rdi,r10
    21b9:	8b 95 cc df ff ff    	mov    edx,DWORD PTR [rbp-0x2034]
    21bf:	48 83 c2 01          	add    rdx,0x1
    21c3:	4c 69 c2 40 02 00 00 	imul   r8,rdx,0x240
    21ca:	4c 89 ce             	mov    rsi,r9
    21cd:	4c 01 c6             	add    rsi,r8
    21d0:	4d 89 c3             	mov    r11,r8
    21d3:	4d 29 d3             	sub    r11,r10
    21d6:	0f b6 c9             	movzx  ecx,cl
    21d9:	89 ca                	mov    edx,ecx
    21db:	48 89 d1             	mov    rcx,rdx
    21de:	49 0f af cb          	imul   rcx,r11
    21e2:	4c 01 d1             	add    rcx,r10
    21e5:	4d 29 c2             	sub    r10,r8
    21e8:	49 0f af d2          	imul   rdx,r10
    21ec:	4c 01 c2             	add    rdx,r8
    21ef:	41 c6 04 09 00       	mov    BYTE PTR [r9+rcx*1],0x0
    21f4:	4c 89 c9             	mov    rcx,r9
    21f7:	48 01 d1             	add    rcx,rdx
    21fa:	0f ae 39             	clflush BYTE PTR [rcx]
    21fd:	8a 48 08             	mov    cl,BYTE PTR [rax+0x8]
    2200:	d0 e9                	shr    cl,1
    2202:	80 e1 01             	and    cl,0x1
    2205:	88 8d 48 de ff ff    	mov    BYTE PTR [rbp-0x21b8],cl
    220b:	8b 95 c8 e0 ff ff    	mov    edx,DWORD PTR [rbp-0x1f38]
    2211:	48 83 c2 01          	add    rdx,0x1
    2215:	4c 69 da 40 02 00 00 	imul   r11,rdx,0x240
    221c:	4c 89 ca             	mov    rdx,r9
    221f:	4c 01 da             	add    rdx,r11
    2222:	44 8b 85 cc e0 ff ff 	mov    r8d,DWORD PTR [rbp-0x1f34]
    2229:	49 83 c0 01          	add    r8,0x1
    222d:	4d 69 d0 40 02 00 00 	imul   r10,r8,0x240
    2234:	4d 89 c8             	mov    r8,r9
    2237:	4d 01 d0             	add    r8,r10
    223a:	4c 89 85 80 90 ff ff 	mov    QWORD PTR [rbp-0x6f80],r8
    2241:	4d 89 d7             	mov    r15,r10
    2244:	4d 29 df             	sub    r15,r11
    2247:	0f b6 c9             	movzx  ecx,cl
    224a:	41 89 c8             	mov    r8d,ecx
    224d:	4c 89 c1             	mov    rcx,r8
    2250:	49 0f af cf          	imul   rcx,r15
    2254:	4c 01 d9             	add    rcx,r11
    2257:	4d 29 d3             	sub    r11,r10
    225a:	4d 0f af c3          	imul   r8,r11
    225e:	4d 01 d0             	add    r8,r10
    2261:	41 c6 04 09 00       	mov    BYTE PTR [r9+rcx*1],0x0
    2266:	4c 89 c9             	mov    rcx,r9
    2269:	4c 01 c1             	add    rcx,r8
    226c:	0f ae 39             	clflush BYTE PTR [rcx]
    226f:	8a 40 0c             	mov    al,BYTE PTR [rax+0xc]
    2272:	d0 e8                	shr    al,1
    2274:	24 01                	and    al,0x1
    2276:	88 85 68 de ff ff    	mov    BYTE PTR [rbp-0x2198],al
    227c:	8b 8d c8 e1 ff ff    	mov    ecx,DWORD PTR [rbp-0x1e38]
    2282:	48 83 c1 01          	add    rcx,0x1
    2286:	4c 69 d9 40 02 00 00 	imul   r11,rcx,0x240
    228d:	4d 89 c8             	mov    r8,r9
    2290:	4d 01 d8             	add    r8,r11
    2293:	8b 8d cc e1 ff ff    	mov    ecx,DWORD PTR [rbp-0x1e34]
    2299:	48 83 c1 01          	add    rcx,0x1
    229d:	4c 69 f9 40 02 00 00 	imul   r15,rcx,0x240
    22a4:	4d 01 f9             	add    r9,r15
    22a7:	4c 89 f9             	mov    rcx,r15
    22aa:	4c 29 d9             	sub    rcx,r11
    22ad:	0f b6 c0             	movzx  eax,al
    22b0:	41 89 c2             	mov    r10d,eax
    22b3:	4c 89 d0             	mov    rax,r10
    22b6:	48 0f af c1          	imul   rax,rcx
    22ba:	48 8b 8d 80 90 ff ff 	mov    rcx,QWORD PTR [rbp-0x6f80]
    22c1:	4c 01 d8             	add    rax,r11
    22c4:	4d 29 fb             	sub    r11,r15
    22c7:	4d 0f af d3          	imul   r10,r11
    22cb:	4c 8b 9d b0 da ff ff 	mov    r11,QWORD PTR [rbp-0x2550]
    22d2:	4d 01 fa             	add    r10,r15
    22d5:	41 c6 04 03 00       	mov    BYTE PTR [r11+rax*1],0x0
    22da:	4c 89 d8             	mov    rax,r11
    22dd:	4c 01 d0             	add    rax,r10
    22e0:	0f ae 38             	clflush BYTE PTR [rax]
    22e3:	8b 85 18 e6 ff ff    	mov    eax,DWORD PTR [rbp-0x19e8]
    22e9:	48 83 c0 01          	add    rax,0x1
    22ed:	4c 69 d0 40 02 00 00 	imul   r10,rax,0x240
    22f4:	4d 89 d7             	mov    r15,r10
    22f7:	49 81 ef 00 01 00 00 	sub    r15,0x100
    22fe:	4c 89 d8             	mov    rax,r11
    2301:	4c 01 d0             	add    rax,r10
    2304:	48 89 85 e8 97 ff ff 	mov    QWORD PTR [rbp-0x6818],rax
    230b:	4d 89 da             	mov    r10,r11
    230e:	4d 01 fa             	add    r10,r15
    2311:	0f ae 38             	clflush BYTE PTR [rax]
    2314:	8b 85 1c e6 ff ff    	mov    eax,DWORD PTR [rbp-0x19e4]
    231a:	48 83 c0 01          	add    rax,0x1
    231e:	48 69 c0 40 02 00 00 	imul   rax,rax,0x240
    2325:	49 89 c7             	mov    r15,rax
    2328:	49 81 ef 00 01 00 00 	sub    r15,0x100
    232f:	49 01 c3             	add    r11,rax
    2332:	48 8b 85 b0 da ff ff 	mov    rax,QWORD PTR [rbp-0x2550]
    2339:	4c 89 9d f0 97 ff ff 	mov    QWORD PTR [rbp-0x6810],r11
    2340:	4c 01 f8             	add    rax,r15
    2343:	41 0f ae 3b          	clflush BYTE PTR [r11]
    2347:	0f ae f0             	mfence
    234a:	48 83 ec 10          	sub    rsp,0x10
    234e:	4c 89 14 24          	mov    QWORD PTR [rsp],r10
    2352:	48 89 44 24 08       	mov    QWORD PTR [rsp+0x8],rax
    2357:	e8 04 73 02 00       	call   29660 <__DualGate__3_1_53>
    235c:	44 8a 9d 8f 90 ff ff 	mov    r11b,BYTE PTR [rbp-0x6f71]
    2363:	48 8b 85 90 90 ff ff 	mov    rax,QWORD PTR [rbp-0x6f70]
    236a:	48 8b 8d d0 90 ff ff 	mov    rcx,QWORD PTR [rbp-0x6f30]
    2371:	44 8a 95 9f 90 ff ff 	mov    r10b,BYTE PTR [rbp-0x6f61]
    2378:	48 8b bd a0 90 ff ff 	mov    rdi,QWORD PTR [rbp-0x6f60]
    237f:	48 8b b5 a8 90 ff ff 	mov    rsi,QWORD PTR [rbp-0x6f58]
    2386:	48 8b 95 b0 90 ff ff 	mov    rdx,QWORD PTR [rbp-0x6f50]
    238d:	4c 8b 85 b8 90 ff ff 	mov    r8,QWORD PTR [rbp-0x6f48]
    2394:	4c 8b 8d c0 90 ff ff 	mov    r9,QWORD PTR [rbp-0x6f40]
    239b:	48 83 c4 10          	add    rsp,0x10
    239f:	0f ae f0             	mfence
    23a2:	48 29 c1             	sub    rcx,rax
    23a5:	45 0f b6 db          	movzx  r11d,r11b
    23a9:	45 89 df             	mov    r15d,r11d
    23ac:	4d 89 fb             	mov    r11,r15
    23af:	4c 0f af d9          	imul   r11,rcx
    23b3:	48 8b 8d d0 90 ff ff 	mov    rcx,QWORD PTR [rbp-0x6f30]
    23ba:	49 01 c3             	add    r11,rax
    23bd:	48 29 c8             	sub    rax,rcx
    23c0:	48 8b 8d c8 90 ff ff 	mov    rcx,QWORD PTR [rbp-0x6f38]
    23c7:	4c 0f af f8          	imul   r15,rax
    23cb:	48 8b 85 d0 90 ff ff 	mov    rax,QWORD PTR [rbp-0x6f30]
    23d2:	49 01 c7             	add    r15,rax
    23d5:	48 8b 85 b0 da ff ff 	mov    rax,QWORD PTR [rbp-0x2550]
    23dc:	42 c6 04 18 00       	mov    BYTE PTR [rax+r11*1],0x0
    23e1:	44 8a 9d 24 de ff ff 	mov    r11b,BYTE PTR [rbp-0x21dc]
    23e8:	4c 01 f8             	add    rax,r15
    23eb:	0f ae 38             	clflush BYTE PTR [rax]
    23ee:	4c 89 e0             	mov    rax,r12
    23f1:	4c 29 e8             	sub    rax,r13
    23f4:	45 0f b6 db          	movzx  r11d,r11b
    23f8:	45 89 df             	mov    r15d,r11d
    23fb:	4d 89 fb             	mov    r11,r15
    23fe:	4c 0f af d8          	imul   r11,rax
    2402:	48 8b 85 b0 da ff ff 	mov    rax,QWORD PTR [rbp-0x2550]
    2409:	4d 01 eb             	add    r11,r13
    240c:	4d 29 e5             	sub    r13,r12
    240f:	4d 0f af fd          	imul   r15,r13
    2413:	4d 01 e7             	add    r15,r12
    2416:	42 c6 04 18 00       	mov    BYTE PTR [rax+r11*1],0x0
    241b:	49 89 c3             	mov    r11,rax
    241e:	4d 01 fb             	add    r11,r15
    2421:	41 0f ae 3b          	clflush BYTE PTR [r11]
    2425:	49 89 df             	mov    r15,rbx
    2428:	4d 29 f7             	sub    r15,r14
    242b:	45 0f b6 d2          	movzx  r10d,r10b
    242f:	45 89 d3             	mov    r11d,r10d
    2432:	4d 89 da             	mov    r10,r11
    2435:	4d 0f af d7          	imul   r10,r15
    2439:	4d 01 f2             	add    r10,r14
    243c:	49 29 de             	sub    r14,rbx
    243f:	4d 0f af de          	imul   r11,r14
    2443:	49 01 db             	add    r11,rbx
    2446:	42 c6 04 10 00       	mov    BYTE PTR [rax+r10*1],0x0
    244b:	49 89 c2             	mov    r10,rax
    244e:	4d 01 da             	add    r10,r11
    2451:	41 0f ae 3a          	clflush BYTE PTR [r10]
    2455:	44 8b 95 58 e6 ff ff 	mov    r10d,DWORD PTR [rbp-0x19a8]
    245c:	49 83 c2 01          	add    r10,0x1
    2460:	4d 69 d2 40 02 00 00 	imul   r10,r10,0x240
    2467:	4c 89 d3             	mov    rbx,r10
    246a:	48 81 eb 00 01 00 00 	sub    rbx,0x100
    2471:	49 89 c3             	mov    r11,rax
    2474:	4d 01 d3             	add    r11,r10
    2477:	4c 89 9d 18 98 ff ff 	mov    QWORD PTR [rbp-0x67e8],r11
    247e:	49 89 c2             	mov    r10,rax
    2481:	49 01 da             	add    r10,rbx
    2484:	41 0f ae 3b          	clflush BYTE PTR [r11]
    2488:	44 8b 9d 5c e6 ff ff 	mov    r11d,DWORD PTR [rbp-0x19a4]
    248f:	49 83 c3 01          	add    r11,0x1
    2493:	4d 69 f3 40 02 00 00 	imul   r14,r11,0x240
    249a:	4c 89 f3             	mov    rbx,r14
    249d:	48 81 eb 00 01 00 00 	sub    rbx,0x100
    24a4:	49 89 c3             	mov    r11,rax
    24a7:	4d 01 f3             	add    r11,r14
    24aa:	4c 89 9d 20 98 ff ff 	mov    QWORD PTR [rbp-0x67e0],r11
    24b1:	48 01 d8             	add    rax,rbx
    24b4:	41 0f ae 3b          	clflush BYTE PTR [r11]
    24b8:	0f ae f0             	mfence
    24bb:	48 83 ec 10          	sub    rsp,0x10
    24bf:	4c 89 14 24          	mov    QWORD PTR [rsp],r10
    24c3:	48 89 44 24 08       	mov    QWORD PTR [rsp+0x8],rax
    24c8:	e8 c3 76 02 00       	call   29b90 <__DualGate__3_1_23>
    24cd:	4c 8b 85 88 de ff ff 	mov    r8,QWORD PTR [rbp-0x2178]
    24d4:	48 8b 85 b0 da ff ff 	mov    rax,QWORD PTR [rbp-0x2550]
    24db:	48 83 c4 10          	add    rsp,0x10
    24df:	0f ae f0             	mfence
    24e2:	41 8a 48 04          	mov    cl,BYTE PTR [r8+0x4]
    24e6:	c0 e9 03             	shr    cl,0x3
    24e9:	80 e1 01             	and    cl,0x1
    24ec:	88 8d 28 de ff ff    	mov    BYTE PTR [rbp-0x21d8],cl
    24f2:	8b 95 d8 df ff ff    	mov    edx,DWORD PTR [rbp-0x2028]
    24f8:	48 83 c2 01          	add    rdx,0x1
    24fc:	4c 69 d2 40 02 00 00 	imul   r10,rdx,0x240
    2503:	48 89 c7             	mov    rdi,rax
    2506:	4c 01 d7             	add    rdi,r10
    2509:	8b 95 dc df ff ff    	mov    edx,DWORD PTR [rbp-0x2024]
    250f:	48 83 c2 01          	add    rdx,0x1
    2513:	4c 69 ca 40 02 00 00 	imul   r9,rdx,0x240
    251a:	48 89 c6             	mov    rsi,rax
    251d:	4c 01 ce             	add    rsi,r9
    2520:	4d 89 cb             	mov    r11,r9
    2523:	4d 29 d3             	sub    r11,r10
    2526:	0f b6 c9             	movzx  ecx,cl
    2529:	89 ca                	mov    edx,ecx
    252b:	48 89 d1             	mov    rcx,rdx
    252e:	49 0f af cb          	imul   rcx,r11
    2532:	4c 01 d1             	add    rcx,r10
    2535:	4d 29 ca             	sub    r10,r9
    2538:	49 0f af d2          	imul   rdx,r10
    253c:	4c 01 ca             	add    rdx,r9
    253f:	c6 04 08 00          	mov    BYTE PTR [rax+rcx*1],0x0
    2543:	48 89 c1             	mov    rcx,rax
    2546:	48 01 d1             	add    rcx,rdx
    2549:	0f ae 39             	clflush BYTE PTR [rcx]
    254c:	45 8a 48 08          	mov    r9b,BYTE PTR [r8+0x8]
    2550:	41 c0 e9 03          	shr    r9b,0x3
    2554:	41 80 e1 01          	and    r9b,0x1
    2558:	44 88 8d 4a de ff ff 	mov    BYTE PTR [rbp-0x21b6],r9b
    255f:	8b 8d d8 e0 ff ff    	mov    ecx,DWORD PTR [rbp-0x1f28]
    2565:	48 83 c1 01          	add    rcx,0x1
    2569:	48 69 d9 40 02 00 00 	imul   rbx,rcx,0x240
    2570:	48 89 c2             	mov    rdx,rax
    2573:	48 01 da             	add    rdx,rbx
    2576:	8b 8d dc e0 ff ff    	mov    ecx,DWORD PTR [rbp-0x1f24]
    257c:	48 83 c1 01          	add    rcx,0x1
    2580:	4c 69 d9 40 02 00 00 	imul   r11,rcx,0x240
    2587:	48 89 c1             	mov    rcx,rax
    258a:	4c 01 d9             	add    rcx,r11
    258d:	4d 89 de             	mov    r14,r11
    2590:	49 29 de             	sub    r14,rbx
    2593:	45 0f b6 c9          	movzx  r9d,r9b
    2597:	45 89 ca             	mov    r10d,r9d
    259a:	4d 89 d1             	mov    r9,r10
    259d:	4d 0f af ce          	imul   r9,r14
    25a1:	49 01 d9             	add    r9,rbx
    25a4:	4c 29 db             	sub    rbx,r11
    25a7:	4c 0f af d3          	imul   r10,rbx
    25ab:	4d 01 da             	add    r10,r11
    25ae:	42 c6 04 08 00       	mov    BYTE PTR [rax+r9*1],0x0
    25b3:	49 89 c1             	mov    r9,rax
    25b6:	4d 01 d1             	add    r9,r10
    25b9:	41 0f ae 39          	clflush BYTE PTR [r9]
    25bd:	45 8a 50 0c          	mov    r10b,BYTE PTR [r8+0xc]
    25c1:	41 c0 ea 03          	shr    r10b,0x3
    25c5:	41 80 e2 01          	and    r10b,0x1
    25c9:	44 88 95 6a de ff ff 	mov    BYTE PTR [rbp-0x2196],r10b
    25d0:	44 8b 85 d8 e1 ff ff 	mov    r8d,DWORD PTR [rbp-0x1e28]
    25d7:	49 83 c0 01          	add    r8,0x1
    25db:	4d 69 f0 40 02 00 00 	imul   r14,r8,0x240
    25e2:	49 89 c0             	mov    r8,rax
    25e5:	4d 01 f0             	add    r8,r14
    25e8:	44 8b 8d dc e1 ff ff 	mov    r9d,DWORD PTR [rbp-0x1e24]
    25ef:	49 83 c1 01          	add    r9,0x1
    25f3:	49 69 d9 40 02 00 00 	imul   rbx,r9,0x240
    25fa:	49 89 c1             	mov    r9,rax
    25fd:	49 01 d9             	add    r9,rbx
    2600:	49 89 df             	mov    r15,rbx
    2603:	4d 29 f7             	sub    r15,r14
    2606:	45 0f b6 d2          	movzx  r10d,r10b
    260a:	45 89 d3             	mov    r11d,r10d
    260d:	4d 89 da             	mov    r10,r11
    2610:	4d 0f af d7          	imul   r10,r15
    2614:	4d 01 f2             	add    r10,r14
    2617:	49 29 de             	sub    r14,rbx
    261a:	4d 0f af de          	imul   r11,r14
    261e:	49 01 db             	add    r11,rbx
    2621:	42 c6 04 10 00       	mov    BYTE PTR [rax+r10*1],0x0
    2626:	49 89 c2             	mov    r10,rax
    2629:	4d 01 da             	add    r10,r11
    262c:	41 0f ae 3a          	clflush BYTE PTR [r10]
    2630:	44 8b 95 40 e6 ff ff 	mov    r10d,DWORD PTR [rbp-0x19c0]
    2637:	49 83 c2 01          	add    r10,0x1
    263b:	4d 69 d2 40 02 00 00 	imul   r10,r10,0x240
    2642:	4c 89 d3             	mov    rbx,r10
    2645:	48 81 eb 00 01 00 00 	sub    rbx,0x100
    264c:	49 89 c3             	mov    r11,rax
    264f:	4d 01 d3             	add    r11,r10
    2652:	4c 89 9d 08 98 ff ff 	mov    QWORD PTR [rbp-0x67f8],r11
    2659:	49 89 c2             	mov    r10,rax
    265c:	49 01 da             	add    r10,rbx
    265f:	41 0f ae 3b          	clflush BYTE PTR [r11]
    2663:	44 8b 9d 44 e6 ff ff 	mov    r11d,DWORD PTR [rbp-0x19bc]
    266a:	49 83 c3 01          	add    r11,0x1
    266e:	4d 69 f3 40 02 00 00 	imul   r14,r11,0x240
    2675:	4c 89 f3             	mov    rbx,r14
    2678:	48 81 eb 00 01 00 00 	sub    rbx,0x100
    267f:	49 89 c3             	mov    r11,rax
    2682:	4d 01 f3             	add    r11,r14
    2685:	4c 89 9d 10 98 ff ff 	mov    QWORD PTR [rbp-0x67f0],r11
    268c:	48 01 d8             	add    rax,rbx
    268f:	41 0f ae 3b          	clflush BYTE PTR [r11]
    2693:	0f ae f0             	mfence
    2696:	48 83 ec 10          	sub    rsp,0x10
    269a:	4c 89 14 24          	mov    QWORD PTR [rsp],r10
    269e:	48 89 44 24 08       	mov    QWORD PTR [rsp+0x8],rax
    26a3:	e8 b8 6f 02 00       	call   29660 <__DualGate__3_1_53>
    26a8:	48 8b 85 88 de ff ff 	mov    rax,QWORD PTR [rbp-0x2178]
    26af:	4c 8b 8d b0 da ff ff 	mov    r9,QWORD PTR [rbp-0x2550]
    26b6:	48 83 c4 10          	add    rsp,0x10
    26ba:	0f ae f0             	mfence
    26bd:	8a 48 10             	mov    cl,BYTE PTR [rax+0x10]
    26c0:	c0 e9 03             	shr    cl,0x3
    26c3:	80 e1 01             	and    cl,0x1
    26c6:	88 8d 57 9d ff ff    	mov    BYTE PTR [rbp-0x62a9],cl
    26cc:	8b 95 d8 e2 ff ff    	mov    edx,DWORD PTR [rbp-0x1d28]
    26d2:	48 83 c2 01          	add    rdx,0x1
    26d6:	4c 69 d2 40 02 00 00 	imul   r10,rdx,0x240
    26dd:	4c 89 95 58 9d ff ff 	mov    QWORD PTR [rbp-0x62a8],r10
    26e4:	4c 89 cf             	mov    rdi,r9
    26e7:	4c 01 d7             	add    rdi,r10
    26ea:	48 89 bd 60 9d ff ff 	mov    QWORD PTR [rbp-0x62a0],rdi
    26f1:	8b 95 dc e2 ff ff    	mov    edx,DWORD PTR [rbp-0x1d24]
    26f7:	48 83 c2 01          	add    rdx,0x1
    26fb:	4c 69 c2 40 02 00 00 	imul   r8,rdx,0x240
    2702:	4c 89 85 98 9d ff ff 	mov    QWORD PTR [rbp-0x6268],r8
    2709:	4c 89 ce             	mov    rsi,r9
    270c:	4c 01 c6             	add    rsi,r8
    270f:	48 89 b5 68 9d ff ff 	mov    QWORD PTR [rbp-0x6298],rsi
    2716:	4d 89 c3             	mov    r11,r8
    2719:	4d 29 d3             	sub    r11,r10
    271c:	0f b6 c9             	movzx  ecx,cl
    271f:	89 ca                	mov    edx,ecx
    2721:	48 89 d1             	mov    rcx,rdx
    2724:	49 0f af cb          	imul   rcx,r11
    2728:	4c 01 d1             	add    rcx,r10
    272b:	4d 29 c2             	sub    r10,r8
    272e:	49 0f af d2          	imul   rdx,r10
    2732:	4c 01 c2             	add    rdx,r8
    2735:	41 c6 04 09 00       	mov    BYTE PTR [r9+rcx*1],0x0
    273a:	4c 89 c9             	mov    rcx,r9
    273d:	48 01 d1             	add    rcx,rdx
    2740:	0f ae 39             	clflush BYTE PTR [rcx]
    2743:	8a 40 03             	mov    al,BYTE PTR [rax+0x3]
    2746:	c0 e8 06             	shr    al,0x6
    2749:	24 01                	and    al,0x1
    274b:	88 85 25 de ff ff    	mov    BYTE PTR [rbp-0x21db],al
    2751:	8b 8d b0 df ff ff    	mov    ecx,DWORD PTR [rbp-0x2050]
    2757:	48 83 c1 01          	add    rcx,0x1
    275b:	4c 69 d9 40 02 00 00 	imul   r11,rcx,0x240
    2762:	4c 89 9d a0 9d ff ff 	mov    QWORD PTR [rbp-0x6260],r11
    2769:	4c 89 ca             	mov    rdx,r9
    276c:	4c 01 da             	add    rdx,r11
    276f:	48 89 95 70 9d ff ff 	mov    QWORD PTR [rbp-0x6290],rdx
    2776:	8b 8d b4 df ff ff    	mov    ecx,DWORD PTR [rbp-0x204c]
    277c:	48 83 c1 01          	add    rcx,0x1
    2780:	4c 69 d1 40 02 00 00 	imul   r10,rcx,0x240
    2787:	4c 89 95 b0 9d ff ff 	mov    QWORD PTR [rbp-0x6250],r10
    278e:	4c 89 c9             	mov    rcx,r9
    2791:	4c 01 d1             	add    rcx,r10
    2794:	48 89 8d e0 9d ff ff 	mov    QWORD PTR [rbp-0x6220],rcx
    279b:	4c 89 d3             	mov    rbx,r10
    279e:	4c 29 db             	sub    rbx,r11
    27a1:	0f b6 c0             	movzx  eax,al
    27a4:	41 89 c0             	mov    r8d,eax
    27a7:	4c 89 c0             	mov    rax,r8
    27aa:	48 0f af c3          	imul   rax,rbx
    27ae:	4c 01 d8             	add    rax,r11
    27b1:	4d 29 d3             	sub    r11,r10
    27b4:	4d 0f af c3          	imul   r8,r11
    27b8:	4d 01 d0             	add    r8,r10
    27bb:	41 c6 04 01 00       	mov    BYTE PTR [r9+rax*1],0x0
    27c0:	4c 89 c8             	mov    rax,r9
    27c3:	4c 01 c0             	add    rax,r8
    27c6:	0f ae 38             	clflush BYTE PTR [rax]
    27c9:	8b 85 a0 e6 ff ff    	mov    eax,DWORD PTR [rbp-0x1960]
    27cf:	48 83 c0 01          	add    rax,0x1
    27d3:	4c 69 c0 40 02 00 00 	imul   r8,rax,0x240
    27da:	4d 89 c2             	mov    r10,r8
    27dd:	49 81 ea 00 01 00 00 	sub    r10,0x100
    27e4:	4c 89 c8             	mov    rax,r9
    27e7:	4c 01 c0             	add    rax,r8
    27ea:	48 89 85 38 98 ff ff 	mov    QWORD PTR [rbp-0x67c8],rax
    27f1:	4d 89 c8             	mov    r8,r9
    27f4:	4d 01 d0             	add    r8,r10
    27f7:	0f ae 38             	clflush BYTE PTR [rax]
    27fa:	8b 85 a4 e6 ff ff    	mov    eax,DWORD PTR [rbp-0x195c]
    2800:	48 83 c0 01          	add    rax,0x1
    2804:	4c 69 d8 40 02 00 00 	imul   r11,rax,0x240
    280b:	4d 89 da             	mov    r10,r11
    280e:	49 81 ea 00 01 00 00 	sub    r10,0x100
    2815:	4c 89 c8             	mov    rax,r9
    2818:	4c 01 d8             	add    rax,r11
    281b:	48 89 85 40 98 ff ff 	mov    QWORD PTR [rbp-0x67c0],rax
    2822:	4d 01 d1             	add    r9,r10
    2825:	0f ae 38             	clflush BYTE PTR [rax]
    2828:	0f ae f0             	mfence
    282b:	e8 f0 75 02 00       	call   29e20 <__DualGate__2_1_1>
    2830:	4c 8b 85 88 de ff ff 	mov    r8,QWORD PTR [rbp-0x2178]
    2837:	48 8b 85 b0 da ff ff 	mov    rax,QWORD PTR [rbp-0x2550]
    283e:	0f ae f0             	mfence
    2841:	41 8a 48 04          	mov    cl,BYTE PTR [r8+0x4]
    2845:	c0 e9 04             	shr    cl,0x4
    2848:	80 e1 01             	and    cl,0x1
    284b:	88 8d 29 de ff ff    	mov    BYTE PTR [rbp-0x21d7],cl
    2851:	8b 95 e0 df ff ff    	mov    edx,DWORD PTR [rbp-0x2020]
    2857:	48 83 c2 01          	add    rdx,0x1
    285b:	4c 69 d2 40 02 00 00 	imul   r10,rdx,0x240
    2862:	48 89 c7             	mov    rdi,rax
    2865:	4c 01 d7             	add    rdi,r10
    2868:	8b 95 e4 df ff ff    	mov    edx,DWORD PTR [rbp-0x201c]
    286e:	48 83 c2 01          	add    rdx,0x1
    2872:	4c 69 ca 40 02 00 00 	imul   r9,rdx,0x240
    2879:	48 89 c6             	mov    rsi,rax
    287c:	4c 01 ce             	add    rsi,r9
    287f:	4d 89 cb             	mov    r11,r9
    2882:	4d 29 d3             	sub    r11,r10
    2885:	0f b6 c9             	movzx  ecx,cl
    2888:	89 ca                	mov    edx,ecx
    288a:	48 89 d1             	mov    rcx,rdx
    288d:	49 0f af cb          	imul   rcx,r11
    2891:	4c 01 d1             	add    rcx,r10
    2894:	4d 29 ca             	sub    r10,r9
    2897:	49 0f af d2          	imul   rdx,r10
    289b:	4c 01 ca             	add    rdx,r9
    289e:	c6 04 08 00          	mov    BYTE PTR [rax+rcx*1],0x0
    28a2:	48 89 c1             	mov    rcx,rax
    28a5:	48 01 d1             	add    rcx,rdx
    28a8:	0f ae 39             	clflush BYTE PTR [rcx]
    28ab:	45 8a 48 08          	mov    r9b,BYTE PTR [r8+0x8]
    28af:	41 c0 e9 04          	shr    r9b,0x4
    28b3:	41 80 e1 01          	and    r9b,0x1
    28b7:	44 88 8d 4b de ff ff 	mov    BYTE PTR [rbp-0x21b5],r9b
    28be:	8b 8d e0 e0 ff ff    	mov    ecx,DWORD PTR [rbp-0x1f20]
    28c4:	48 83 c1 01          	add    rcx,0x1
    28c8:	48 69 d9 40 02 00 00 	imul   rbx,rcx,0x240
    28cf:	48 89 c2             	mov    rdx,rax
    28d2:	48 01 da             	add    rdx,rbx
    28d5:	8b 8d e4 e0 ff ff    	mov    ecx,DWORD PTR [rbp-0x1f1c]
    28db:	48 83 c1 01          	add    rcx,0x1
    28df:	4c 69 d9 40 02 00 00 	imul   r11,rcx,0x240
    28e6:	48 89 c1             	mov    rcx,rax
    28e9:	4c 01 d9             	add    rcx,r11
    28ec:	4d 89 de             	mov    r14,r11
    28ef:	49 29 de             	sub    r14,rbx
    28f2:	45 0f b6 c9          	movzx  r9d,r9b
    28f6:	45 89 ca             	mov    r10d,r9d
    28f9:	4d 89 d1             	mov    r9,r10
    28fc:	4d 0f af ce          	imul   r9,r14
    2900:	49 01 d9             	add    r9,rbx
    2903:	4c 29 db             	sub    rbx,r11
    2906:	4c 0f af d3          	imul   r10,rbx
    290a:	4d 01 da             	add    r10,r11
    290d:	42 c6 04 08 00       	mov    BYTE PTR [rax+r9*1],0x0
    2912:	49 89 c1             	mov    r9,rax
    2915:	4d 01 d1             	add    r9,r10
    2918:	41 0f ae 39          	clflush BYTE PTR [r9]
    291c:	45 8a 50 0c          	mov    r10b,BYTE PTR [r8+0xc]
    2920:	41 c0 ea 04          	shr    r10b,0x4
    2924:	41 80 e2 01          	and    r10b,0x1
    2928:	44 88 95 6b de ff ff 	mov    BYTE PTR [rbp-0x2195],r10b
    292f:	44 8b 85 e0 e1 ff ff 	mov    r8d,DWORD PTR [rbp-0x1e20]
    2936:	49 83 c0 01          	add    r8,0x1
    293a:	4d 69 f0 40 02 00 00 	imul   r14,r8,0x240
    2941:	49 89 c0             	mov    r8,rax
    2944:	4d 01 f0             	add    r8,r14
    2947:	44 8b 8d e4 e1 ff ff 	mov    r9d,DWORD PTR [rbp-0x1e1c]
    294e:	49 83 c1 01          	add    r9,0x1
    2952:	49 69 d9 40 02 00 00 	imul   rbx,r9,0x240
    2959:	49 89 c1             	mov    r9,rax
    295c:	49 01 d9             	add    r9,rbx
    295f:	49 89 df             	mov    r15,rbx
    2962:	4d 29 f7             	sub    r15,r14
    2965:	45 0f b6 d2          	movzx  r10d,r10b
    2969:	45 89 d3             	mov    r11d,r10d
    296c:	4d 89 da             	mov    r10,r11
    296f:	4d 0f af d7          	imul   r10,r15
    2973:	4d 01 f2             	add    r10,r14
    2976:	49 29 de             	sub    r14,rbx
    2979:	4d 0f af de          	imul   r11,r14
    297d:	49 01 db             	add    r11,rbx
    2980:	42 c6 04 10 00       	mov    BYTE PTR [rax+r10*1],0x0
    2985:	49 89 c2             	mov    r10,rax
    2988:	4d 01 da             	add    r10,r11
    298b:	41 0f ae 3a          	clflush BYTE PTR [r10]
    298f:	44 8b 95 88 e6 ff ff 	mov    r10d,DWORD PTR [rbp-0x1978]
    2996:	49 83 c2 01          	add    r10,0x1
    299a:	4d 69 d2 40 02 00 00 	imul   r10,r10,0x240
    29a1:	4c 89 d3             	mov    rbx,r10
    29a4:	48 81 eb 00 01 00 00 	sub    rbx,0x100
    29ab:	49 89 c3             	mov    r11,rax
    29ae:	4d 01 d3             	add    r11,r10
    29b1:	4c 89 9d 28 98 ff ff 	mov    QWORD PTR [rbp-0x67d8],r11
    29b8:	49 89 c2             	mov    r10,rax
    29bb:	49 01 da             	add    r10,rbx
    29be:	41 0f ae 3b          	clflush BYTE PTR [r11]
    29c2:	44 8b 9d 8c e6 ff ff 	mov    r11d,DWORD PTR [rbp-0x1974]
    29c9:	49 83 c3 01          	add    r11,0x1
    29cd:	4d 69 f3 40 02 00 00 	imul   r14,r11,0x240
    29d4:	4c 89 f3             	mov    rbx,r14
    29d7:	48 81 eb 00 01 00 00 	sub    rbx,0x100
    29de:	49 89 c3             	mov    r11,rax
    29e1:	4d 01 f3             	add    r11,r14
    29e4:	4c 89 9d 30 98 ff ff 	mov    QWORD PTR [rbp-0x67d0],r11
    29eb:	48 01 d8             	add    rax,rbx
    29ee:	41 0f ae 3b          	clflush BYTE PTR [r11]
    29f2:	0f ae f0             	mfence
    29f5:	48 83 ec 10          	sub    rsp,0x10
    29f9:	4c 89 14 24          	mov    QWORD PTR [rsp],r10
    29fd:	48 89 44 24 08       	mov    QWORD PTR [rsp+0x8],rax
    2a02:	e8 59 6c 02 00       	call   29660 <__DualGate__3_1_53>
    2a07:	44 8b 85 94 de ff ff 	mov    r8d,DWORD PTR [rbp-0x216c]
    2a0e:	48 8b 8d 88 de ff ff 	mov    rcx,QWORD PTR [rbp-0x2178]
    2a15:	48 8b 85 b0 da ff ff 	mov    rax,QWORD PTR [rbp-0x2550]
    2a1c:	48 83 c4 10          	add    rsp,0x10
    2a20:	0f ae f0             	mfence
    2a23:	8a 51 10             	mov    dl,BYTE PTR [rcx+0x10]
    2a26:	c0 ea 05             	shr    dl,0x5
    2a29:	80 e2 01             	and    dl,0x1
    2a2c:	88 95 df 90 ff ff    	mov    BYTE PTR [rbp-0x6f21],dl
    2a32:	8b b5 e8 e2 ff ff    	mov    esi,DWORD PTR [rbp-0x1d18]
    2a38:	48 83 c6 01          	add    rsi,0x1
    2a3c:	4c 69 de 40 02 00 00 	imul   r11,rsi,0x240
    2a43:	4c 89 9d e0 90 ff ff 	mov    QWORD PTR [rbp-0x6f20],r11
    2a4a:	48 89 c7             	mov    rdi,rax
    2a4d:	4c 01 df             	add    rdi,r11
    2a50:	48 89 bd f0 90 ff ff 	mov    QWORD PTR [rbp-0x6f10],rdi
    2a57:	8b b5 ec e2 ff ff    	mov    esi,DWORD PTR [rbp-0x1d14]
    2a5d:	48 83 c6 01          	add    rsi,0x1
    2a61:	4c 69 d6 40 02 00 00 	imul   r10,rsi,0x240
    2a68:	4c 89 95 20 91 ff ff 	mov    QWORD PTR [rbp-0x6ee0],r10
    2a6f:	48 89 c6             	mov    rsi,rax
    2a72:	4c 01 d6             	add    rsi,r10
    2a75:	48 89 b5 f8 90 ff ff 	mov    QWORD PTR [rbp-0x6f08],rsi
    2a7c:	4c 89 d3             	mov    rbx,r10
    2a7f:	4c 29 db             	sub    rbx,r11
    2a82:	0f b6 d2             	movzx  edx,dl
    2a85:	41 89 d1             	mov    r9d,edx
    2a88:	4c 89 ca             	mov    rdx,r9
    2a8b:	48 0f af d3          	imul   rdx,rbx
    2a8f:	4c 01 da             	add    rdx,r11
    2a92:	4d 29 d3             	sub    r11,r10
    2a95:	4d 0f af cb          	imul   r9,r11
    2a99:	4d 01 d1             	add    r9,r10
    2a9c:	c6 04 10 00          	mov    BYTE PTR [rax+rdx*1],0x0
    2aa0:	48 89 c2             	mov    rdx,rax
    2aa3:	4c 01 ca             	add    rdx,r9
    2aa6:	0f ae 3a             	clflush BYTE PTR [rdx]
    2aa9:	44 8a 09             	mov    r9b,BYTE PTR [rcx]
    2aac:	41 80 e1 01          	and    r9b,0x1
    2ab0:	44 88 8d 07 de ff ff 	mov    BYTE PTR [rbp-0x21f9],r9b
    2ab7:	8b 8d c0 de ff ff    	mov    ecx,DWORD PTR [rbp-0x2140]
    2abd:	48 83 c1 01          	add    rcx,0x1
    2ac1:	48 69 d9 40 02 00 00 	imul   rbx,rcx,0x240
    2ac8:	48 89 9d 30 91 ff ff 	mov    QWORD PTR [rbp-0x6ed0],rbx
    2acf:	48 89 c2             	mov    rdx,rax
    2ad2:	48 01 da             	add    rdx,rbx
    2ad5:	48 89 95 00 91 ff ff 	mov    QWORD PTR [rbp-0x6f00],rdx
    2adc:	8b 8d c4 de ff ff    	mov    ecx,DWORD PTR [rbp-0x213c]
    2ae2:	48 83 c1 01          	add    rcx,0x1
    2ae6:	4c 69 d9 40 02 00 00 	imul   r11,rcx,0x240
    2aed:	4c 89 9d 28 91 ff ff 	mov    QWORD PTR [rbp-0x6ed8],r11
    2af4:	48 89 c1             	mov    rcx,rax
    2af7:	4c 01 d9             	add    rcx,r11
    2afa:	48 89 8d 48 91 ff ff 	mov    QWORD PTR [rbp-0x6eb8],rcx
    2b01:	4d 89 de             	mov    r14,r11
    2b04:	49 29 de             	sub    r14,rbx
    2b07:	45 0f b6 c9          	movzx  r9d,r9b
    2b0b:	45 89 ca             	mov    r10d,r9d
    2b0e:	4d 89 d1             	mov    r9,r10
    2b11:	4d 0f af ce          	imul   r9,r14
    2b15:	49 01 d9             	add    r9,rbx
    2b18:	4c 29 db             	sub    rbx,r11
    2b1b:	4c 0f af d3          	imul   r10,rbx
    2b1f:	4d 01 da             	add    r10,r11
    2b22:	42 c6 04 08 00       	mov    BYTE PTR [rax+r9*1],0x0
    2b27:	49 89 c1             	mov    r9,rax
    2b2a:	4d 01 d1             	add    r9,r10
    2b2d:	41 0f ae 39          	clflush BYTE PTR [r9]
    2b31:	41 c1 e8 05          	shr    r8d,0x5
    2b35:	45 88 c2             	mov    r10b,r8b
    2b38:	41 80 e2 01          	and    r10b,0x1
    2b3c:	44 88 95 47 91 ff ff 	mov    BYTE PTR [rbp-0x6eb9],r10b
    2b43:	44 8b 85 e8 e3 ff ff 	mov    r8d,DWORD PTR [rbp-0x1c18]
    2b4a:	49 83 c0 01          	add    r8,0x1
    2b4e:	49 69 d8 40 02 00 00 	imul   rbx,r8,0x240
    2b55:	48 89 9d e8 90 ff ff 	mov    QWORD PTR [rbp-0x6f18],rbx
    2b5c:	49 89 c0             	mov    r8,rax
    2b5f:	49 01 d8             	add    r8,rbx
    2b62:	4c 89 85 08 91 ff ff 	mov    QWORD PTR [rbp-0x6ef8],r8
    2b69:	44 8b 8d ec e3 ff ff 	mov    r9d,DWORD PTR [rbp-0x1c14]
    2b70:	49 83 c1 01          	add    r9,0x1
    2b74:	4d 69 f9 40 02 00 00 	imul   r15,r9,0x240
    2b7b:	49 89 c1             	mov    r9,rax
    2b7e:	4d 01 f9             	add    r9,r15
    2b81:	4c 89 8d 10 91 ff ff 	mov    QWORD PTR [rbp-0x6ef0],r9
    2b88:	4d 89 fe             	mov    r14,r15
    2b8b:	49 29 de             	sub    r14,rbx
    2b8e:	45 0f b6 d2          	movzx  r10d,r10b
    2b92:	45 89 d3             	mov    r11d,r10d
    2b95:	4d 89 da             	mov    r10,r11
    2b98:	4d 0f af d6          	imul   r10,r14
    2b9c:	49 01 da             	add    r10,rbx
    2b9f:	4c 29 fb             	sub    rbx,r15
    2ba2:	4c 0f af db          	imul   r11,rbx
    2ba6:	4d 01 fb             	add    r11,r15
    2ba9:	42 c6 04 10 00       	mov    BYTE PTR [rax+r10*1],0x0
    2bae:	49 89 c2             	mov    r10,rax
    2bb1:	4d 01 da             	add    r10,r11
    2bb4:	41 0f ae 3a          	clflush BYTE PTR [r10]
    2bb8:	44 8b 95 d8 e6 ff ff 	mov    r10d,DWORD PTR [rbp-0x1928]
    2bbf:	49 83 c2 01          	add    r10,0x1
    2bc3:	4d 69 d2 40 02 00 00 	imul   r10,r10,0x240
    2bca:	4c 89 d3             	mov    rbx,r10
    2bcd:	48 81 eb 00 01 00 00 	sub    rbx,0x100
    2bd4:	49 89 c3             	mov    r11,rax
    2bd7:	4d 01 d3             	add    r11,r10
    2bda:	4c 89 9d 58 98 ff ff 	mov    QWORD PTR [rbp-0x67a8],r11
    2be1:	49 89 c2             	mov    r10,rax
    2be4:	49 01 da             	add    r10,rbx
    2be7:	41 0f ae 3b          	clflush BYTE PTR [r11]
    2beb:	44 8b 9d dc e6 ff ff 	mov    r11d,DWORD PTR [rbp-0x1924]
    2bf2:	49 83 c3 01          	add    r11,0x1
    2bf6:	4d 69 f3 40 02 00 00 	imul   r14,r11,0x240
    2bfd:	4c 89 f3             	mov    rbx,r14
    2c00:	48 81 eb 00 01 00 00 	sub    rbx,0x100
    2c07:	49 89 c3             	mov    r11,rax
    2c0a:	4d 01 f3             	add    r11,r14
    2c0d:	4c 89 9d 60 98 ff ff 	mov    QWORD PTR [rbp-0x67a0],r11
    2c14:	48 01 d8             	add    rax,rbx
    2c17:	41 0f ae 3b          	clflush BYTE PTR [r11]
    2c1b:	0f ae f0             	mfence
    2c1e:	48 83 ec 10          	sub    rsp,0x10
    2c22:	4c 89 14 24          	mov    QWORD PTR [rsp],r10
    2c26:	48 89 44 24 08       	mov    QWORD PTR [rsp+0x8],rax
    2c2b:	e8 a0 6c 02 00       	call   298d0 <__DualGate__3_1_105>
    2c30:	4c 8b 85 88 de ff ff 	mov    r8,QWORD PTR [rbp-0x2178]
    2c37:	48 8b 85 b0 da ff ff 	mov    rax,QWORD PTR [rbp-0x2550]
    2c3e:	48 83 c4 10          	add    rsp,0x10
    2c42:	0f ae f0             	mfence
    2c45:	41 8a 48 04          	mov    cl,BYTE PTR [r8+0x4]
    2c49:	c0 e9 05             	shr    cl,0x5
    2c4c:	80 e1 01             	and    cl,0x1
    2c4f:	88 8d 2a de ff ff    	mov    BYTE PTR [rbp-0x21d6],cl
    2c55:	8b 95 e8 df ff ff    	mov    edx,DWORD PTR [rbp-0x2018]
    2c5b:	48 83 c2 01          	add    rdx,0x1
    2c5f:	4c 69 d2 40 02 00 00 	imul   r10,rdx,0x240
    2c66:	48 89 c7             	mov    rdi,rax
    2c69:	4c 01 d7             	add    rdi,r10
    2c6c:	8b 95 ec df ff ff    	mov    edx,DWORD PTR [rbp-0x2014]
    2c72:	48 83 c2 01          	add    rdx,0x1
    2c76:	4c 69 ca 40 02 00 00 	imul   r9,rdx,0x240
    2c7d:	48 89 c6             	mov    rsi,rax
    2c80:	4c 01 ce             	add    rsi,r9
    2c83:	4d 89 cb             	mov    r11,r9
    2c86:	4d 29 d3             	sub    r11,r10
    2c89:	0f b6 c9             	movzx  ecx,cl
    2c8c:	89 ca                	mov    edx,ecx
    2c8e:	48 89 d1             	mov    rcx,rdx
    2c91:	49 0f af cb          	imul   rcx,r11
    2c95:	4c 01 d1             	add    rcx,r10
    2c98:	4d 29 ca             	sub    r10,r9
    2c9b:	49 0f af d2          	imul   rdx,r10
    2c9f:	4c 01 ca             	add    rdx,r9
    2ca2:	c6 04 08 00          	mov    BYTE PTR [rax+rcx*1],0x0
    2ca6:	48 89 c1             	mov    rcx,rax
    2ca9:	48 01 d1             	add    rcx,rdx
    2cac:	0f ae 39             	clflush BYTE PTR [rcx]
    2caf:	45 8a 48 08          	mov    r9b,BYTE PTR [r8+0x8]
    2cb3:	41 c0 e9 05          	shr    r9b,0x5
    2cb7:	41 80 e1 01          	and    r9b,0x1
    2cbb:	44 88 8d 4c de ff ff 	mov    BYTE PTR [rbp-0x21b4],r9b
    2cc2:	8b 8d e8 e0 ff ff    	mov    ecx,DWORD PTR [rbp-0x1f18]
    2cc8:	48 83 c1 01          	add    rcx,0x1
    2ccc:	48 69 d9 40 02 00 00 	imul   rbx,rcx,0x240
    2cd3:	48 89 c2             	mov    rdx,rax
    2cd6:	48 01 da             	add    rdx,rbx
    2cd9:	8b 8d ec e0 ff ff    	mov    ecx,DWORD PTR [rbp-0x1f14]
    2cdf:	48 83 c1 01          	add    rcx,0x1
    2ce3:	4c 69 d9 40 02 00 00 	imul   r11,rcx,0x240
    2cea:	48 89 c1             	mov    rcx,rax
    2ced:	4c 01 d9             	add    rcx,r11
    2cf0:	4d 89 de             	mov    r14,r11
    2cf3:	49 29 de             	sub    r14,rbx
    2cf6:	45 0f b6 c9          	movzx  r9d,r9b
    2cfa:	45 89 ca             	mov    r10d,r9d
    2cfd:	4d 89 d1             	mov    r9,r10
    2d00:	4d 0f af ce          	imul   r9,r14
    2d04:	49 01 d9             	add    r9,rbx
    2d07:	4c 29 db             	sub    rbx,r11
    2d0a:	4c 0f af d3          	imul   r10,rbx
    2d0e:	4d 01 da             	add    r10,r11
    2d11:	42 c6 04 08 00       	mov    BYTE PTR [rax+r9*1],0x0
    2d16:	49 89 c1             	mov    r9,rax
    2d19:	4d 01 d1             	add    r9,r10
    2d1c:	41 0f ae 39          	clflush BYTE PTR [r9]
    2d20:	45 8a 50 0c          	mov    r10b,BYTE PTR [r8+0xc]
    2d24:	41 c0 ea 05          	shr    r10b,0x5
    2d28:	41 80 e2 01          	and    r10b,0x1
    2d2c:	44 88 95 6c de ff ff 	mov    BYTE PTR [rbp-0x2194],r10b
    2d33:	44 8b 85 e8 e1 ff ff 	mov    r8d,DWORD PTR [rbp-0x1e18]
    2d3a:	49 83 c0 01          	add    r8,0x1
    2d3e:	4d 69 f0 40 02 00 00 	imul   r14,r8,0x240
    2d45:	49 89 c0             	mov    r8,rax
    2d48:	4d 01 f0             	add    r8,r14
    2d4b:	44 8b 8d ec e1 ff ff 	mov    r9d,DWORD PTR [rbp-0x1e14]
    2d52:	49 83 c1 01          	add    r9,0x1
    2d56:	49 69 d9 40 02 00 00 	imul   rbx,r9,0x240
    2d5d:	49 89 c1             	mov    r9,rax
    2d60:	49 01 d9             	add    r9,rbx
    2d63:	49 89 dc             	mov    r12,rbx
    2d66:	4d 29 f4             	sub    r12,r14
    2d69:	45 0f b6 d2          	movzx  r10d,r10b
    2d6d:	45 89 d3             	mov    r11d,r10d
    2d70:	4d 89 da             	mov    r10,r11
    2d73:	4d 0f af d4          	imul   r10,r12
    2d77:	4d 01 f2             	add    r10,r14
    2d7a:	49 29 de             	sub    r14,rbx
    2d7d:	4d 0f af de          	imul   r11,r14
    2d81:	49 01 db             	add    r11,rbx
    2d84:	42 c6 04 10 00       	mov    BYTE PTR [rax+r10*1],0x0
    2d89:	49 89 c2             	mov    r10,rax
    2d8c:	4d 01 da             	add    r10,r11
    2d8f:	41 0f ae 3a          	clflush BYTE PTR [r10]
    2d93:	44 8b 95 d0 e6 ff ff 	mov    r10d,DWORD PTR [rbp-0x1930]
    2d9a:	49 83 c2 01          	add    r10,0x1
    2d9e:	4d 69 d2 40 02 00 00 	imul   r10,r10,0x240
    2da5:	4c 89 d3             	mov    rbx,r10
    2da8:	48 81 eb 00 01 00 00 	sub    rbx,0x100
    2daf:	49 89 c3             	mov    r11,rax
    2db2:	4d 01 d3             	add    r11,r10
    2db5:	4c 89 9d 48 98 ff ff 	mov    QWORD PTR [rbp-0x67b8],r11
    2dbc:	49 89 c2             	mov    r10,rax
    2dbf:	49 01 da             	add    r10,rbx
    2dc2:	41 0f ae 3b          	clflush BYTE PTR [r11]
    2dc6:	44 8b 9d d4 e6 ff ff 	mov    r11d,DWORD PTR [rbp-0x192c]
    2dcd:	49 83 c3 01          	add    r11,0x1
    2dd1:	4d 69 f3 40 02 00 00 	imul   r14,r11,0x240
    2dd8:	4c 89 f3             	mov    rbx,r14
    2ddb:	48 81 eb 00 01 00 00 	sub    rbx,0x100
    2de2:	49 89 c3             	mov    r11,rax
    2de5:	4d 01 f3             	add    r11,r14
    2de8:	4c 89 9d 50 98 ff ff 	mov    QWORD PTR [rbp-0x67b0],r11
    2def:	48 01 d8             	add    rax,rbx
    2df2:	41 0f ae 3b          	clflush BYTE PTR [r11]
    2df6:	0f ae f0             	mfence
    2df9:	48 83 ec 10          	sub    rsp,0x10
    2dfd:	4c 89 14 24          	mov    QWORD PTR [rsp],r10
    2e01:	48 89 44 24 08       	mov    QWORD PTR [rsp+0x8],rax
    2e06:	e8 55 68 02 00       	call   29660 <__DualGate__3_1_53>
    2e0b:	8b 85 94 de ff ff    	mov    eax,DWORD PTR [rbp-0x216c]
    2e11:	48 8b 8d 88 de ff ff 	mov    rcx,QWORD PTR [rbp-0x2178]
    2e18:	4c 8b 9d b0 da ff ff 	mov    r11,QWORD PTR [rbp-0x2550]
    2e1f:	48 83 c4 10          	add    rsp,0x10
    2e23:	0f ae f0             	mfence
    2e26:	8a 51 10             	mov    dl,BYTE PTR [rcx+0x10]
    2e29:	c0 ea 06             	shr    dl,0x6
    2e2c:	80 e2 01             	and    dl,0x1
    2e2f:	88 95 5f 91 ff ff    	mov    BYTE PTR [rbp-0x6ea1],dl
    2e35:	8b b5 f0 e2 ff ff    	mov    esi,DWORD PTR [rbp-0x1d10]
    2e3b:	48 83 c6 01          	add    rsi,0x1
    2e3f:	4c 69 d6 40 02 00 00 	imul   r10,rsi,0x240
    2e46:	4c 89 95 60 91 ff ff 	mov    QWORD PTR [rbp-0x6ea0],r10
    2e4d:	4c 89 df             	mov    rdi,r11
    2e50:	4c 01 d7             	add    rdi,r10
    2e53:	48 89 bd 70 91 ff ff 	mov    QWORD PTR [rbp-0x6e90],rdi
    2e5a:	8b b5 f4 e2 ff ff    	mov    esi,DWORD PTR [rbp-0x1d0c]
    2e60:	48 83 c6 01          	add    rsi,0x1
    2e64:	4c 69 ce 40 02 00 00 	imul   r9,rsi,0x240
    2e6b:	4c 89 8d a0 91 ff ff 	mov    QWORD PTR [rbp-0x6e60],r9
    2e72:	4c 89 de             	mov    rsi,r11
    2e75:	4c 01 ce             	add    rsi,r9
    2e78:	48 89 b5 78 91 ff ff 	mov    QWORD PTR [rbp-0x6e88],rsi
    2e7f:	4c 89 cb             	mov    rbx,r9
    2e82:	4c 29 d3             	sub    rbx,r10
    2e85:	0f b6 d2             	movzx  edx,dl
    2e88:	41 89 d0             	mov    r8d,edx
    2e8b:	4c 89 c2             	mov    rdx,r8
    2e8e:	48 0f af d3          	imul   rdx,rbx
    2e92:	4c 01 d2             	add    rdx,r10
    2e95:	4d 29 ca             	sub    r10,r9
    2e98:	4d 0f af c2          	imul   r8,r10
    2e9c:	4d 01 c8             	add    r8,r9
    2e9f:	41 c6 04 13 00       	mov    BYTE PTR [r11+rdx*1],0x0
    2ea4:	4c 89 da             	mov    rdx,r11
    2ea7:	4c 01 c2             	add    rdx,r8
    2eaa:	0f ae 3a             	clflush BYTE PTR [rdx]
    2ead:	8a 09                	mov    cl,BYTE PTR [rcx]
    2eaf:	d0 e9                	shr    cl,1
    2eb1:	80 e1 01             	and    cl,0x1
    2eb4:	88 8d 08 de ff ff    	mov    BYTE PTR [rbp-0x21f8],cl
    2eba:	8b 95 c8 de ff ff    	mov    edx,DWORD PTR [rbp-0x2138]
    2ec0:	48 83 c2 01          	add    rdx,0x1
    2ec4:	4c 69 ea 40 02 00 00 	imul   r13,rdx,0x240
    2ecb:	4c 89 da             	mov    rdx,r11
    2ece:	4c 01 ea             	add    rdx,r13
    2ed1:	48 89 95 80 91 ff ff 	mov    QWORD PTR [rbp-0x6e80],rdx
    2ed8:	44 8b 85 cc de ff ff 	mov    r8d,DWORD PTR [rbp-0x2134]
    2edf:	49 83 c0 01          	add    r8,0x1
    2ee3:	4d 69 e0 40 02 00 00 	imul   r12,r8,0x240
    2eea:	4d 89 d8             	mov    r8,r11
    2eed:	4d 01 e0             	add    r8,r12
    2ef0:	4c 89 85 98 91 ff ff 	mov    QWORD PTR [rbp-0x6e68],r8
    2ef7:	4d 89 e1             	mov    r9,r12
    2efa:	4d 29 e9             	sub    r9,r13
    2efd:	0f b6 c9             	movzx  ecx,cl
    2f00:	41 89 c8             	mov    r8d,ecx
    2f03:	4c 89 c1             	mov    rcx,r8
    2f06:	49 0f af c9          	imul   rcx,r9
    2f0a:	4c 01 e9             	add    rcx,r13
    2f0d:	4d 89 e9             	mov    r9,r13
    2f10:	4d 29 e1             	sub    r9,r12
    2f13:	4d 0f af c1          	imul   r8,r9
    2f17:	4d 01 e0             	add    r8,r12
    2f1a:	41 c6 04 0b 00       	mov    BYTE PTR [r11+rcx*1],0x0
    2f1f:	4c 89 d9             	mov    rcx,r11
    2f22:	4c 01 c1             	add    rcx,r8
    2f25:	0f ae 39             	clflush BYTE PTR [rcx]
    2f28:	c1 e8 06             	shr    eax,0x6
    2f2b:	24 01                	and    al,0x1
    2f2d:	88 85 6f 91 ff ff    	mov    BYTE PTR [rbp-0x6e91],al
    2f33:	8b 8d f0 e3 ff ff    	mov    ecx,DWORD PTR [rbp-0x1c10]
    2f39:	48 83 c1 01          	add    rcx,0x1
    2f3d:	4c 69 f1 40 02 00 00 	imul   r14,rcx,0x240
    2f44:	4d 89 d8             	mov    r8,r11
    2f47:	4d 01 f0             	add    r8,r14
    2f4a:	4c 89 85 88 91 ff ff 	mov    QWORD PTR [rbp-0x6e78],r8
    2f51:	8b 8d f4 e3 ff ff    	mov    ecx,DWORD PTR [rbp-0x1c0c]
    2f57:	48 83 c1 01          	add    rcx,0x1
    2f5b:	48 69 d9 40 02 00 00 	imul   rbx,rcx,0x240
    2f62:	4d 89 d9             	mov    r9,r11
    2f65:	49 01 d9             	add    r9,rbx
    2f68:	4c 89 8d 90 91 ff ff 	mov    QWORD PTR [rbp-0x6e70],r9
    2f6f:	49 89 da             	mov    r10,rbx
    2f72:	4d 29 f2             	sub    r10,r14
    2f75:	0f b6 c0             	movzx  eax,al
    2f78:	89 c1                	mov    ecx,eax
    2f7a:	48 89 c8             	mov    rax,rcx
    2f7d:	49 0f af c2          	imul   rax,r10
    2f81:	4c 01 f0             	add    rax,r14
    2f84:	4d 89 f2             	mov    r10,r14
    2f87:	49 29 da             	sub    r10,rbx
    2f8a:	49 0f af ca          	imul   rcx,r10
    2f8e:	48 01 d9             	add    rcx,rbx
    2f91:	41 c6 04 03 00       	mov    BYTE PTR [r11+rax*1],0x0
    2f96:	4c 89 d8             	mov    rax,r11
    2f99:	48 01 c8             	add    rax,rcx
    2f9c:	0f ae 38             	clflush BYTE PTR [rax]
    2f9f:	8b 85 28 e7 ff ff    	mov    eax,DWORD PTR [rbp-0x18d8]
    2fa5:	48 83 c0 01          	add    rax,0x1
    2fa9:	4c 69 d0 40 02 00 00 	imul   r10,rax,0x240
    2fb0:	4c 89 d1             	mov    rcx,r10
    2fb3:	48 81 e9 00 01 00 00 	sub    rcx,0x100
    2fba:	4c 89 d8             	mov    rax,r11
    2fbd:	4c 01 d0             	add    rax,r10
    2fc0:	48 89 85 88 98 ff ff 	mov    QWORD PTR [rbp-0x6778],rax
    2fc7:	4d 89 da             	mov    r10,r11
    2fca:	49 01 ca             	add    r10,rcx
    2fcd:	0f ae 38             	clflush BYTE PTR [rax]
    2fd0:	8b 85 2c e7 ff ff    	mov    eax,DWORD PTR [rbp-0x18d4]
    2fd6:	48 83 c0 01          	add    rax,0x1
    2fda:	48 69 c0 40 02 00 00 	imul   rax,rax,0x240
    2fe1:	48 89 c1             	mov    rcx,rax
    2fe4:	48 81 e9 00 01 00 00 	sub    rcx,0x100
    2feb:	49 01 c3             	add    r11,rax
    2fee:	48 8b 85 b0 da ff ff 	mov    rax,QWORD PTR [rbp-0x2550]
    2ff5:	4c 89 9d 90 98 ff ff 	mov    QWORD PTR [rbp-0x6770],r11
    2ffc:	48 01 c8             	add    rax,rcx
    2fff:	48 8b 8d 98 91 ff ff 	mov    rcx,QWORD PTR [rbp-0x6e68]
    3006:	41 0f ae 3b          	clflush BYTE PTR [r11]
    300a:	0f ae f0             	mfence
    300d:	48 83 ec 10          	sub    rsp,0x10
    3011:	4c 89 14 24          	mov    QWORD PTR [rsp],r10
    3015:	48 89 44 24 08       	mov    QWORD PTR [rsp+0x8],rax
    301a:	e8 b1 68 02 00       	call   298d0 <__DualGate__3_1_105>
    301f:	44 8a 95 df 90 ff ff 	mov    r10b,BYTE PTR [rbp-0x6f21]
    3026:	48 8b 85 e0 90 ff ff 	mov    rax,QWORD PTR [rbp-0x6f20]
    302d:	48 8b 8d 20 91 ff ff 	mov    rcx,QWORD PTR [rbp-0x6ee0]
    3034:	4c 8b 9d e8 90 ff ff 	mov    r11,QWORD PTR [rbp-0x6f18]
    303b:	48 8b bd f0 90 ff ff 	mov    rdi,QWORD PTR [rbp-0x6f10]
    3042:	48 8b b5 f8 90 ff ff 	mov    rsi,QWORD PTR [rbp-0x6f08]
    3049:	48 8b 95 00 91 ff ff 	mov    rdx,QWORD PTR [rbp-0x6f00]
    3050:	4c 8b 85 08 91 ff ff 	mov    r8,QWORD PTR [rbp-0x6ef8]
    3057:	4c 8b 8d 10 91 ff ff 	mov    r9,QWORD PTR [rbp-0x6ef0]
    305e:	48 83 c4 10          	add    rsp,0x10
    3062:	0f ae f0             	mfence
    3065:	48 29 c1             	sub    rcx,rax
    3068:	45 0f b6 d2          	movzx  r10d,r10b
    306c:	4c 89 95 18 91 ff ff 	mov    QWORD PTR [rbp-0x6ee8],r10
    3073:	4c 0f af d1          	imul   r10,rcx
    3077:	48 8b 8d 20 91 ff ff 	mov    rcx,QWORD PTR [rbp-0x6ee0]
    307e:	49 01 c2             	add    r10,rax
    3081:	48 29 c8             	sub    rax,rcx
    3084:	48 8b 8d 18 91 ff ff 	mov    rcx,QWORD PTR [rbp-0x6ee8]
    308b:	48 0f af c8          	imul   rcx,rax
    308f:	48 8b 85 20 91 ff ff 	mov    rax,QWORD PTR [rbp-0x6ee0]
    3096:	48 01 c1             	add    rcx,rax
    3099:	48 8b 85 b0 da ff ff 	mov    rax,QWORD PTR [rbp-0x2550]
    30a0:	42 c6 04 10 00       	mov    BYTE PTR [rax+r10*1],0x0
    30a5:	4c 8b 95 30 91 ff ff 	mov    r10,QWORD PTR [rbp-0x6ed0]
    30ac:	48 01 c8             	add    rax,rcx
    30af:	48 8b 8d 28 91 ff ff 	mov    rcx,QWORD PTR [rbp-0x6ed8]
    30b6:	0f ae 38             	clflush BYTE PTR [rax]
    30b9:	8a 85 07 de ff ff    	mov    al,BYTE PTR [rbp-0x21f9]
    30bf:	4c 29 d1             	sub    rcx,r10
    30c2:	0f b6 c0             	movzx  eax,al
    30c5:	41 89 c2             	mov    r10d,eax
    30c8:	4c 89 d0             	mov    rax,r10
    30cb:	48 0f af c1          	imul   rax,rcx
    30cf:	48 8b 8d 30 91 ff ff 	mov    rcx,QWORD PTR [rbp-0x6ed0]
    30d6:	48 01 c8             	add    rax,rcx
    30d9:	48 8b 8d 28 91 ff ff 	mov    rcx,QWORD PTR [rbp-0x6ed8]
    30e0:	48 89 85 38 91 ff ff 	mov    QWORD PTR [rbp-0x6ec8],rax
    30e7:	48 8b 85 30 91 ff ff 	mov    rax,QWORD PTR [rbp-0x6ed0]
    30ee:	48 29 c8             	sub    rax,rcx
    30f1:	4c 0f af d0          	imul   r10,rax
    30f5:	48 8b 85 38 91 ff ff 	mov    rax,QWORD PTR [rbp-0x6ec8]
    30fc:	49 01 ca             	add    r10,rcx
    30ff:	48 8b 8d b0 da ff ff 	mov    rcx,QWORD PTR [rbp-0x2550]
    3106:	c6 04 01 00          	mov    BYTE PTR [rcx+rax*1],0x0
    310a:	8a 85 47 91 ff ff    	mov    al,BYTE PTR [rbp-0x6eb9]
    3110:	4c 01 d1             	add    rcx,r10
    3113:	0f ae 39             	clflush BYTE PTR [rcx]
    3116:	4c 89 f9             	mov    rcx,r15
    3119:	4c 29 d9             	sub    rcx,r11
    311c:	0f b6 c0             	movzx  eax,al
    311f:	41 89 c2             	mov    r10d,eax
    3122:	4c 89 d0             	mov    rax,r10
    3125:	48 0f af c1          	imul   rax,rcx
    3129:	48 8b 8d 48 91 ff ff 	mov    rcx,QWORD PTR [rbp-0x6eb8]
    3130:	4c 01 d8             	add    rax,r11
    3133:	4d 29 fb             	sub    r11,r15
    3136:	4d 0f af d3          	imul   r10,r11
    313a:	4c 8b 9d b0 da ff ff 	mov    r11,QWORD PTR [rbp-0x2550]
    3141:	4d 01 fa             	add    r10,r15
    3144:	41 c6 04 03 00       	mov    BYTE PTR [r11+rax*1],0x0
    3149:	4c 89 d8             	mov    rax,r11
    314c:	4c 01 d0             	add    rax,r10
    314f:	0f ae 38             	clflush BYTE PTR [rax]
    3152:	8b 85 20 e7 ff ff    	mov    eax,DWORD PTR [rbp-0x18e0]
    3158:	48 83 c0 01          	add    rax,0x1
    315c:	4c 69 d0 40 02 00 00 	imul   r10,rax,0x240
    3163:	4d 89 d7             	mov    r15,r10
    3166:	49 81 ef 00 01 00 00 	sub    r15,0x100
    316d:	4c 89 d8             	mov    rax,r11
    3170:	4c 01 d0             	add    rax,r10
    3173:	48 89 85 78 98 ff ff 	mov    QWORD PTR [rbp-0x6788],rax
    317a:	4d 89 da             	mov    r10,r11
    317d:	4d 01 fa             	add    r10,r15
    3180:	0f ae 38             	clflush BYTE PTR [rax]
    3183:	8b 85 24 e7 ff ff    	mov    eax,DWORD PTR [rbp-0x18dc]
    3189:	48 83 c0 01          	add    rax,0x1
    318d:	48 69 c0 40 02 00 00 	imul   rax,rax,0x240
    3194:	49 89 c7             	mov    r15,rax
    3197:	49 81 ef 00 01 00 00 	sub    r15,0x100
    319e:	49 01 c3             	add    r11,rax
    31a1:	48 8b 85 b0 da ff ff 	mov    rax,QWORD PTR [rbp-0x2550]
    31a8:	4c 89 9d 80 98 ff ff 	mov    QWORD PTR [rbp-0x6780],r11
    31af:	4c 01 f8             	add    rax,r15
    31b2:	41 0f ae 3b          	clflush BYTE PTR [r11]
    31b6:	0f ae f0             	mfence
    31b9:	48 83 ec 10          	sub    rsp,0x10
    31bd:	4c 89 14 24          	mov    QWORD PTR [rsp],r10
    31c1:	48 89 44 24 08       	mov    QWORD PTR [rsp+0x8],rax
    31c6:	e8 c5 69 02 00       	call   29b90 <__DualGate__3_1_23>
    31cb:	48 8b 85 88 de ff ff 	mov    rax,QWORD PTR [rbp-0x2178]
    31d2:	4c 8b 8d b0 da ff ff 	mov    r9,QWORD PTR [rbp-0x2550]
    31d9:	48 83 c4 10          	add    rsp,0x10
    31dd:	0f ae f0             	mfence
    31e0:	8a 48 04             	mov    cl,BYTE PTR [rax+0x4]
    31e3:	c0 e9 06             	shr    cl,0x6
    31e6:	80 e1 01             	and    cl,0x1
    31e9:	88 8d 2b de ff ff    	mov    BYTE PTR [rbp-0x21d5],cl
    31ef:	8b 95 f0 df ff ff    	mov    edx,DWORD PTR [rbp-0x2010]
    31f5:	48 83 c2 01          	add    rdx,0x1
    31f9:	4c 69 d2 40 02 00 00 	imul   r10,rdx,0x240
    3200:	4c 89 cf             	mov    rdi,r9
    3203:	4c 01 d7             	add    rdi,r10
    3206:	8b 95 f4 df ff ff    	mov    edx,DWORD PTR [rbp-0x200c]
    320c:	48 83 c2 01          	add    rdx,0x1
    3210:	4c 69 c2 40 02 00 00 	imul   r8,rdx,0x240
    3217:	4c 89 ce             	mov    rsi,r9
    321a:	4c 01 c6             	add    rsi,r8
    321d:	4d 89 c3             	mov    r11,r8
    3220:	4d 29 d3             	sub    r11,r10
    3223:	0f b6 c9             	movzx  ecx,cl
    3226:	89 ca                	mov    edx,ecx
    3228:	48 89 d1             	mov    rcx,rdx
    322b:	49 0f af cb          	imul   rcx,r11
    322f:	4c 01 d1             	add    rcx,r10
    3232:	4d 29 c2             	sub    r10,r8
    3235:	49 0f af d2          	imul   rdx,r10
    3239:	4c 01 c2             	add    rdx,r8
    323c:	41 c6 04 09 00       	mov    BYTE PTR [r9+rcx*1],0x0
    3241:	4c 89 c9             	mov    rcx,r9
    3244:	48 01 d1             	add    rcx,rdx
    3247:	0f ae 39             	clflush BYTE PTR [rcx]
    324a:	8a 48 08             	mov    cl,BYTE PTR [rax+0x8]
    324d:	c0 e9 06             	shr    cl,0x6
    3250:	80 e1 01             	and    cl,0x1
    3253:	88 8d 4d de ff ff    	mov    BYTE PTR [rbp-0x21b3],cl
    3259:	8b 95 f0 e0 ff ff    	mov    edx,DWORD PTR [rbp-0x1f10]
    325f:	48 83 c2 01          	add    rdx,0x1
    3263:	4c 69 da 40 02 00 00 	imul   r11,rdx,0x240
    326a:	4c 89 ca             	mov    rdx,r9
    326d:	4c 01 da             	add    rdx,r11
    3270:	44 8b 85 f4 e0 ff ff 	mov    r8d,DWORD PTR [rbp-0x1f0c]
    3277:	49 83 c0 01          	add    r8,0x1
    327b:	4d 69 d0 40 02 00 00 	imul   r10,r8,0x240
    3282:	4d 89 c8             	mov    r8,r9
    3285:	4d 01 d0             	add    r8,r10
    3288:	4c 89 85 50 91 ff ff 	mov    QWORD PTR [rbp-0x6eb0],r8
    328f:	4d 89 d7             	mov    r15,r10
    3292:	4d 29 df             	sub    r15,r11
    3295:	0f b6 c9             	movzx  ecx,cl
    3298:	41 89 c8             	mov    r8d,ecx
    329b:	4c 89 c1             	mov    rcx,r8
    329e:	49 0f af cf          	imul   rcx,r15
    32a2:	4c 01 d9             	add    rcx,r11
    32a5:	4d 29 d3             	sub    r11,r10
    32a8:	4d 0f af c3          	imul   r8,r11
    32ac:	4d 01 d0             	add    r8,r10
    32af:	41 c6 04 09 00       	mov    BYTE PTR [r9+rcx*1],0x0
    32b4:	4c 89 c9             	mov    rcx,r9
    32b7:	4c 01 c1             	add    rcx,r8
    32ba:	0f ae 39             	clflush BYTE PTR [rcx]
    32bd:	8a 40 0c             	mov    al,BYTE PTR [rax+0xc]
    32c0:	c0 e8 06             	shr    al,0x6
    32c3:	24 01                	and    al,0x1
    32c5:	88 85 6d de ff ff    	mov    BYTE PTR [rbp-0x2193],al
    32cb:	8b 8d f0 e1 ff ff    	mov    ecx,DWORD PTR [rbp-0x1e10]
    32d1:	48 83 c1 01          	add    rcx,0x1
    32d5:	4c 69 d9 40 02 00 00 	imul   r11,rcx,0x240
    32dc:	4d 89 c8             	mov    r8,r9
    32df:	4d 01 d8             	add    r8,r11
    32e2:	8b 8d f4 e1 ff ff    	mov    ecx,DWORD PTR [rbp-0x1e0c]
    32e8:	48 83 c1 01          	add    rcx,0x1
    32ec:	4c 69 f9 40 02 00 00 	imul   r15,rcx,0x240
    32f3:	4d 01 f9             	add    r9,r15
    32f6:	4c 89 f9             	mov    rcx,r15
    32f9:	4c 29 d9             	sub    rcx,r11
    32fc:	0f b6 c0             	movzx  eax,al
    32ff:	41 89 c2             	mov    r10d,eax
    3302:	4c 89 d0             	mov    rax,r10
    3305:	48 0f af c1          	imul   rax,rcx
    3309:	48 8b 8d 50 91 ff ff 	mov    rcx,QWORD PTR [rbp-0x6eb0]
    3310:	4c 01 d8             	add    rax,r11
    3313:	4d 29 fb             	sub    r11,r15
    3316:	4d 0f af d3          	imul   r10,r11
    331a:	4c 8b 9d b0 da ff ff 	mov    r11,QWORD PTR [rbp-0x2550]
    3321:	4d 01 fa             	add    r10,r15
    3324:	41 c6 04 03 00       	mov    BYTE PTR [r11+rax*1],0x0
    3329:	4c 89 d8             	mov    rax,r11
    332c:	4c 01 d0             	add    rax,r10
    332f:	0f ae 38             	clflush BYTE PTR [rax]
    3332:	8b 85 18 e7 ff ff    	mov    eax,DWORD PTR [rbp-0x18e8]
    3338:	48 83 c0 01          	add    rax,0x1
    333c:	4c 69 d0 40 02 00 00 	imul   r10,rax,0x240
    3343:	4d 89 d7             	mov    r15,r10
    3346:	49 81 ef 00 01 00 00 	sub    r15,0x100
    334d:	4c 89 d8             	mov    rax,r11
    3350:	4c 01 d0             	add    rax,r10
    3353:	48 89 85 68 98 ff ff 	mov    QWORD PTR [rbp-0x6798],rax
    335a:	4d 89 da             	mov    r10,r11
    335d:	4d 01 fa             	add    r10,r15
    3360:	0f ae 38             	clflush BYTE PTR [rax]
    3363:	8b 85 1c e7 ff ff    	mov    eax,DWORD PTR [rbp-0x18e4]
    3369:	48 83 c0 01          	add    rax,0x1
    336d:	48 69 c0 40 02 00 00 	imul   rax,rax,0x240
    3374:	49 89 c7             	mov    r15,rax
    3377:	49 81 ef 00 01 00 00 	sub    r15,0x100
    337e:	49 01 c3             	add    r11,rax
    3381:	48 8b 85 b0 da ff ff 	mov    rax,QWORD PTR [rbp-0x2550]
    3388:	4c 89 9d 70 98 ff ff 	mov    QWORD PTR [rbp-0x6790],r11
    338f:	4c 01 f8             	add    rax,r15
    3392:	41 0f ae 3b          	clflush BYTE PTR [r11]
    3396:	0f ae f0             	mfence
    3399:	48 83 ec 10          	sub    rsp,0x10
    339d:	4c 89 14 24          	mov    QWORD PTR [rsp],r10
    33a1:	48 89 44 24 08       	mov    QWORD PTR [rsp+0x8],rax
    33a6:	e8 b5 62 02 00       	call   29660 <__DualGate__3_1_53>
    33ab:	44 8a 9d 5f 91 ff ff 	mov    r11b,BYTE PTR [rbp-0x6ea1]
    33b2:	48 8b 85 60 91 ff ff 	mov    rax,QWORD PTR [rbp-0x6ea0]
    33b9:	48 8b 8d a0 91 ff ff 	mov    rcx,QWORD PTR [rbp-0x6e60]
    33c0:	44 8a 95 6f 91 ff ff 	mov    r10b,BYTE PTR [rbp-0x6e91]
    33c7:	48 8b bd 70 91 ff ff 	mov    rdi,QWORD PTR [rbp-0x6e90]
    33ce:	48 8b b5 78 91 ff ff 	mov    rsi,QWORD PTR [rbp-0x6e88]
    33d5:	48 8b 95 80 91 ff ff 	mov    rdx,QWORD PTR [rbp-0x6e80]
    33dc:	4c 8b 85 88 91 ff ff 	mov    r8,QWORD PTR [rbp-0x6e78]
    33e3:	4c 8b 8d 90 91 ff ff 	mov    r9,QWORD PTR [rbp-0x6e70]
    33ea:	48 83 c4 10          	add    rsp,0x10
    33ee:	0f ae f0             	mfence
    33f1:	48 29 c1             	sub    rcx,rax
    33f4:	45 0f b6 db          	movzx  r11d,r11b
    33f8:	45 89 df             	mov    r15d,r11d
    33fb:	4d 89 fb             	mov    r11,r15
    33fe:	4c 0f af d9          	imul   r11,rcx
    3402:	48 8b 8d a0 91 ff ff 	mov    rcx,QWORD PTR [rbp-0x6e60]
    3409:	49 01 c3             	add    r11,rax
    340c:	48 29 c8             	sub    rax,rcx
    340f:	48 8b 8d 98 91 ff ff 	mov    rcx,QWORD PTR [rbp-0x6e68]
    3416:	4c 0f af f8          	imul   r15,rax
    341a:	48 8b 85 a0 91 ff ff 	mov    rax,QWORD PTR [rbp-0x6e60]
    3421:	49 01 c7             	add    r15,rax
    3424:	48 8b 85 b0 da ff ff 	mov    rax,QWORD PTR [rbp-0x2550]
    342b:	42 c6 04 18 00       	mov    BYTE PTR [rax+r11*1],0x0
    3430:	44 8a 9d 08 de ff ff 	mov    r11b,BYTE PTR [rbp-0x21f8]
    3437:	4c 01 f8             	add    rax,r15
    343a:	0f ae 38             	clflush BYTE PTR [rax]
    343d:	4c 89 e0             	mov    rax,r12
    3440:	4c 29 e8             	sub    rax,r13
    3443:	45 0f b6 db          	movzx  r11d,r11b
    3447:	45 89 df             	mov    r15d,r11d
    344a:	4d 89 fb             	mov    r11,r15
    344d:	4c 0f af d8          	imul   r11,rax
    3451:	48 8b 85 b0 da ff ff 	mov    rax,QWORD PTR [rbp-0x2550]
    3458:	4d 01 eb             	add    r11,r13
    345b:	4d 29 e5             	sub    r13,r12
    345e:	4d 0f af fd          	imul   r15,r13
    3462:	4d 01 e7             	add    r15,r12
    3465:	42 c6 04 18 00       	mov    BYTE PTR [rax+r11*1],0x0
    346a:	49 89 c3             	mov    r11,rax
    346d:	4d 01 fb             	add    r11,r15
    3470:	41 0f ae 3b          	clflush BYTE PTR [r11]
    3474:	49 89 df             	mov    r15,rbx
    3477:	4d 29 f7             	sub    r15,r14
    347a:	45 0f b6 d2          	movzx  r10d,r10b
    347e:	45 89 d3             	mov    r11d,r10d
    3481:	4d 89 da             	mov    r10,r11
    3484:	4d 0f af d7          	imul   r10,r15
    3488:	4d 01 f2             	add    r10,r14
    348b:	49 29 de             	sub    r14,rbx
    348e:	4d 0f af de          	imul   r11,r14
    3492:	49 01 db             	add    r11,rbx
    3495:	42 c6 04 10 00       	mov    BYTE PTR [rax+r10*1],0x0
    349a:	49 89 c2             	mov    r10,rax
    349d:	4d 01 da             	add    r10,r11
    34a0:	41 0f ae 3a          	clflush BYTE PTR [r10]
    34a4:	44 8b 95 58 e7 ff ff 	mov    r10d,DWORD PTR [rbp-0x18a8]
    34ab:	49 83 c2 01          	add    r10,0x1
    34af:	4d 69 d2 40 02 00 00 	imul   r10,r10,0x240
    34b6:	4c 89 d3             	mov    rbx,r10
    34b9:	48 81 eb 00 01 00 00 	sub    rbx,0x100
    34c0:	49 89 c3             	mov    r11,rax
    34c3:	4d 01 d3             	add    r11,r10
    34c6:	4c 89 9d a8 98 ff ff 	mov    QWORD PTR [rbp-0x6758],r11
    34cd:	49 89 c2             	mov    r10,rax
    34d0:	49 01 da             	add    r10,rbx
    34d3:	41 0f ae 3b          	clflush BYTE PTR [r11]
    34d7:	44 8b 9d 5c e7 ff ff 	mov    r11d,DWORD PTR [rbp-0x18a4]
    34de:	49 83 c3 01          	add    r11,0x1
    34e2:	4d 69 f3 40 02 00 00 	imul   r14,r11,0x240
    34e9:	4c 89 f3             	mov    rbx,r14
    34ec:	48 81 eb 00 01 00 00 	sub    rbx,0x100
    34f3:	49 89 c3             	mov    r11,rax
    34f6:	4d 01 f3             	add    r11,r14
    34f9:	4c 89 9d b0 98 ff ff 	mov    QWORD PTR [rbp-0x6750],r11
    3500:	48 01 d8             	add    rax,rbx
    3503:	41 0f ae 3b          	clflush BYTE PTR [r11]
    3507:	0f ae f0             	mfence
    350a:	48 83 ec 10          	sub    rsp,0x10
    350e:	4c 89 14 24          	mov    QWORD PTR [rsp],r10
    3512:	48 89 44 24 08       	mov    QWORD PTR [rsp+0x8],rax
    3517:	e8 74 66 02 00       	call   29b90 <__DualGate__3_1_23>
    351c:	4c 8b 85 88 de ff ff 	mov    r8,QWORD PTR [rbp-0x2178]
    3523:	48 8b 85 b0 da ff ff 	mov    rax,QWORD PTR [rbp-0x2550]
    352a:	48 83 c4 10          	add    rsp,0x10
    352e:	0f ae f0             	mfence
    3531:	41 8a 48 04          	mov    cl,BYTE PTR [r8+0x4]
    3535:	c0 e9 07             	shr    cl,0x7
    3538:	80 e1 01             	and    cl,0x1
    353b:	88 8d 2c de ff ff    	mov    BYTE PTR [rbp-0x21d4],cl
    3541:	8b 95 f8 df ff ff    	mov    edx,DWORD PTR [rbp-0x2008]
    3547:	48 83 c2 01          	add    rdx,0x1
    354b:	4c 69 d2 40 02 00 00 	imul   r10,rdx,0x240
    3552:	48 89 c7             	mov    rdi,rax
    3555:	4c 01 d7             	add    rdi,r10
    3558:	8b 95 fc df ff ff    	mov    edx,DWORD PTR [rbp-0x2004]
    355e:	48 83 c2 01          	add    rdx,0x1
    3562:	4c 69 ca 40 02 00 00 	imul   r9,rdx,0x240
    3569:	48 89 c6             	mov    rsi,rax
    356c:	4c 01 ce             	add    rsi,r9
    356f:	4d 89 cb             	mov    r11,r9
    3572:	4d 29 d3             	sub    r11,r10
    3575:	0f b6 c9             	movzx  ecx,cl
    3578:	89 ca                	mov    edx,ecx
    357a:	48 89 d1             	mov    rcx,rdx
    357d:	49 0f af cb          	imul   rcx,r11
    3581:	4c 01 d1             	add    rcx,r10
    3584:	4d 29 ca             	sub    r10,r9
    3587:	49 0f af d2          	imul   rdx,r10
    358b:	4c 01 ca             	add    rdx,r9
    358e:	c6 04 08 00          	mov    BYTE PTR [rax+rcx*1],0x0
    3592:	48 89 c1             	mov    rcx,rax
    3595:	48 01 d1             	add    rcx,rdx
    3598:	0f ae 39             	clflush BYTE PTR [rcx]
    359b:	45 8a 48 08          	mov    r9b,BYTE PTR [r8+0x8]
    359f:	41 c0 e9 07          	shr    r9b,0x7
    35a3:	41 80 e1 01          	and    r9b,0x1
    35a7:	44 88 8d 4e de ff ff 	mov    BYTE PTR [rbp-0x21b2],r9b
    35ae:	8b 8d f8 e0 ff ff    	mov    ecx,DWORD PTR [rbp-0x1f08]
    35b4:	48 83 c1 01          	add    rcx,0x1
    35b8:	48 69 d9 40 02 00 00 	imul   rbx,rcx,0x240
    35bf:	48 89 c2             	mov    rdx,rax
    35c2:	48 01 da             	add    rdx,rbx
    35c5:	8b 8d fc e0 ff ff    	mov    ecx,DWORD PTR [rbp-0x1f04]
    35cb:	48 83 c1 01          	add    rcx,0x1
    35cf:	4c 69 d9 40 02 00 00 	imul   r11,rcx,0x240
    35d6:	48 89 c1             	mov    rcx,rax
    35d9:	4c 01 d9             	add    rcx,r11
    35dc:	4d 89 de             	mov    r14,r11
    35df:	49 29 de             	sub    r14,rbx
    35e2:	45 0f b6 c9          	movzx  r9d,r9b
    35e6:	45 89 ca             	mov    r10d,r9d
    35e9:	4d 89 d1             	mov    r9,r10
    35ec:	4d 0f af ce          	imul   r9,r14
    35f0:	49 01 d9             	add    r9,rbx
    35f3:	4c 29 db             	sub    rbx,r11
    35f6:	4c 0f af d3          	imul   r10,rbx
    35fa:	4d 01 da             	add    r10,r11
    35fd:	42 c6 04 08 00       	mov    BYTE PTR [rax+r9*1],0x0
    3602:	49 89 c1             	mov    r9,rax
    3605:	4d 01 d1             	add    r9,r10
    3608:	41 0f ae 39          	clflush BYTE PTR [r9]
    360c:	45 8a 50 0c          	mov    r10b,BYTE PTR [r8+0xc]
    3610:	41 c0 ea 07          	shr    r10b,0x7
    3614:	41 80 e2 01          	and    r10b,0x1
    3618:	44 88 95 6e de ff ff 	mov    BYTE PTR [rbp-0x2192],r10b
    361f:	44 8b 85 f8 e1 ff ff 	mov    r8d,DWORD PTR [rbp-0x1e08]
    3626:	49 83 c0 01          	add    r8,0x1
    362a:	4d 69 f0 40 02 00 00 	imul   r14,r8,0x240
    3631:	49 89 c0             	mov    r8,rax
    3634:	4d 01 f0             	add    r8,r14
    3637:	44 8b 8d fc e1 ff ff 	mov    r9d,DWORD PTR [rbp-0x1e04]
    363e:	49 83 c1 01          	add    r9,0x1
    3642:	49 69 d9 40 02 00 00 	imul   rbx,r9,0x240
    3649:	49 89 c1             	mov    r9,rax
    364c:	49 01 d9             	add    r9,rbx
    364f:	49 89 df             	mov    r15,rbx
    3652:	4d 29 f7             	sub    r15,r14
    3655:	45 0f b6 d2          	movzx  r10d,r10b
    3659:	45 89 d3             	mov    r11d,r10d
    365c:	4d 89 da             	mov    r10,r11
    365f:	4d 0f af d7          	imul   r10,r15
    3663:	4d 01 f2             	add    r10,r14
    3666:	49 29 de             	sub    r14,rbx
    3669:	4d 0f af de          	imul   r11,r14
    366d:	49 01 db             	add    r11,rbx
    3670:	42 c6 04 10 00       	mov    BYTE PTR [rax+r10*1],0x0
    3675:	49 89 c2             	mov    r10,rax
    3678:	4d 01 da             	add    r10,r11
    367b:	41 0f ae 3a          	clflush BYTE PTR [r10]
    367f:	44 8b 95 40 e7 ff ff 	mov    r10d,DWORD PTR [rbp-0x18c0]
    3686:	49 83 c2 01          	add    r10,0x1
    368a:	4d 69 d2 40 02 00 00 	imul   r10,r10,0x240
    3691:	4c 89 d3             	mov    rbx,r10
    3694:	48 81 eb 00 01 00 00 	sub    rbx,0x100
    369b:	49 89 c3             	mov    r11,rax
    369e:	4d 01 d3             	add    r11,r10
    36a1:	4c 89 9d 98 98 ff ff 	mov    QWORD PTR [rbp-0x6768],r11
    36a8:	49 89 c2             	mov    r10,rax
    36ab:	49 01 da             	add    r10,rbx
    36ae:	41 0f ae 3b          	clflush BYTE PTR [r11]
    36b2:	44 8b 9d 44 e7 ff ff 	mov    r11d,DWORD PTR [rbp-0x18bc]
    36b9:	49 83 c3 01          	add    r11,0x1
    36bd:	4d 69 f3 40 02 00 00 	imul   r14,r11,0x240
    36c4:	4c 89 f3             	mov    rbx,r14
    36c7:	48 81 eb 00 01 00 00 	sub    rbx,0x100
    36ce:	49 89 c3             	mov    r11,rax
    36d1:	4d 01 f3             	add    r11,r14
    36d4:	4c 89 9d a0 98 ff ff 	mov    QWORD PTR [rbp-0x6760],r11
    36db:	48 01 d8             	add    rax,rbx
    36de:	41 0f ae 3b          	clflush BYTE PTR [r11]
    36e2:	0f ae f0             	mfence
    36e5:	48 83 ec 10          	sub    rsp,0x10
    36e9:	4c 89 14 24          	mov    QWORD PTR [rsp],r10
    36ed:	48 89 44 24 08       	mov    QWORD PTR [rsp+0x8],rax
    36f2:	e8 69 5f 02 00       	call   29660 <__DualGate__3_1_53>
    36f7:	48 8b 85 88 de ff ff 	mov    rax,QWORD PTR [rbp-0x2178]
    36fe:	4c 8b 8d b0 da ff ff 	mov    r9,QWORD PTR [rbp-0x2550]
    3705:	48 83 c4 10          	add    rsp,0x10
    3709:	0f ae f0             	mfence
    370c:	8a 48 10             	mov    cl,BYTE PTR [rax+0x10]
    370f:	c0 e9 07             	shr    cl,0x7
    3712:	80 e1 01             	and    cl,0x1
    3715:	88 8d 47 9f ff ff    	mov    BYTE PTR [rbp-0x60b9],cl
    371b:	8b 95 f8 e2 ff ff    	mov    edx,DWORD PTR [rbp-0x1d08]
    3721:	48 83 c2 01          	add    rdx,0x1
    3725:	4c 69 d2 40 02 00 00 	imul   r10,rdx,0x240
    372c:	4c 89 95 48 9f ff ff 	mov    QWORD PTR [rbp-0x60b8],r10
    3733:	4c 89 cf             	mov    rdi,r9
    3736:	4c 01 d7             	add    rdi,r10
    3739:	48 89 bd 50 9f ff ff 	mov    QWORD PTR [rbp-0x60b0],rdi
    3740:	8b 95 fc e2 ff ff    	mov    edx,DWORD PTR [rbp-0x1d04]
    3746:	48 83 c2 01          	add    rdx,0x1
    374a:	4c 69 c2 40 02 00 00 	imul   r8,rdx,0x240
    3751:	4c 89 85 88 9f ff ff 	mov    QWORD PTR [rbp-0x6078],r8
    3758:	4c 89 ce             	mov    rsi,r9
    375b:	4c 01 c6             	add    rsi,r8
    375e:	48 89 b5 58 9f ff ff 	mov    QWORD PTR [rbp-0x60a8],rsi
    3765:	4d 89 c3             	mov    r11,r8
    3768:	4d 29 d3             	sub    r11,r10
    376b:	0f b6 c9             	movzx  ecx,cl
    376e:	89 ca                	mov    edx,ecx
    3770:	48 89 d1             	mov    rcx,rdx
    3773:	49 0f af cb          	imul   rcx,r11
    3777:	4c 01 d1             	add    rcx,r10
    377a:	4d 29 c2             	sub    r10,r8
    377d:	49 0f af d2          	imul   rdx,r10
    3781:	4c 01 c2             	add    rdx,r8
    3784:	41 c6 04 09 00       	mov    BYTE PTR [r9+rcx*1],0x0
    3789:	4c 89 c9             	mov    rcx,r9
    378c:	48 01 d1             	add    rcx,rdx
    378f:	0f ae 39             	clflush BYTE PTR [rcx]
    3792:	8a 00                	mov    al,BYTE PTR [rax]
    3794:	c0 e8 02             	shr    al,0x2
    3797:	24 01                	and    al,0x1
    3799:	88 85 09 de ff ff    	mov    BYTE PTR [rbp-0x21f7],al
    379f:	8b 8d d0 de ff ff    	mov    ecx,DWORD PTR [rbp-0x2130]
    37a5:	48 83 c1 01          	add    rcx,0x1
    37a9:	4c 69 d9 40 02 00 00 	imul   r11,rcx,0x240
    37b0:	4c 89 9d 90 9f ff ff 	mov    QWORD PTR [rbp-0x6070],r11
    37b7:	4c 89 ca             	mov    rdx,r9
    37ba:	4c 01 da             	add    rdx,r11
    37bd:	48 89 95 60 9f ff ff 	mov    QWORD PTR [rbp-0x60a0],rdx
    37c4:	8b 8d d4 de ff ff    	mov    ecx,DWORD PTR [rbp-0x212c]
    37ca:	48 83 c1 01          	add    rcx,0x1
    37ce:	4c 69 d1 40 02 00 00 	imul   r10,rcx,0x240
    37d5:	4c 89 95 a0 9f ff ff 	mov    QWORD PTR [rbp-0x6060],r10
    37dc:	4c 89 c9             	mov    rcx,r9
    37df:	4c 01 d1             	add    rcx,r10
    37e2:	48 89 8d d0 9f ff ff 	mov    QWORD PTR [rbp-0x6030],rcx
    37e9:	4c 89 d3             	mov    rbx,r10
    37ec:	4c 29 db             	sub    rbx,r11
    37ef:	0f b6 c0             	movzx  eax,al
    37f2:	41 89 c0             	mov    r8d,eax
    37f5:	4c 89 c0             	mov    rax,r8
    37f8:	48 0f af c3          	imul   rax,rbx
    37fc:	4c 01 d8             	add    rax,r11
    37ff:	4d 29 d3             	sub    r11,r10
    3802:	4d 0f af c3          	imul   r8,r11
    3806:	4d 01 d0             	add    r8,r10
    3809:	41 c6 04 01 00       	mov    BYTE PTR [r9+rax*1],0x0
    380e:	4c 89 c8             	mov    rax,r9
    3811:	4c 01 c0             	add    rax,r8
    3814:	0f ae 38             	clflush BYTE PTR [rax]
    3817:	8b 85 a8 e7 ff ff    	mov    eax,DWORD PTR [rbp-0x1858]
    381d:	48 83 c0 01          	add    rax,0x1
    3821:	4c 69 c0 40 02 00 00 	imul   r8,rax,0x240
    3828:	4d 89 c2             	mov    r10,r8
    382b:	49 81 ea 00 01 00 00 	sub    r10,0x100
    3832:	4c 89 c8             	mov    rax,r9
    3835:	4c 01 c0             	add    rax,r8
    3838:	48 89 85 c8 98 ff ff 	mov    QWORD PTR [rbp-0x6738],rax
    383f:	4d 89 c8             	mov    r8,r9
    3842:	4d 01 d0             	add    r8,r10
    3845:	0f ae 38             	clflush BYTE PTR [rax]
    3848:	8b 85 ac e7 ff ff    	mov    eax,DWORD PTR [rbp-0x1854]
    384e:	48 83 c0 01          	add    rax,0x1
    3852:	4c 69 d8 40 02 00 00 	imul   r11,rax,0x240
    3859:	4d 89 da             	mov    r10,r11
    385c:	49 81 ea 00 01 00 00 	sub    r10,0x100
    3863:	4c 89 c8             	mov    rax,r9
    3866:	4c 01 d8             	add    rax,r11
    3869:	48 89 85 d0 98 ff ff 	mov    QWORD PTR [rbp-0x6730],rax
    3870:	4d 01 d1             	add    r9,r10
    3873:	0f ae 38             	clflush BYTE PTR [rax]
    3876:	0f ae f0             	mfence
    3879:	e8 a2 65 02 00       	call   29e20 <__DualGate__2_1_1>
    387e:	4c 8b 85 88 de ff ff 	mov    r8,QWORD PTR [rbp-0x2178]
    3885:	48 8b 85 b0 da ff ff 	mov    rax,QWORD PTR [rbp-0x2550]
    388c:	0f ae f0             	mfence
    388f:	41 8a 48 05          	mov    cl,BYTE PTR [r8+0x5]
    3893:	80 e1 01             	and    cl,0x1
    3896:	88 8d 2d de ff ff    	mov    BYTE PTR [rbp-0x21d3],cl
    389c:	8b 95 00 e0 ff ff    	mov    edx,DWORD PTR [rbp-0x2000]
    38a2:	48 83 c2 01          	add    rdx,0x1
    38a6:	4c 69 d2 40 02 00 00 	imul   r10,rdx,0x240
    38ad:	48 89 c7             	mov    rdi,rax
    38b0:	4c 01 d7             	add    rdi,r10
    38b3:	8b 95 04 e0 ff ff    	mov    edx,DWORD PTR [rbp-0x1ffc]
    38b9:	48 83 c2 01          	add    rdx,0x1
    38bd:	4c 69 ca 40 02 00 00 	imul   r9,rdx,0x240
    38c4:	48 89 c6             	mov    rsi,rax
    38c7:	4c 01 ce             	add    rsi,r9
    38ca:	4d 89 cb             	mov    r11,r9
    38cd:	4d 29 d3             	sub    r11,r10
    38d0:	0f b6 c9             	movzx  ecx,cl
    38d3:	89 ca                	mov    edx,ecx
    38d5:	48 89 d1             	mov    rcx,rdx
    38d8:	49 0f af cb          	imul   rcx,r11
    38dc:	4c 01 d1             	add    rcx,r10
    38df:	4d 29 ca             	sub    r10,r9
    38e2:	49 0f af d2          	imul   rdx,r10
    38e6:	4c 01 ca             	add    rdx,r9
    38e9:	c6 04 08 00          	mov    BYTE PTR [rax+rcx*1],0x0
    38ed:	48 89 c1             	mov    rcx,rax
    38f0:	48 01 d1             	add    rcx,rdx
    38f3:	0f ae 39             	clflush BYTE PTR [rcx]
    38f6:	45 8a 48 09          	mov    r9b,BYTE PTR [r8+0x9]
    38fa:	41 80 e1 01          	and    r9b,0x1
    38fe:	44 88 8d 4f de ff ff 	mov    BYTE PTR [rbp-0x21b1],r9b
    3905:	8b 8d 00 e1 ff ff    	mov    ecx,DWORD PTR [rbp-0x1f00]
    390b:	48 83 c1 01          	add    rcx,0x1
    390f:	48 69 d9 40 02 00 00 	imul   rbx,rcx,0x240
    3916:	48 89 c2             	mov    rdx,rax
    3919:	48 01 da             	add    rdx,rbx
    391c:	8b 8d 04 e1 ff ff    	mov    ecx,DWORD PTR [rbp-0x1efc]
    3922:	48 83 c1 01          	add    rcx,0x1
    3926:	4c 69 d9 40 02 00 00 	imul   r11,rcx,0x240
    392d:	48 89 c1             	mov    rcx,rax
    3930:	4c 01 d9             	add    rcx,r11
    3933:	4d 89 de             	mov    r14,r11
    3936:	49 29 de             	sub    r14,rbx
    3939:	45 0f b6 c9          	movzx  r9d,r9b
    393d:	45 89 ca             	mov    r10d,r9d
    3940:	4d 89 d1             	mov    r9,r10
    3943:	4d 0f af ce          	imul   r9,r14
    3947:	49 01 d9             	add    r9,rbx
    394a:	4c 29 db             	sub    rbx,r11
    394d:	4c 0f af d3          	imul   r10,rbx
    3951:	4d 01 da             	add    r10,r11
    3954:	42 c6 04 08 00       	mov    BYTE PTR [rax+r9*1],0x0
    3959:	49 89 c1             	mov    r9,rax
    395c:	4d 01 d1             	add    r9,r10
    395f:	41 0f ae 39          	clflush BYTE PTR [r9]
    3963:	45 8a 50 0d          	mov    r10b,BYTE PTR [r8+0xd]
    3967:	41 80 e2 01          	and    r10b,0x1
    396b:	44 88 95 6f de ff ff 	mov    BYTE PTR [rbp-0x2191],r10b
    3972:	44 8b 85 00 e2 ff ff 	mov    r8d,DWORD PTR [rbp-0x1e00]
    3979:	49 83 c0 01          	add    r8,0x1
    397d:	4d 69 f0 40 02 00 00 	imul   r14,r8,0x240
    3984:	49 89 c0             	mov    r8,rax
    3987:	4d 01 f0             	add    r8,r14
    398a:	44 8b 8d 04 e2 ff ff 	mov    r9d,DWORD PTR [rbp-0x1dfc]
    3991:	49 83 c1 01          	add    r9,0x1
    3995:	49 69 d9 40 02 00 00 	imul   rbx,r9,0x240
    399c:	49 89 c1             	mov    r9,rax
    399f:	49 01 d9             	add    r9,rbx
    39a2:	49 89 df             	mov    r15,rbx
    39a5:	4d 29 f7             	sub    r15,r14
    39a8:	45 0f b6 d2          	movzx  r10d,r10b
    39ac:	45 89 d3             	mov    r11d,r10d
    39af:	4d 89 da             	mov    r10,r11
    39b2:	4d 0f af d7          	imul   r10,r15
    39b6:	4d 01 f2             	add    r10,r14
    39b9:	49 29 de             	sub    r14,rbx
    39bc:	4d 0f af de          	imul   r11,r14
    39c0:	49 01 db             	add    r11,rbx
    39c3:	42 c6 04 10 00       	mov    BYTE PTR [rax+r10*1],0x0
    39c8:	49 89 c2             	mov    r10,rax
    39cb:	4d 01 da             	add    r10,r11
    39ce:	41 0f ae 3a          	clflush BYTE PTR [r10]
    39d2:	44 8b 95 90 e7 ff ff 	mov    r10d,DWORD PTR [rbp-0x1870]
    39d9:	49 83 c2 01          	add    r10,0x1
    39dd:	4d 69 d2 40 02 00 00 	imul   r10,r10,0x240
    39e4:	4c 89 d3             	mov    rbx,r10
    39e7:	48 81 eb 00 01 00 00 	sub    rbx,0x100
    39ee:	49 89 c3             	mov    r11,rax
    39f1:	4d 01 d3             	add    r11,r10
    39f4:	4c 89 9d b8 98 ff ff 	mov    QWORD PTR [rbp-0x6748],r11
    39fb:	49 89 c2             	mov    r10,rax
    39fe:	49 01 da             	add    r10,rbx
    3a01:	41 0f ae 3b          	clflush BYTE PTR [r11]
    3a05:	44 8b 9d 94 e7 ff ff 	mov    r11d,DWORD PTR [rbp-0x186c]
    3a0c:	49 83 c3 01          	add    r11,0x1
    3a10:	4d 69 f3 40 02 00 00 	imul   r14,r11,0x240
    3a17:	4c 89 f3             	mov    rbx,r14
    3a1a:	48 81 eb 00 01 00 00 	sub    rbx,0x100
    3a21:	49 89 c3             	mov    r11,rax
    3a24:	4d 01 f3             	add    r11,r14
    3a27:	4c 89 9d c0 98 ff ff 	mov    QWORD PTR [rbp-0x6740],r11
    3a2e:	48 01 d8             	add    rax,rbx
    3a31:	41 0f ae 3b          	clflush BYTE PTR [r11]
    3a35:	0f ae f0             	mfence
    3a38:	48 83 ec 10          	sub    rsp,0x10
    3a3c:	4c 89 14 24          	mov    QWORD PTR [rsp],r10
    3a40:	48 89 44 24 08       	mov    QWORD PTR [rsp+0x8],rax
    3a45:	e8 16 5c 02 00       	call   29660 <__DualGate__3_1_53>
    3a4a:	44 8b 85 94 de ff ff 	mov    r8d,DWORD PTR [rbp-0x216c]
    3a51:	48 8b 8d 88 de ff ff 	mov    rcx,QWORD PTR [rbp-0x2178]
    3a58:	48 8b 85 b0 da ff ff 	mov    rax,QWORD PTR [rbp-0x2550]
    3a5f:	48 83 c4 10          	add    rsp,0x10
    3a63:	0f ae f0             	mfence
    3a66:	8a 51 11             	mov    dl,BYTE PTR [rcx+0x11]
    3a69:	d0 ea                	shr    dl,1
    3a6b:	80 e2 01             	and    dl,0x1
    3a6e:	88 95 af 91 ff ff    	mov    BYTE PTR [rbp-0x6e51],dl
    3a74:	8b b5 08 e3 ff ff    	mov    esi,DWORD PTR [rbp-0x1cf8]
    3a7a:	48 83 c6 01          	add    rsi,0x1
    3a7e:	4c 69 de 40 02 00 00 	imul   r11,rsi,0x240
    3a85:	4c 89 9d b0 91 ff ff 	mov    QWORD PTR [rbp-0x6e50],r11
    3a8c:	48 89 c7             	mov    rdi,rax
    3a8f:	4c 01 df             	add    rdi,r11
    3a92:	48 89 bd c0 91 ff ff 	mov    QWORD PTR [rbp-0x6e40],rdi
    3a99:	8b b5 0c e3 ff ff    	mov    esi,DWORD PTR [rbp-0x1cf4]
    3a9f:	48 83 c6 01          	add    rsi,0x1
    3aa3:	4c 69 d6 40 02 00 00 	imul   r10,rsi,0x240
    3aaa:	4c 89 95 f0 91 ff ff 	mov    QWORD PTR [rbp-0x6e10],r10
    3ab1:	48 89 c6             	mov    rsi,rax
    3ab4:	4c 01 d6             	add    rsi,r10
    3ab7:	48 89 b5 c8 91 ff ff 	mov    QWORD PTR [rbp-0x6e38],rsi
    3abe:	4c 89 d3             	mov    rbx,r10
    3ac1:	4c 29 db             	sub    rbx,r11
    3ac4:	0f b6 d2             	movzx  edx,dl
    3ac7:	41 89 d1             	mov    r9d,edx
    3aca:	4c 89 ca             	mov    rdx,r9
    3acd:	48 0f af d3          	imul   rdx,rbx
    3ad1:	4c 01 da             	add    rdx,r11
    3ad4:	4d 29 d3             	sub    r11,r10
    3ad7:	4d 0f af cb          	imul   r9,r11
    3adb:	4d 01 d1             	add    r9,r10
    3ade:	c6 04 10 00          	mov    BYTE PTR [rax+rdx*1],0x0
    3ae2:	48 89 c2             	mov    rdx,rax
    3ae5:	4c 01 ca             	add    rdx,r9
    3ae8:	0f ae 3a             	clflush BYTE PTR [rdx]
    3aeb:	44 8a 09             	mov    r9b,BYTE PTR [rcx]
    3aee:	41 c0 e9 04          	shr    r9b,0x4
    3af2:	41 80 e1 01          	and    r9b,0x1
    3af6:	44 88 8d 0b de ff ff 	mov    BYTE PTR [rbp-0x21f5],r9b
    3afd:	8b 8d e0 de ff ff    	mov    ecx,DWORD PTR [rbp-0x2120]
    3b03:	48 83 c1 01          	add    rcx,0x1
    3b07:	48 69 d9 40 02 00 00 	imul   rbx,rcx,0x240
    3b0e:	48 89 9d 00 92 ff ff 	mov    QWORD PTR [rbp-0x6e00],rbx
    3b15:	48 89 c2             	mov    rdx,rax
    3b18:	48 01 da             	add    rdx,rbx
    3b1b:	48 89 95 d0 91 ff ff 	mov    QWORD PTR [rbp-0x6e30],rdx
    3b22:	8b 8d e4 de ff ff    	mov    ecx,DWORD PTR [rbp-0x211c]
    3b28:	48 83 c1 01          	add    rcx,0x1
    3b2c:	4c 69 d9 40 02 00 00 	imul   r11,rcx,0x240
    3b33:	4c 89 9d f8 91 ff ff 	mov    QWORD PTR [rbp-0x6e08],r11
    3b3a:	48 89 c1             	mov    rcx,rax
    3b3d:	4c 01 d9             	add    rcx,r11
    3b40:	48 89 8d 18 92 ff ff 	mov    QWORD PTR [rbp-0x6de8],rcx
    3b47:	4d 89 de             	mov    r14,r11
    3b4a:	49 29 de             	sub    r14,rbx
    3b4d:	45 0f b6 c9          	movzx  r9d,r9b
    3b51:	45 89 ca             	mov    r10d,r9d
    3b54:	4d 89 d1             	mov    r9,r10
    3b57:	4d 0f af ce          	imul   r9,r14
    3b5b:	49 01 d9             	add    r9,rbx
    3b5e:	4c 29 db             	sub    rbx,r11
    3b61:	4c 0f af d3          	imul   r10,rbx
    3b65:	4d 01 da             	add    r10,r11
    3b68:	42 c6 04 08 00       	mov    BYTE PTR [rax+r9*1],0x0
    3b6d:	49 89 c1             	mov    r9,rax
    3b70:	4d 01 d1             	add    r9,r10
    3b73:	41 0f ae 39          	clflush BYTE PTR [r9]
    3b77:	41 c1 e8 09          	shr    r8d,0x9
    3b7b:	45 88 c2             	mov    r10b,r8b
    3b7e:	41 80 e2 01          	and    r10b,0x1
    3b82:	44 88 95 17 92 ff ff 	mov    BYTE PTR [rbp-0x6de9],r10b
    3b89:	44 8b 85 08 e4 ff ff 	mov    r8d,DWORD PTR [rbp-0x1bf8]
    3b90:	49 83 c0 01          	add    r8,0x1
    3b94:	49 69 d8 40 02 00 00 	imul   rbx,r8,0x240
    3b9b:	48 89 9d b8 91 ff ff 	mov    QWORD PTR [rbp-0x6e48],rbx
    3ba2:	49 89 c0             	mov    r8,rax
    3ba5:	49 01 d8             	add    r8,rbx
    3ba8:	4c 89 85 d8 91 ff ff 	mov    QWORD PTR [rbp-0x6e28],r8
    3baf:	44 8b 8d 0c e4 ff ff 	mov    r9d,DWORD PTR [rbp-0x1bf4]
    3bb6:	49 83 c1 01          	add    r9,0x1
    3bba:	4d 69 f9 40 02 00 00 	imul   r15,r9,0x240
    3bc1:	49 89 c1             	mov    r9,rax
    3bc4:	4d 01 f9             	add    r9,r15
    3bc7:	4c 89 8d e0 91 ff ff 	mov    QWORD PTR [rbp-0x6e20],r9
    3bce:	4d 89 fe             	mov    r14,r15
    3bd1:	49 29 de             	sub    r14,rbx
    3bd4:	45 0f b6 d2          	movzx  r10d,r10b
    3bd8:	45 89 d3             	mov    r11d,r10d
    3bdb:	4d 89 da             	mov    r10,r11
    3bde:	4d 0f af d6          	imul   r10,r14
    3be2:	49 01 da             	add    r10,rbx
    3be5:	4c 29 fb             	sub    rbx,r15
    3be8:	4c 0f af db          	imul   r11,rbx
    3bec:	4d 01 fb             	add    r11,r15
    3bef:	42 c6 04 10 00       	mov    BYTE PTR [rax+r10*1],0x0
    3bf4:	49 89 c2             	mov    r10,rax
    3bf7:	4d 01 da             	add    r10,r11
    3bfa:	41 0f ae 3a          	clflush BYTE PTR [r10]
    3bfe:	44 8b 95 e0 e7 ff ff 	mov    r10d,DWORD PTR [rbp-0x1820]
    3c05:	49 83 c2 01          	add    r10,0x1
    3c09:	4d 69 d2 40 02 00 00 	imul   r10,r10,0x240
    3c10:	4c 89 d3             	mov    rbx,r10
    3c13:	48 81 eb 00 01 00 00 	sub    rbx,0x100
    3c1a:	49 89 c3             	mov    r11,rax
    3c1d:	4d 01 d3             	add    r11,r10
    3c20:	4c 89 9d e8 98 ff ff 	mov    QWORD PTR [rbp-0x6718],r11
    3c27:	49 89 c2             	mov    r10,rax
    3c2a:	49 01 da             	add    r10,rbx
    3c2d:	41 0f ae 3b          	clflush BYTE PTR [r11]
    3c31:	44 8b 9d e4 e7 ff ff 	mov    r11d,DWORD PTR [rbp-0x181c]
    3c38:	49 83 c3 01          	add    r11,0x1
    3c3c:	4d 69 f3 40 02 00 00 	imul   r14,r11,0x240
    3c43:	4c 89 f3             	mov    rbx,r14
    3c46:	48 81 eb 00 01 00 00 	sub    rbx,0x100
    3c4d:	49 89 c3             	mov    r11,rax
    3c50:	4d 01 f3             	add    r11,r14
    3c53:	4c 89 9d f0 98 ff ff 	mov    QWORD PTR [rbp-0x6710],r11
    3c5a:	48 01 d8             	add    rax,rbx
    3c5d:	41 0f ae 3b          	clflush BYTE PTR [r11]
    3c61:	0f ae f0             	mfence
    3c64:	48 83 ec 10          	sub    rsp,0x10
    3c68:	4c 89 14 24          	mov    QWORD PTR [rsp],r10
    3c6c:	48 89 44 24 08       	mov    QWORD PTR [rsp+0x8],rax
    3c71:	e8 5a 5c 02 00       	call   298d0 <__DualGate__3_1_105>
    3c76:	4c 8b 85 88 de ff ff 	mov    r8,QWORD PTR [rbp-0x2178]
    3c7d:	48 8b 85 b0 da ff ff 	mov    rax,QWORD PTR [rbp-0x2550]
    3c84:	48 83 c4 10          	add    rsp,0x10
    3c88:	0f ae f0             	mfence
    3c8b:	41 8a 48 05          	mov    cl,BYTE PTR [r8+0x5]
    3c8f:	d0 e9                	shr    cl,1
    3c91:	80 e1 01             	and    cl,0x1
    3c94:	88 8d 2e de ff ff    	mov    BYTE PTR [rbp-0x21d2],cl
    3c9a:	8b 95 08 e0 ff ff    	mov    edx,DWORD PTR [rbp-0x1ff8]
    3ca0:	48 83 c2 01          	add    rdx,0x1
    3ca4:	4c 69 d2 40 02 00 00 	imul   r10,rdx,0x240
    3cab:	48 89 c7             	mov    rdi,rax
    3cae:	4c 01 d7             	add    rdi,r10
    3cb1:	8b 95 0c e0 ff ff    	mov    edx,DWORD PTR [rbp-0x1ff4]
    3cb7:	48 83 c2 01          	add    rdx,0x1
    3cbb:	4c 69 ca 40 02 00 00 	imul   r9,rdx,0x240
    3cc2:	48 89 c6             	mov    rsi,rax
    3cc5:	4c 01 ce             	add    rsi,r9
    3cc8:	4d 89 cb             	mov    r11,r9
    3ccb:	4d 29 d3             	sub    r11,r10
    3cce:	0f b6 c9             	movzx  ecx,cl
    3cd1:	89 ca                	mov    edx,ecx
    3cd3:	48 89 d1             	mov    rcx,rdx
    3cd6:	49 0f af cb          	imul   rcx,r11
    3cda:	4c 01 d1             	add    rcx,r10
    3cdd:	4d 29 ca             	sub    r10,r9
    3ce0:	49 0f af d2          	imul   rdx,r10
    3ce4:	4c 01 ca             	add    rdx,r9
    3ce7:	c6 04 08 00          	mov    BYTE PTR [rax+rcx*1],0x0
    3ceb:	48 89 c1             	mov    rcx,rax
    3cee:	48 01 d1             	add    rcx,rdx
    3cf1:	0f ae 39             	clflush BYTE PTR [rcx]
    3cf4:	45 8a 48 09          	mov    r9b,BYTE PTR [r8+0x9]
    3cf8:	41 d0 e9             	shr    r9b,1
    3cfb:	41 80 e1 01          	and    r9b,0x1
    3cff:	44 88 8d 50 de ff ff 	mov    BYTE PTR [rbp-0x21b0],r9b
    3d06:	8b 8d 08 e1 ff ff    	mov    ecx,DWORD PTR [rbp-0x1ef8]
    3d0c:	48 83 c1 01          	add    rcx,0x1
    3d10:	48 69 d9 40 02 00 00 	imul   rbx,rcx,0x240
    3d17:	48 89 c2             	mov    rdx,rax
    3d1a:	48 01 da             	add    rdx,rbx
    3d1d:	8b 8d 0c e1 ff ff    	mov    ecx,DWORD PTR [rbp-0x1ef4]
    3d23:	48 83 c1 01          	add    rcx,0x1
    3d27:	4c 69 d9 40 02 00 00 	imul   r11,rcx,0x240
    3d2e:	48 89 c1             	mov    rcx,rax
    3d31:	4c 01 d9             	add    rcx,r11
    3d34:	4d 89 de             	mov    r14,r11
    3d37:	49 29 de             	sub    r14,rbx
    3d3a:	45 0f b6 c9          	movzx  r9d,r9b
    3d3e:	45 89 ca             	mov    r10d,r9d
    3d41:	4d 89 d1             	mov    r9,r10
    3d44:	4d 0f af ce          	imul   r9,r14
    3d48:	49 01 d9             	add    r9,rbx
    3d4b:	4c 29 db             	sub    rbx,r11
    3d4e:	4c 0f af d3          	imul   r10,rbx
    3d52:	4d 01 da             	add    r10,r11
    3d55:	42 c6 04 08 00       	mov    BYTE PTR [rax+r9*1],0x0
    3d5a:	49 89 c1             	mov    r9,rax
    3d5d:	4d 01 d1             	add    r9,r10
    3d60:	41 0f ae 39          	clflush BYTE PTR [r9]
    3d64:	45 8a 50 0d          	mov    r10b,BYTE PTR [r8+0xd]
    3d68:	41 d0 ea             	shr    r10b,1
    3d6b:	41 80 e2 01          	and    r10b,0x1
    3d6f:	44 88 95 70 de ff ff 	mov    BYTE PTR [rbp-0x2190],r10b
    3d76:	44 8b 85 08 e2 ff ff 	mov    r8d,DWORD PTR [rbp-0x1df8]
    3d7d:	49 83 c0 01          	add    r8,0x1
    3d81:	4d 69 f0 40 02 00 00 	imul   r14,r8,0x240
    3d88:	49 89 c0             	mov    r8,rax
    3d8b:	4d 01 f0             	add    r8,r14
    3d8e:	44 8b 8d 0c e2 ff ff 	mov    r9d,DWORD PTR [rbp-0x1df4]
    3d95:	49 83 c1 01          	add    r9,0x1
    3d99:	49 69 d9 40 02 00 00 	imul   rbx,r9,0x240
    3da0:	49 89 c1             	mov    r9,rax
    3da3:	49 01 d9             	add    r9,rbx
    3da6:	49 89 dc             	mov    r12,rbx
    3da9:	4d 29 f4             	sub    r12,r14
    3dac:	45 0f b6 d2          	movzx  r10d,r10b
    3db0:	45 89 d3             	mov    r11d,r10d
    3db3:	4d 89 da             	mov    r10,r11
    3db6:	4d 0f af d4          	imul   r10,r12
    3dba:	4d 01 f2             	add    r10,r14
    3dbd:	49 29 de             	sub    r14,rbx
    3dc0:	4d 0f af de          	imul   r11,r14
    3dc4:	49 01 db             	add    r11,rbx
    3dc7:	42 c6 04 10 00       	mov    BYTE PTR [rax+r10*1],0x0
    3dcc:	49 89 c2             	mov    r10,rax
    3dcf:	4d 01 da             	add    r10,r11
    3dd2:	41 0f ae 3a          	clflush BYTE PTR [r10]
    3dd6:	44 8b 95 d8 e7 ff ff 	mov    r10d,DWORD PTR [rbp-0x1828]
    3ddd:	49 83 c2 01          	add    r10,0x1
    3de1:	4d 69 d2 40 02 00 00 	imul   r10,r10,0x240
    3de8:	4c 89 d3             	mov    rbx,r10
    3deb:	48 81 eb 00 01 00 00 	sub    rbx,0x100
    3df2:	49 89 c3             	mov    r11,rax
    3df5:	4d 01 d3             	add    r11,r10
    3df8:	4c 89 9d d8 98 ff ff 	mov    QWORD PTR [rbp-0x6728],r11
    3dff:	49 89 c2             	mov    r10,rax
    3e02:	49 01 da             	add    r10,rbx
    3e05:	41 0f ae 3b          	clflush BYTE PTR [r11]
    3e09:	44 8b 9d dc e7 ff ff 	mov    r11d,DWORD PTR [rbp-0x1824]
    3e10:	49 83 c3 01          	add    r11,0x1
    3e14:	4d 69 f3 40 02 00 00 	imul   r14,r11,0x240
    3e1b:	4c 89 f3             	mov    rbx,r14
    3e1e:	48 81 eb 00 01 00 00 	sub    rbx,0x100
    3e25:	49 89 c3             	mov    r11,rax
    3e28:	4d 01 f3             	add    r11,r14
    3e2b:	4c 89 9d e0 98 ff ff 	mov    QWORD PTR [rbp-0x6720],r11
    3e32:	48 01 d8             	add    rax,rbx
    3e35:	41 0f ae 3b          	clflush BYTE PTR [r11]
    3e39:	0f ae f0             	mfence
    3e3c:	48 83 ec 10          	sub    rsp,0x10
    3e40:	4c 89 14 24          	mov    QWORD PTR [rsp],r10
    3e44:	48 89 44 24 08       	mov    QWORD PTR [rsp+0x8],rax
    3e49:	e8 12 58 02 00       	call   29660 <__DualGate__3_1_53>
    3e4e:	8b 85 94 de ff ff    	mov    eax,DWORD PTR [rbp-0x216c]
    3e54:	48 8b 8d 88 de ff ff 	mov    rcx,QWORD PTR [rbp-0x2178]
    3e5b:	4c 8b 9d b0 da ff ff 	mov    r11,QWORD PTR [rbp-0x2550]
    3e62:	48 83 c4 10          	add    rsp,0x10
    3e66:	0f ae f0             	mfence
    3e69:	8a 51 11             	mov    dl,BYTE PTR [rcx+0x11]
    3e6c:	c0 ea 02             	shr    dl,0x2
    3e6f:	80 e2 01             	and    dl,0x1
    3e72:	88 95 2f 92 ff ff    	mov    BYTE PTR [rbp-0x6dd1],dl
    3e78:	8b b5 10 e3 ff ff    	mov    esi,DWORD PTR [rbp-0x1cf0]
    3e7e:	48 83 c6 01          	add    rsi,0x1
    3e82:	4c 69 d6 40 02 00 00 	imul   r10,rsi,0x240
    3e89:	4c 89 95 30 92 ff ff 	mov    QWORD PTR [rbp-0x6dd0],r10
    3e90:	4c 89 df             	mov    rdi,r11
    3e93:	4c 01 d7             	add    rdi,r10
    3e96:	48 89 bd 40 92 ff ff 	mov    QWORD PTR [rbp-0x6dc0],rdi
    3e9d:	8b b5 14 e3 ff ff    	mov    esi,DWORD PTR [rbp-0x1cec]
    3ea3:	48 83 c6 01          	add    rsi,0x1
    3ea7:	4c 69 ce 40 02 00 00 	imul   r9,rsi,0x240
    3eae:	4c 89 8d 70 92 ff ff 	mov    QWORD PTR [rbp-0x6d90],r9
    3eb5:	4c 89 de             	mov    rsi,r11
    3eb8:	4c 01 ce             	add    rsi,r9
    3ebb:	48 89 b5 48 92 ff ff 	mov    QWORD PTR [rbp-0x6db8],rsi
    3ec2:	4c 89 cb             	mov    rbx,r9
    3ec5:	4c 29 d3             	sub    rbx,r10
    3ec8:	0f b6 d2             	movzx  edx,dl
    3ecb:	41 89 d0             	mov    r8d,edx
    3ece:	4c 89 c2             	mov    rdx,r8
    3ed1:	48 0f af d3          	imul   rdx,rbx
    3ed5:	4c 01 d2             	add    rdx,r10
    3ed8:	4d 29 ca             	sub    r10,r9
    3edb:	4d 0f af c2          	imul   r8,r10
    3edf:	4d 01 c8             	add    r8,r9
    3ee2:	41 c6 04 13 00       	mov    BYTE PTR [r11+rdx*1],0x0
    3ee7:	4c 89 da             	mov    rdx,r11
    3eea:	4c 01 c2             	add    rdx,r8
    3eed:	0f ae 3a             	clflush BYTE PTR [rdx]
    3ef0:	8a 09                	mov    cl,BYTE PTR [rcx]
    3ef2:	c0 e9 05             	shr    cl,0x5
    3ef5:	80 e1 01             	and    cl,0x1
    3ef8:	88 8d 0c de ff ff    	mov    BYTE PTR [rbp-0x21f4],cl
    3efe:	8b 95 e8 de ff ff    	mov    edx,DWORD PTR [rbp-0x2118]
    3f04:	48 83 c2 01          	add    rdx,0x1
    3f08:	4c 69 ea 40 02 00 00 	imul   r13,rdx,0x240
    3f0f:	4c 89 da             	mov    rdx,r11
    3f12:	4c 01 ea             	add    rdx,r13
    3f15:	48 89 95 50 92 ff ff 	mov    QWORD PTR [rbp-0x6db0],rdx
    3f1c:	44 8b 85 ec de ff ff 	mov    r8d,DWORD PTR [rbp-0x2114]
    3f23:	49 83 c0 01          	add    r8,0x1
    3f27:	4d 69 e0 40 02 00 00 	imul   r12,r8,0x240
    3f2e:	4d 89 d8             	mov    r8,r11
    3f31:	4d 01 e0             	add    r8,r12
    3f34:	4c 89 85 68 92 ff ff 	mov    QWORD PTR [rbp-0x6d98],r8
    3f3b:	4d 89 e1             	mov    r9,r12
    3f3e:	4d 29 e9             	sub    r9,r13
    3f41:	0f b6 c9             	movzx  ecx,cl
    3f44:	41 89 c8             	mov    r8d,ecx
    3f47:	4c 89 c1             	mov    rcx,r8
    3f4a:	49 0f af c9          	imul   rcx,r9
    3f4e:	4c 01 e9             	add    rcx,r13
    3f51:	4d 89 e9             	mov    r9,r13
    3f54:	4d 29 e1             	sub    r9,r12
    3f57:	4d 0f af c1          	imul   r8,r9
    3f5b:	4d 01 e0             	add    r8,r12
    3f5e:	41 c6 04 0b 00       	mov    BYTE PTR [r11+rcx*1],0x0
    3f63:	4c 89 d9             	mov    rcx,r11
    3f66:	4c 01 c1             	add    rcx,r8
    3f69:	0f ae 39             	clflush BYTE PTR [rcx]
    3f6c:	c1 e8 0a             	shr    eax,0xa
    3f6f:	24 01                	and    al,0x1
    3f71:	88 85 3f 92 ff ff    	mov    BYTE PTR [rbp-0x6dc1],al
    3f77:	8b 8d 10 e4 ff ff    	mov    ecx,DWORD PTR [rbp-0x1bf0]
    3f7d:	48 83 c1 01          	add    rcx,0x1
    3f81:	4c 69 f1 40 02 00 00 	imul   r14,rcx,0x240
    3f88:	4d 89 d8             	mov    r8,r11
    3f8b:	4d 01 f0             	add    r8,r14
    3f8e:	4c 89 85 58 92 ff ff 	mov    QWORD PTR [rbp-0x6da8],r8
    3f95:	8b 8d 14 e4 ff ff    	mov    ecx,DWORD PTR [rbp-0x1bec]
    3f9b:	48 83 c1 01          	add    rcx,0x1
    3f9f:	48 69 d9 40 02 00 00 	imul   rbx,rcx,0x240
    3fa6:	4d 89 d9             	mov    r9,r11
    3fa9:	49 01 d9             	add    r9,rbx
    3fac:	4c 89 8d 60 92 ff ff 	mov    QWORD PTR [rbp-0x6da0],r9
    3fb3:	49 89 da             	mov    r10,rbx
    3fb6:	4d 29 f2             	sub    r10,r14
    3fb9:	0f b6 c0             	movzx  eax,al
    3fbc:	89 c1                	mov    ecx,eax
    3fbe:	48 89 c8             	mov    rax,rcx
    3fc1:	49 0f af c2          	imul   rax,r10
    3fc5:	4c 01 f0             	add    rax,r14
    3fc8:	4d 89 f2             	mov    r10,r14
    3fcb:	49 29 da             	sub    r10,rbx
    3fce:	49 0f af ca          	imul   rcx,r10
    3fd2:	48 01 d9             	add    rcx,rbx
    3fd5:	41 c6 04 03 00       	mov    BYTE PTR [r11+rax*1],0x0
    3fda:	4c 89 d8             	mov    rax,r11
    3fdd:	48 01 c8             	add    rax,rcx
    3fe0:	0f ae 38             	clflush BYTE PTR [rax]
    3fe3:	8b 85 28 e8 ff ff    	mov    eax,DWORD PTR [rbp-0x17d8]
    3fe9:	48 83 c0 01          	add    rax,0x1
    3fed:	4c 69 d0 40 02 00 00 	imul   r10,rax,0x240
    3ff4:	4c 89 d1             	mov    rcx,r10
    3ff7:	48 81 e9 00 01 00 00 	sub    rcx,0x100
    3ffe:	4c 89 d8             	mov    rax,r11
    4001:	4c 01 d0             	add    rax,r10
    4004:	48 89 85 18 99 ff ff 	mov    QWORD PTR [rbp-0x66e8],rax
    400b:	4d 89 da             	mov    r10,r11
    400e:	49 01 ca             	add    r10,rcx
    4011:	0f ae 38             	clflush BYTE PTR [rax]
    4014:	8b 85 2c e8 ff ff    	mov    eax,DWORD PTR [rbp-0x17d4]
    401a:	48 83 c0 01          	add    rax,0x1
    401e:	48 69 c0 40 02 00 00 	imul   rax,rax,0x240
    4025:	48 89 c1             	mov    rcx,rax
    4028:	48 81 e9 00 01 00 00 	sub    rcx,0x100
    402f:	49 01 c3             	add    r11,rax
    4032:	48 8b 85 b0 da ff ff 	mov    rax,QWORD PTR [rbp-0x2550]
    4039:	4c 89 9d 20 99 ff ff 	mov    QWORD PTR [rbp-0x66e0],r11
    4040:	48 01 c8             	add    rax,rcx
    4043:	48 8b 8d 68 92 ff ff 	mov    rcx,QWORD PTR [rbp-0x6d98]
    404a:	41 0f ae 3b          	clflush BYTE PTR [r11]
    404e:	0f ae f0             	mfence
    4051:	48 83 ec 10          	sub    rsp,0x10
    4055:	4c 89 14 24          	mov    QWORD PTR [rsp],r10
    4059:	48 89 44 24 08       	mov    QWORD PTR [rsp+0x8],rax
    405e:	e8 6d 58 02 00       	call   298d0 <__DualGate__3_1_105>
    4063:	44 8a 95 af 91 ff ff 	mov    r10b,BYTE PTR [rbp-0x6e51]
    406a:	48 8b 85 b0 91 ff ff 	mov    rax,QWORD PTR [rbp-0x6e50]
    4071:	48 8b 8d f0 91 ff ff 	mov    rcx,QWORD PTR [rbp-0x6e10]
    4078:	4c 8b 9d b8 91 ff ff 	mov    r11,QWORD PTR [rbp-0x6e48]
    407f:	48 8b bd c0 91 ff ff 	mov    rdi,QWORD PTR [rbp-0x6e40]
    4086:	48 8b b5 c8 91 ff ff 	mov    rsi,QWORD PTR [rbp-0x6e38]
    408d:	48 8b 95 d0 91 ff ff 	mov    rdx,QWORD PTR [rbp-0x6e30]
    4094:	4c 8b 85 d8 91 ff ff 	mov    r8,QWORD PTR [rbp-0x6e28]
    409b:	4c 8b 8d e0 91 ff ff 	mov    r9,QWORD PTR [rbp-0x6e20]
    40a2:	48 83 c4 10          	add    rsp,0x10
    40a6:	0f ae f0             	mfence
    40a9:	48 29 c1             	sub    rcx,rax
    40ac:	45 0f b6 d2          	movzx  r10d,r10b
    40b0:	4c 89 95 e8 91 ff ff 	mov    QWORD PTR [rbp-0x6e18],r10
    40b7:	4c 0f af d1          	imul   r10,rcx
    40bb:	48 8b 8d f0 91 ff ff 	mov    rcx,QWORD PTR [rbp-0x6e10]
    40c2:	49 01 c2             	add    r10,rax
    40c5:	48 29 c8             	sub    rax,rcx
    40c8:	48 8b 8d e8 91 ff ff 	mov    rcx,QWORD PTR [rbp-0x6e18]
    40cf:	48 0f af c8          	imul   rcx,rax
    40d3:	48 8b 85 f0 91 ff ff 	mov    rax,QWORD PTR [rbp-0x6e10]
    40da:	48 01 c1             	add    rcx,rax
    40dd:	48 8b 85 b0 da ff ff 	mov    rax,QWORD PTR [rbp-0x2550]
    40e4:	42 c6 04 10 00       	mov    BYTE PTR [rax+r10*1],0x0
    40e9:	4c 8b 95 00 92 ff ff 	mov    r10,QWORD PTR [rbp-0x6e00]
    40f0:	48 01 c8             	add    rax,rcx
    40f3:	48 8b 8d f8 91 ff ff 	mov    rcx,QWORD PTR [rbp-0x6e08]
    40fa:	0f ae 38             	clflush BYTE PTR [rax]
    40fd:	8a 85 0b de ff ff    	mov    al,BYTE PTR [rbp-0x21f5]
    4103:	4c 29 d1             	sub    rcx,r10
    4106:	0f b6 c0             	movzx  eax,al
    4109:	41 89 c2             	mov    r10d,eax
    410c:	4c 89 d0             	mov    rax,r10
    410f:	48 0f af c1          	imul   rax,rcx
    4113:	48 8b 8d 00 92 ff ff 	mov    rcx,QWORD PTR [rbp-0x6e00]
    411a:	48 01 c8             	add    rax,rcx
    411d:	48 8b 8d f8 91 ff ff 	mov    rcx,QWORD PTR [rbp-0x6e08]
    4124:	48 89 85 08 92 ff ff 	mov    QWORD PTR [rbp-0x6df8],rax
    412b:	48 8b 85 00 92 ff ff 	mov    rax,QWORD PTR [rbp-0x6e00]
    4132:	48 29 c8             	sub    rax,rcx
    4135:	4c 0f af d0          	imul   r10,rax
    4139:	48 8b 85 08 92 ff ff 	mov    rax,QWORD PTR [rbp-0x6df8]
    4140:	49 01 ca             	add    r10,rcx
    4143:	48 8b 8d b0 da ff ff 	mov    rcx,QWORD PTR [rbp-0x2550]
    414a:	c6 04 01 00          	mov    BYTE PTR [rcx+rax*1],0x0
    414e:	8a 85 17 92 ff ff    	mov    al,BYTE PTR [rbp-0x6de9]
    4154:	4c 01 d1             	add    rcx,r10
    4157:	0f ae 39             	clflush BYTE PTR [rcx]
    415a:	4c 89 f9             	mov    rcx,r15
    415d:	4c 29 d9             	sub    rcx,r11
    4160:	0f b6 c0             	movzx  eax,al
    4163:	41 89 c2             	mov    r10d,eax
    4166:	4c 89 d0             	mov    rax,r10
    4169:	48 0f af c1          	imul   rax,rcx
    416d:	48 8b 8d 18 92 ff ff 	mov    rcx,QWORD PTR [rbp-0x6de8]
    4174:	4c 01 d8             	add    rax,r11
    4177:	4d 29 fb             	sub    r11,r15
    417a:	4d 0f af d3          	imul   r10,r11
    417e:	4c 8b 9d b0 da ff ff 	mov    r11,QWORD PTR [rbp-0x2550]
    4185:	4d 01 fa             	add    r10,r15
    4188:	41 c6 04 03 00       	mov    BYTE PTR [r11+rax*1],0x0
    418d:	4c 89 d8             	mov    rax,r11
    4190:	4c 01 d0             	add    rax,r10
    4193:	0f ae 38             	clflush BYTE PTR [rax]
    4196:	8b 85 20 e8 ff ff    	mov    eax,DWORD PTR [rbp-0x17e0]
    419c:	48 83 c0 01          	add    rax,0x1
    41a0:	4c 69 d0 40 02 00 00 	imul   r10,rax,0x240
    41a7:	4d 89 d7             	mov    r15,r10
    41aa:	49 81 ef 00 01 00 00 	sub    r15,0x100
    41b1:	4c 89 d8             	mov    rax,r11
    41b4:	4c 01 d0             	add    rax,r10
    41b7:	48 89 85 08 99 ff ff 	mov    QWORD PTR [rbp-0x66f8],rax
    41be:	4d 89 da             	mov    r10,r11
    41c1:	4d 01 fa             	add    r10,r15
    41c4:	0f ae 38             	clflush BYTE PTR [rax]
    41c7:	8b 85 24 e8 ff ff    	mov    eax,DWORD PTR [rbp-0x17dc]
    41cd:	48 83 c0 01          	add    rax,0x1
    41d1:	48 69 c0 40 02 00 00 	imul   rax,rax,0x240
    41d8:	49 89 c7             	mov    r15,rax
    41db:	49 81 ef 00 01 00 00 	sub    r15,0x100
    41e2:	49 01 c3             	add    r11,rax
    41e5:	48 8b 85 b0 da ff ff 	mov    rax,QWORD PTR [rbp-0x2550]
    41ec:	4c 89 9d 10 99 ff ff 	mov    QWORD PTR [rbp-0x66f0],r11
    41f3:	4c 01 f8             	add    rax,r15
    41f6:	41 0f ae 3b          	clflush BYTE PTR [r11]
    41fa:	0f ae f0             	mfence
    41fd:	48 83 ec 10          	sub    rsp,0x10
    4201:	4c 89 14 24          	mov    QWORD PTR [rsp],r10
    4205:	48 89 44 24 08       	mov    QWORD PTR [rsp+0x8],rax
    420a:	e8 81 59 02 00       	call   29b90 <__DualGate__3_1_23>
    420f:	48 8b 85 88 de ff ff 	mov    rax,QWORD PTR [rbp-0x2178]
    4216:	4c 8b 8d b0 da ff ff 	mov    r9,QWORD PTR [rbp-0x2550]
    421d:	48 83 c4 10          	add    rsp,0x10
    4221:	0f ae f0             	mfence
    4224:	8a 48 05             	mov    cl,BYTE PTR [rax+0x5]
    4227:	c0 e9 02             	shr    cl,0x2
    422a:	80 e1 01             	and    cl,0x1
    422d:	88 8d 2f de ff ff    	mov    BYTE PTR [rbp-0x21d1],cl
    4233:	8b 95 10 e0 ff ff    	mov    edx,DWORD PTR [rbp-0x1ff0]
    4239:	48 83 c2 01          	add    rdx,0x1
    423d:	4c 69 d2 40 02 00 00 	imul   r10,rdx,0x240
    4244:	4c 89 cf             	mov    rdi,r9
    4247:	4c 01 d7             	add    rdi,r10
    424a:	8b 95 14 e0 ff ff    	mov    edx,DWORD PTR [rbp-0x1fec]
    4250:	48 83 c2 01          	add    rdx,0x1
    4254:	4c 69 c2 40 02 00 00 	imul   r8,rdx,0x240
    425b:	4c 89 ce             	mov    rsi,r9
    425e:	4c 01 c6             	add    rsi,r8
    4261:	4d 89 c3             	mov    r11,r8
    4264:	4d 29 d3             	sub    r11,r10
    4267:	0f b6 c9             	movzx  ecx,cl
    426a:	89 ca                	mov    edx,ecx
    426c:	48 89 d1             	mov    rcx,rdx
    426f:	49 0f af cb          	imul   rcx,r11
    4273:	4c 01 d1             	add    rcx,r10
    4276:	4d 29 c2             	sub    r10,r8
    4279:	49 0f af d2          	imul   rdx,r10
    427d:	4c 01 c2             	add    rdx,r8
    4280:	41 c6 04 09 00       	mov    BYTE PTR [r9+rcx*1],0x0
    4285:	4c 89 c9             	mov    rcx,r9
    4288:	48 01 d1             	add    rcx,rdx
    428b:	0f ae 39             	clflush BYTE PTR [rcx]
    428e:	8a 48 09             	mov    cl,BYTE PTR [rax+0x9]
    4291:	c0 e9 02             	shr    cl,0x2
    4294:	80 e1 01             	and    cl,0x1
    4297:	88 8d 51 de ff ff    	mov    BYTE PTR [rbp-0x21af],cl
    429d:	8b 95 10 e1 ff ff    	mov    edx,DWORD PTR [rbp-0x1ef0]
    42a3:	48 83 c2 01          	add    rdx,0x1
    42a7:	4c 69 da 40 02 00 00 	imul   r11,rdx,0x240
    42ae:	4c 89 ca             	mov    rdx,r9
    42b1:	4c 01 da             	add    rdx,r11
    42b4:	44 8b 85 14 e1 ff ff 	mov    r8d,DWORD PTR [rbp-0x1eec]
    42bb:	49 83 c0 01          	add    r8,0x1
    42bf:	4d 69 d0 40 02 00 00 	imul   r10,r8,0x240
    42c6:	4d 89 c8             	mov    r8,r9
    42c9:	4d 01 d0             	add    r8,r10
    42cc:	4c 89 85 20 92 ff ff 	mov    QWORD PTR [rbp-0x6de0],r8
    42d3:	4d 89 d7             	mov    r15,r10
    42d6:	4d 29 df             	sub    r15,r11
    42d9:	0f b6 c9             	movzx  ecx,cl
    42dc:	41 89 c8             	mov    r8d,ecx
    42df:	4c 89 c1             	mov    rcx,r8
    42e2:	49 0f af cf          	imul   rcx,r15
    42e6:	4c 01 d9             	add    rcx,r11
    42e9:	4d 29 d3             	sub    r11,r10
    42ec:	4d 0f af c3          	imul   r8,r11
    42f0:	4d 01 d0             	add    r8,r10
    42f3:	41 c6 04 09 00       	mov    BYTE PTR [r9+rcx*1],0x0
    42f8:	4c 89 c9             	mov    rcx,r9
    42fb:	4c 01 c1             	add    rcx,r8
    42fe:	0f ae 39             	clflush BYTE PTR [rcx]
    4301:	8a 40 0d             	mov    al,BYTE PTR [rax+0xd]
    4304:	c0 e8 02             	shr    al,0x2
    4307:	24 01                	and    al,0x1
    4309:	88 85 71 de ff ff    	mov    BYTE PTR [rbp-0x218f],al
    430f:	8b 8d 10 e2 ff ff    	mov    ecx,DWORD PTR [rbp-0x1df0]
    4315:	48 83 c1 01          	add    rcx,0x1
    4319:	4c 69 d9 40 02 00 00 	imul   r11,rcx,0x240
    4320:	4d 89 c8             	mov    r8,r9
    4323:	4d 01 d8             	add    r8,r11
    4326:	8b 8d 14 e2 ff ff    	mov    ecx,DWORD PTR [rbp-0x1dec]
    432c:	48 83 c1 01          	add    rcx,0x1
    4330:	4c 69 f9 40 02 00 00 	imul   r15,rcx,0x240
    4337:	4d 01 f9             	add    r9,r15
    433a:	4c 89 f9             	mov    rcx,r15
    433d:	4c 29 d9             	sub    rcx,r11
    4340:	0f b6 c0             	movzx  eax,al
    4343:	41 89 c2             	mov    r10d,eax
    4346:	4c 89 d0             	mov    rax,r10
    4349:	48 0f af c1          	imul   rax,rcx
    434d:	48 8b 8d 20 92 ff ff 	mov    rcx,QWORD PTR [rbp-0x6de0]
    4354:	4c 01 d8             	add    rax,r11
    4357:	4d 29 fb             	sub    r11,r15
    435a:	4d 0f af d3          	imul   r10,r11
    435e:	4c 8b 9d b0 da ff ff 	mov    r11,QWORD PTR [rbp-0x2550]
    4365:	4d 01 fa             	add    r10,r15
    4368:	41 c6 04 03 00       	mov    BYTE PTR [r11+rax*1],0x0
    436d:	4c 89 d8             	mov    rax,r11
    4370:	4c 01 d0             	add    rax,r10
    4373:	0f ae 38             	clflush BYTE PTR [rax]
    4376:	8b 85 18 e8 ff ff    	mov    eax,DWORD PTR [rbp-0x17e8]
    437c:	48 83 c0 01          	add    rax,0x1
    4380:	4c 69 d0 40 02 00 00 	imul   r10,rax,0x240
    4387:	4d 89 d7             	mov    r15,r10
    438a:	49 81 ef 00 01 00 00 	sub    r15,0x100
    4391:	4c 89 d8             	mov    rax,r11
    4394:	4c 01 d0             	add    rax,r10
    4397:	48 89 85 f8 98 ff ff 	mov    QWORD PTR [rbp-0x6708],rax
    439e:	4d 89 da             	mov    r10,r11
    43a1:	4d 01 fa             	add    r10,r15
    43a4:	0f ae 38             	clflush BYTE PTR [rax]
    43a7:	8b 85 1c e8 ff ff    	mov    eax,DWORD PTR [rbp-0x17e4]
    43ad:	48 83 c0 01          	add    rax,0x1
    43b1:	48 69 c0 40 02 00 00 	imul   rax,rax,0x240
    43b8:	49 89 c7             	mov    r15,rax
    43bb:	49 81 ef 00 01 00 00 	sub    r15,0x100
    43c2:	49 01 c3             	add    r11,rax
    43c5:	48 8b 85 b0 da ff ff 	mov    rax,QWORD PTR [rbp-0x2550]
    43cc:	4c 89 9d 00 99 ff ff 	mov    QWORD PTR [rbp-0x6700],r11
    43d3:	4c 01 f8             	add    rax,r15
    43d6:	41 0f ae 3b          	clflush BYTE PTR [r11]
    43da:	0f ae f0             	mfence
    43dd:	48 83 ec 10          	sub    rsp,0x10
    43e1:	4c 89 14 24          	mov    QWORD PTR [rsp],r10
    43e5:	48 89 44 24 08       	mov    QWORD PTR [rsp+0x8],rax
    43ea:	e8 71 52 02 00       	call   29660 <__DualGate__3_1_53>
    43ef:	44 8a 9d 2f 92 ff ff 	mov    r11b,BYTE PTR [rbp-0x6dd1]
    43f6:	48 8b 85 30 92 ff ff 	mov    rax,QWORD PTR [rbp-0x6dd0]
    43fd:	48 8b 8d 70 92 ff ff 	mov    rcx,QWORD PTR [rbp-0x6d90]
    4404:	44 8a 95 3f 92 ff ff 	mov    r10b,BYTE PTR [rbp-0x6dc1]
    440b:	48 8b bd 40 92 ff ff 	mov    rdi,QWORD PTR [rbp-0x6dc0]
    4412:	48 8b b5 48 92 ff ff 	mov    rsi,QWORD PTR [rbp-0x6db8]
    4419:	48 8b 95 50 92 ff ff 	mov    rdx,QWORD PTR [rbp-0x6db0]
    4420:	4c 8b 85 58 92 ff ff 	mov    r8,QWORD PTR [rbp-0x6da8]
    4427:	4c 8b 8d 60 92 ff ff 	mov    r9,QWORD PTR [rbp-0x6da0]
    442e:	48 83 c4 10          	add    rsp,0x10
    4432:	0f ae f0             	mfence
    4435:	48 29 c1             	sub    rcx,rax
    4438:	45 0f b6 db          	movzx  r11d,r11b
    443c:	45 89 df             	mov    r15d,r11d
    443f:	4d 89 fb             	mov    r11,r15
    4442:	4c 0f af d9          	imul   r11,rcx
    4446:	48 8b 8d 70 92 ff ff 	mov    rcx,QWORD PTR [rbp-0x6d90]
    444d:	49 01 c3             	add    r11,rax
    4450:	48 29 c8             	sub    rax,rcx
    4453:	48 8b 8d 68 92 ff ff 	mov    rcx,QWORD PTR [rbp-0x6d98]
    445a:	4c 0f af f8          	imul   r15,rax
    445e:	48 8b 85 70 92 ff ff 	mov    rax,QWORD PTR [rbp-0x6d90]
    4465:	49 01 c7             	add    r15,rax
    4468:	48 8b 85 b0 da ff ff 	mov    rax,QWORD PTR [rbp-0x2550]
    446f:	42 c6 04 18 00       	mov    BYTE PTR [rax+r11*1],0x0
    4474:	44 8a 9d 0c de ff ff 	mov    r11b,BYTE PTR [rbp-0x21f4]
    447b:	4c 01 f8             	add    rax,r15
    447e:	0f ae 38             	clflush BYTE PTR [rax]
    4481:	4c 89 e0             	mov    rax,r12
    4484:	4c 29 e8             	sub    rax,r13
    4487:	45 0f b6 db          	movzx  r11d,r11b
    448b:	45 89 df             	mov    r15d,r11d
    448e:	4d 89 fb             	mov    r11,r15
    4491:	4c 0f af d8          	imul   r11,rax
    4495:	48 8b 85 b0 da ff ff 	mov    rax,QWORD PTR [rbp-0x2550]
    449c:	4d 01 eb             	add    r11,r13
    449f:	4d 29 e5             	sub    r13,r12
    44a2:	4d 0f af fd          	imul   r15,r13
    44a6:	4d 01 e7             	add    r15,r12
    44a9:	42 c6 04 18 00       	mov    BYTE PTR [rax+r11*1],0x0
    44ae:	49 89 c3             	mov    r11,rax
    44b1:	4d 01 fb             	add    r11,r15
    44b4:	41 0f ae 3b          	clflush BYTE PTR [r11]
    44b8:	49 89 df             	mov    r15,rbx
    44bb:	4d 29 f7             	sub    r15,r14
    44be:	45 0f b6 d2          	movzx  r10d,r10b
    44c2:	45 89 d3             	mov    r11d,r10d
    44c5:	4d 89 da             	mov    r10,r11
    44c8:	4d 0f af d7          	imul   r10,r15
    44cc:	4d 01 f2             	add    r10,r14
    44cf:	49 29 de             	sub    r14,rbx
    44d2:	4d 0f af de          	imul   r11,r14
    44d6:	49 01 db             	add    r11,rbx
    44d9:	42 c6 04 10 00       	mov    BYTE PTR [rax+r10*1],0x0
    44de:	49 89 c2             	mov    r10,rax
    44e1:	4d 01 da             	add    r10,r11
    44e4:	41 0f ae 3a          	clflush BYTE PTR [r10]
    44e8:	44 8b 95 70 e8 ff ff 	mov    r10d,DWORD PTR [rbp-0x1790]
    44ef:	49 83 c2 01          	add    r10,0x1
    44f3:	4d 69 d2 40 02 00 00 	imul   r10,r10,0x240
    44fa:	4c 89 d3             	mov    rbx,r10
    44fd:	48 81 eb 00 01 00 00 	sub    rbx,0x100
    4504:	49 89 c3             	mov    r11,rax
    4507:	4d 01 d3             	add    r11,r10
    450a:	4c 89 9d 38 99 ff ff 	mov    QWORD PTR [rbp-0x66c8],r11
    4511:	49 89 c2             	mov    r10,rax
    4514:	49 01 da             	add    r10,rbx
    4517:	41 0f ae 3b          	clflush BYTE PTR [r11]
    451b:	44 8b 9d 74 e8 ff ff 	mov    r11d,DWORD PTR [rbp-0x178c]
    4522:	49 83 c3 01          	add    r11,0x1
    4526:	4d 69 f3 40 02 00 00 	imul   r14,r11,0x240
    452d:	4c 89 f3             	mov    rbx,r14
    4530:	48 81 eb 00 01 00 00 	sub    rbx,0x100
    4537:	49 89 c3             	mov    r11,rax
    453a:	4d 01 f3             	add    r11,r14
    453d:	4c 89 9d 40 99 ff ff 	mov    QWORD PTR [rbp-0x66c0],r11
    4544:	48 01 d8             	add    rax,rbx
    4547:	41 0f ae 3b          	clflush BYTE PTR [r11]
    454b:	0f ae f0             	mfence
    454e:	48 83 ec 10          	sub    rsp,0x10
    4552:	4c 89 14 24          	mov    QWORD PTR [rsp],r10
    4556:	48 89 44 24 08       	mov    QWORD PTR [rsp+0x8],rax
    455b:	e8 30 56 02 00       	call   29b90 <__DualGate__3_1_23>
    4560:	4c 8b 85 88 de ff ff 	mov    r8,QWORD PTR [rbp-0x2178]
    4567:	48 8b 85 b0 da ff ff 	mov    rax,QWORD PTR [rbp-0x2550]
    456e:	48 83 c4 10          	add    rsp,0x10
    4572:	0f ae f0             	mfence
    4575:	41 8a 48 05          	mov    cl,BYTE PTR [r8+0x5]
    4579:	c0 e9 03             	shr    cl,0x3
    457c:	80 e1 01             	and    cl,0x1
    457f:	88 8d 30 de ff ff    	mov    BYTE PTR [rbp-0x21d0],cl
    4585:	8b 95 18 e0 ff ff    	mov    edx,DWORD PTR [rbp-0x1fe8]
    458b:	48 83 c2 01          	add    rdx,0x1
    458f:	4c 69 d2 40 02 00 00 	imul   r10,rdx,0x240
    4596:	48 89 c7             	mov    rdi,rax
    4599:	4c 01 d7             	add    rdi,r10
    459c:	8b 95 1c e0 ff ff    	mov    edx,DWORD PTR [rbp-0x1fe4]
    45a2:	48 83 c2 01          	add    rdx,0x1
    45a6:	4c 69 ca 40 02 00 00 	imul   r9,rdx,0x240
    45ad:	48 89 c6             	mov    rsi,rax
    45b0:	4c 01 ce             	add    rsi,r9
    45b3:	4d 89 cb             	mov    r11,r9
    45b6:	4d 29 d3             	sub    r11,r10
    45b9:	0f b6 c9             	movzx  ecx,cl
    45bc:	89 ca                	mov    edx,ecx
    45be:	48 89 d1             	mov    rcx,rdx
    45c1:	49 0f af cb          	imul   rcx,r11
    45c5:	4c 01 d1             	add    rcx,r10
    45c8:	4d 29 ca             	sub    r10,r9
    45cb:	49 0f af d2          	imul   rdx,r10
    45cf:	4c 01 ca             	add    rdx,r9
    45d2:	c6 04 08 00          	mov    BYTE PTR [rax+rcx*1],0x0
    45d6:	48 89 c1             	mov    rcx,rax
    45d9:	48 01 d1             	add    rcx,rdx
    45dc:	0f ae 39             	clflush BYTE PTR [rcx]
    45df:	45 8a 48 09          	mov    r9b,BYTE PTR [r8+0x9]
    45e3:	41 c0 e9 03          	shr    r9b,0x3
    45e7:	41 80 e1 01          	and    r9b,0x1
    45eb:	44 88 8d 52 de ff ff 	mov    BYTE PTR [rbp-0x21ae],r9b
    45f2:	8b 8d 18 e1 ff ff    	mov    ecx,DWORD PTR [rbp-0x1ee8]
    45f8:	48 83 c1 01          	add    rcx,0x1
    45fc:	48 69 d9 40 02 00 00 	imul   rbx,rcx,0x240
    4603:	48 89 c2             	mov    rdx,rax
    4606:	48 01 da             	add    rdx,rbx
    4609:	8b 8d 1c e1 ff ff    	mov    ecx,DWORD PTR [rbp-0x1ee4]
    460f:	48 83 c1 01          	add    rcx,0x1
    4613:	4c 69 d9 40 02 00 00 	imul   r11,rcx,0x240
    461a:	48 89 c1             	mov    rcx,rax
    461d:	4c 01 d9             	add    rcx,r11
    4620:	4d 89 de             	mov    r14,r11
    4623:	49 29 de             	sub    r14,rbx
    4626:	45 0f b6 c9          	movzx  r9d,r9b
    462a:	45 89 ca             	mov    r10d,r9d
    462d:	4d 89 d1             	mov    r9,r10
    4630:	4d 0f af ce          	imul   r9,r14
    4634:	49 01 d9             	add    r9,rbx
    4637:	4c 29 db             	sub    rbx,r11
    463a:	4c 0f af d3          	imul   r10,rbx
    463e:	4d 01 da             	add    r10,r11
    4641:	42 c6 04 08 00       	mov    BYTE PTR [rax+r9*1],0x0
    4646:	49 89 c1             	mov    r9,rax
    4649:	4d 01 d1             	add    r9,r10
    464c:	41 0f ae 39          	clflush BYTE PTR [r9]
    4650:	45 8a 50 0d          	mov    r10b,BYTE PTR [r8+0xd]
    4654:	41 c0 ea 03          	shr    r10b,0x3
    4658:	41 80 e2 01          	and    r10b,0x1
    465c:	44 88 95 72 de ff ff 	mov    BYTE PTR [rbp-0x218e],r10b
    4663:	44 8b 85 18 e2 ff ff 	mov    r8d,DWORD PTR [rbp-0x1de8]
    466a:	49 83 c0 01          	add    r8,0x1
    466e:	4d 69 f0 40 02 00 00 	imul   r14,r8,0x240
    4675:	49 89 c0             	mov    r8,rax
    4678:	4d 01 f0             	add    r8,r14
    467b:	44 8b 8d 1c e2 ff ff 	mov    r9d,DWORD PTR [rbp-0x1de4]
    4682:	49 83 c1 01          	add    r9,0x1
    4686:	49 69 d9 40 02 00 00 	imul   rbx,r9,0x240
    468d:	49 89 c1             	mov    r9,rax
    4690:	49 01 d9             	add    r9,rbx
    4693:	49 89 df             	mov    r15,rbx
    4696:	4d 29 f7             	sub    r15,r14
    4699:	45 0f b6 d2          	movzx  r10d,r10b
    469d:	45 89 d3             	mov    r11d,r10d
    46a0:	4d 89 da             	mov    r10,r11
    46a3:	4d 0f af d7          	imul   r10,r15
    46a7:	4d 01 f2             	add    r10,r14
    46aa:	49 29 de             	sub    r14,rbx
    46ad:	4d 0f af de          	imul   r11,r14
    46b1:	49 01 db             	add    r11,rbx
    46b4:	42 c6 04 10 00       	mov    BYTE PTR [rax+r10*1],0x0
    46b9:	49 89 c2             	mov    r10,rax
    46bc:	4d 01 da             	add    r10,r11
    46bf:	41 0f ae 3a          	clflush BYTE PTR [r10]
    46c3:	44 8b 95 58 e8 ff ff 	mov    r10d,DWORD PTR [rbp-0x17a8]
    46ca:	49 83 c2 01          	add    r10,0x1
    46ce:	4d 69 d2 40 02 00 00 	imul   r10,r10,0x240
    46d5:	4c 89 d3             	mov    rbx,r10
    46d8:	48 81 eb 00 01 00 00 	sub    rbx,0x100
    46df:	49 89 c3             	mov    r11,rax
    46e2:	4d 01 d3             	add    r11,r10
    46e5:	4c 89 9d 28 99 ff ff 	mov    QWORD PTR [rbp-0x66d8],r11
    46ec:	49 89 c2             	mov    r10,rax
    46ef:	49 01 da             	add    r10,rbx
    46f2:	41 0f ae 3b          	clflush BYTE PTR [r11]
    46f6:	44 8b 9d 5c e8 ff ff 	mov    r11d,DWORD PTR [rbp-0x17a4]
    46fd:	49 83 c3 01          	add    r11,0x1
    4701:	4d 69 f3 40 02 00 00 	imul   r14,r11,0x240
    4708:	4c 89 f3             	mov    rbx,r14
    470b:	48 81 eb 00 01 00 00 	sub    rbx,0x100
    4712:	49 89 c3             	mov    r11,rax
    4715:	4d 01 f3             	add    r11,r14
    4718:	4c 89 9d 30 99 ff ff 	mov    QWORD PTR [rbp-0x66d0],r11
    471f:	48 01 d8             	add    rax,rbx
    4722:	41 0f ae 3b          	clflush BYTE PTR [r11]
    4726:	0f ae f0             	mfence
    4729:	48 83 ec 10          	sub    rsp,0x10
    472d:	4c 89 14 24          	mov    QWORD PTR [rsp],r10
    4731:	48 89 44 24 08       	mov    QWORD PTR [rsp+0x8],rax
    4736:	e8 25 4f 02 00       	call   29660 <__DualGate__3_1_53>
    473b:	48 8b 85 88 de ff ff 	mov    rax,QWORD PTR [rbp-0x2178]
    4742:	4c 8b 8d b0 da ff ff 	mov    r9,QWORD PTR [rbp-0x2550]
    4749:	48 83 c4 10          	add    rsp,0x10
    474d:	0f ae f0             	mfence
    4750:	8a 48 11             	mov    cl,BYTE PTR [rax+0x11]
    4753:	c0 e9 03             	shr    cl,0x3
    4756:	80 e1 01             	and    cl,0x1
    4759:	88 8d 37 a1 ff ff    	mov    BYTE PTR [rbp-0x5ec9],cl
    475f:	8b 95 18 e3 ff ff    	mov    edx,DWORD PTR [rbp-0x1ce8]
    4765:	48 83 c2 01          	add    rdx,0x1
    4769:	4c 69 d2 40 02 00 00 	imul   r10,rdx,0x240
    4770:	4c 89 95 38 a1 ff ff 	mov    QWORD PTR [rbp-0x5ec8],r10
    4777:	4c 89 cf             	mov    rdi,r9
    477a:	4c 01 d7             	add    rdi,r10
    477d:	48 89 bd 40 a1 ff ff 	mov    QWORD PTR [rbp-0x5ec0],rdi
    4784:	8b 95 1c e3 ff ff    	mov    edx,DWORD PTR [rbp-0x1ce4]
    478a:	48 83 c2 01          	add    rdx,0x1
    478e:	4c 69 c2 40 02 00 00 	imul   r8,rdx,0x240
    4795:	4c 89 85 78 a1 ff ff 	mov    QWORD PTR [rbp-0x5e88],r8
    479c:	4c 89 ce             	mov    rsi,r9
    479f:	4c 01 c6             	add    rsi,r8
    47a2:	48 89 b5 48 a1 ff ff 	mov    QWORD PTR [rbp-0x5eb8],rsi
    47a9:	4d 89 c3             	mov    r11,r8
    47ac:	4d 29 d3             	sub    r11,r10
    47af:	0f b6 c9             	movzx  ecx,cl
    47b2:	89 ca                	mov    edx,ecx
    47b4:	48 89 d1             	mov    rcx,rdx
    47b7:	49 0f af cb          	imul   rcx,r11
    47bb:	4c 01 d1             	add    rcx,r10
    47be:	4d 29 c2             	sub    r10,r8
    47c1:	49 0f af d2          	imul   rdx,r10
    47c5:	4c 01 c2             	add    rdx,r8
    47c8:	41 c6 04 09 00       	mov    BYTE PTR [r9+rcx*1],0x0
    47cd:	4c 89 c9             	mov    rcx,r9
    47d0:	48 01 d1             	add    rcx,rdx
    47d3:	0f ae 39             	clflush BYTE PTR [rcx]
    47d6:	8a 00                	mov    al,BYTE PTR [rax]
    47d8:	c0 e8 06             	shr    al,0x6
    47db:	24 01                	and    al,0x1
    47dd:	88 85 0d de ff ff    	mov    BYTE PTR [rbp-0x21f3],al
    47e3:	8b 8d f0 de ff ff    	mov    ecx,DWORD PTR [rbp-0x2110]
    47e9:	48 83 c1 01          	add    rcx,0x1
    47ed:	4c 69 d9 40 02 00 00 	imul   r11,rcx,0x240
    47f4:	4c 89 9d 80 a1 ff ff 	mov    QWORD PTR [rbp-0x5e80],r11
    47fb:	4c 89 ca             	mov    rdx,r9
    47fe:	4c 01 da             	add    rdx,r11
    4801:	48 89 95 50 a1 ff ff 	mov    QWORD PTR [rbp-0x5eb0],rdx
    4808:	8b 8d f4 de ff ff    	mov    ecx,DWORD PTR [rbp-0x210c]
    480e:	48 83 c1 01          	add    rcx,0x1
    4812:	4c 69 d1 40 02 00 00 	imul   r10,rcx,0x240
    4819:	4c 89 95 90 a1 ff ff 	mov    QWORD PTR [rbp-0x5e70],r10
    4820:	4c 89 c9             	mov    rcx,r9
    4823:	4c 01 d1             	add    rcx,r10
    4826:	48 89 8d c0 a1 ff ff 	mov    QWORD PTR [rbp-0x5e40],rcx
    482d:	4c 89 d3             	mov    rbx,r10
    4830:	4c 29 db             	sub    rbx,r11
    4833:	0f b6 c0             	movzx  eax,al
    4836:	41 89 c0             	mov    r8d,eax
    4839:	4c 89 c0             	mov    rax,r8
    483c:	48 0f af c3          	imul   rax,rbx
    4840:	4c 01 d8             	add    rax,r11
    4843:	4d 29 d3             	sub    r11,r10
    4846:	4d 0f af c3          	imul   r8,r11
    484a:	4d 01 d0             	add    r8,r10
    484d:	41 c6 04 01 00       	mov    BYTE PTR [r9+rax*1],0x0
    4852:	4c 89 c8             	mov    rax,r9
    4855:	4c 01 c0             	add    rax,r8
    4858:	0f ae 38             	clflush BYTE PTR [rax]
    485b:	8b 85 c0 e8 ff ff    	mov    eax,DWORD PTR [rbp-0x1740]
    4861:	48 83 c0 01          	add    rax,0x1
    4865:	4c 69 c0 40 02 00 00 	imul   r8,rax,0x240
    486c:	4d 89 c2             	mov    r10,r8
    486f:	49 81 ea 00 01 00 00 	sub    r10,0x100
    4876:	4c 89 c8             	mov    rax,r9
    4879:	4c 01 c0             	add    rax,r8
    487c:	48 89 85 58 99 ff ff 	mov    QWORD PTR [rbp-0x66a8],rax
    4883:	4d 89 c8             	mov    r8,r9
    4886:	4d 01 d0             	add    r8,r10
    4889:	0f ae 38             	clflush BYTE PTR [rax]
    488c:	8b 85 c4 e8 ff ff    	mov    eax,DWORD PTR [rbp-0x173c]
    4892:	48 83 c0 01          	add    rax,0x1
    4896:	4c 69 d8 40 02 00 00 	imul   r11,rax,0x240
    489d:	4d 89 da             	mov    r10,r11
    48a0:	49 81 ea 00 01 00 00 	sub    r10,0x100
    48a7:	4c 89 c8             	mov    rax,r9
    48aa:	4c 01 d8             	add    rax,r11
    48ad:	48 89 85 60 99 ff ff 	mov    QWORD PTR [rbp-0x66a0],rax
    48b4:	4d 01 d1             	add    r9,r10
    48b7:	0f ae 38             	clflush BYTE PTR [rax]
    48ba:	0f ae f0             	mfence
    48bd:	e8 5e 55 02 00       	call   29e20 <__DualGate__2_1_1>
    48c2:	4c 8b 85 88 de ff ff 	mov    r8,QWORD PTR [rbp-0x2178]
    48c9:	48 8b 85 b0 da ff ff 	mov    rax,QWORD PTR [rbp-0x2550]
    48d0:	0f ae f0             	mfence
    48d3:	41 8a 48 05          	mov    cl,BYTE PTR [r8+0x5]
    48d7:	c0 e9 04             	shr    cl,0x4
    48da:	80 e1 01             	and    cl,0x1
    48dd:	88 8d 31 de ff ff    	mov    BYTE PTR [rbp-0x21cf],cl
    48e3:	8b 95 20 e0 ff ff    	mov    edx,DWORD PTR [rbp-0x1fe0]
    48e9:	48 83 c2 01          	add    rdx,0x1
    48ed:	4c 69 d2 40 02 00 00 	imul   r10,rdx,0x240
    48f4:	48 89 c7             	mov    rdi,rax
    48f7:	4c 01 d7             	add    rdi,r10
    48fa:	8b 95 24 e0 ff ff    	mov    edx,DWORD PTR [rbp-0x1fdc]
    4900:	48 83 c2 01          	add    rdx,0x1
    4904:	4c 69 ca 40 02 00 00 	imul   r9,rdx,0x240
    490b:	48 89 c6             	mov    rsi,rax
    490e:	4c 01 ce             	add    rsi,r9
    4911:	4d 89 cb             	mov    r11,r9
    4914:	4d 29 d3             	sub    r11,r10
    4917:	0f b6 c9             	movzx  ecx,cl
    491a:	89 ca                	mov    edx,ecx
    491c:	48 89 d1             	mov    rcx,rdx
    491f:	49 0f af cb          	imul   rcx,r11
    4923:	4c 01 d1             	add    rcx,r10
    4926:	4d 29 ca             	sub    r10,r9
    4929:	49 0f af d2          	imul   rdx,r10
    492d:	4c 01 ca             	add    rdx,r9
    4930:	c6 04 08 00          	mov    BYTE PTR [rax+rcx*1],0x0
    4934:	48 89 c1             	mov    rcx,rax
    4937:	48 01 d1             	add    rcx,rdx
    493a:	0f ae 39             	clflush BYTE PTR [rcx]
    493d:	45 8a 48 09          	mov    r9b,BYTE PTR [r8+0x9]
    4941:	41 c0 e9 04          	shr    r9b,0x4
    4945:	41 80 e1 01          	and    r9b,0x1
    4949:	44 88 8d 53 de ff ff 	mov    BYTE PTR [rbp-0x21ad],r9b
    4950:	8b 8d 20 e1 ff ff    	mov    ecx,DWORD PTR [rbp-0x1ee0]
    4956:	48 83 c1 01          	add    rcx,0x1
    495a:	48 69 d9 40 02 00 00 	imul   rbx,rcx,0x240
    4961:	48 89 c2             	mov    rdx,rax
    4964:	48 01 da             	add    rdx,rbx
    4967:	8b 8d 24 e1 ff ff    	mov    ecx,DWORD PTR [rbp-0x1edc]
    496d:	48 83 c1 01          	add    rcx,0x1
    4971:	4c 69 d9 40 02 00 00 	imul   r11,rcx,0x240
    4978:	48 89 c1             	mov    rcx,rax
    497b:	4c 01 d9             	add    rcx,r11
    497e:	4d 89 de             	mov    r14,r11
    4981:	49 29 de             	sub    r14,rbx
    4984:	45 0f b6 c9          	movzx  r9d,r9b
    4988:	45 89 ca             	mov    r10d,r9d
    498b:	4d 89 d1             	mov    r9,r10
    498e:	4d 0f af ce          	imul   r9,r14
    4992:	49 01 d9             	add    r9,rbx
    4995:	4c 29 db             	sub    rbx,r11
    4998:	4c 0f af d3          	imul   r10,rbx
    499c:	4d 01 da             	add    r10,r11
    499f:	42 c6 04 08 00       	mov    BYTE PTR [rax+r9*1],0x0
    49a4:	49 89 c1             	mov    r9,rax
    49a7:	4d 01 d1             	add    r9,r10
    49aa:	41 0f ae 39          	clflush BYTE PTR [r9]
    49ae:	45 8a 50 0d          	mov    r10b,BYTE PTR [r8+0xd]
    49b2:	41 c0 ea 04          	shr    r10b,0x4
    49b6:	41 80 e2 01          	and    r10b,0x1
    49ba:	44 88 95 73 de ff ff 	mov    BYTE PTR [rbp-0x218d],r10b
    49c1:	44 8b 85 20 e2 ff ff 	mov    r8d,DWORD PTR [rbp-0x1de0]
    49c8:	49 83 c0 01          	add    r8,0x1
    49cc:	4d 69 f0 40 02 00 00 	imul   r14,r8,0x240
    49d3:	49 89 c0             	mov    r8,rax
    49d6:	4d 01 f0             	add    r8,r14
    49d9:	44 8b 8d 24 e2 ff ff 	mov    r9d,DWORD PTR [rbp-0x1ddc]
    49e0:	49 83 c1 01          	add    r9,0x1
    49e4:	49 69 d9 40 02 00 00 	imul   rbx,r9,0x240
    49eb:	49 89 c1             	mov    r9,rax
    49ee:	49 01 d9             	add    r9,rbx
    49f1:	49 89 df             	mov    r15,rbx
    49f4:	4d 29 f7             	sub    r15,r14
    49f7:	45 0f b6 d2          	movzx  r10d,r10b
    49fb:	45 89 d3             	mov    r11d,r10d
    49fe:	4d 89 da             	mov    r10,r11
    4a01:	4d 0f af d7          	imul   r10,r15
    4a05:	4d 01 f2             	add    r10,r14
    4a08:	49 29 de             	sub    r14,rbx
    4a0b:	4d 0f af de          	imul   r11,r14
    4a0f:	49 01 db             	add    r11,rbx
    4a12:	42 c6 04 10 00       	mov    BYTE PTR [rax+r10*1],0x0
    4a17:	49 89 c2             	mov    r10,rax
    4a1a:	4d 01 da             	add    r10,r11
    4a1d:	41 0f ae 3a          	clflush BYTE PTR [r10]
    4a21:	44 8b 95 a8 e8 ff ff 	mov    r10d,DWORD PTR [rbp-0x1758]
    4a28:	49 83 c2 01          	add    r10,0x1
    4a2c:	4d 69 d2 40 02 00 00 	imul   r10,r10,0x240
    4a33:	4c 89 d3             	mov    rbx,r10
    4a36:	48 81 eb 00 01 00 00 	sub    rbx,0x100
    4a3d:	49 89 c3             	mov    r11,rax
    4a40:	4d 01 d3             	add    r11,r10
    4a43:	4c 89 9d 48 99 ff ff 	mov    QWORD PTR [rbp-0x66b8],r11
    4a4a:	49 89 c2             	mov    r10,rax
    4a4d:	49 01 da             	add    r10,rbx
    4a50:	41 0f ae 3b          	clflush BYTE PTR [r11]
    4a54:	44 8b 9d ac e8 ff ff 	mov    r11d,DWORD PTR [rbp-0x1754]
    4a5b:	49 83 c3 01          	add    r11,0x1
    4a5f:	4d 69 f3 40 02 00 00 	imul   r14,r11,0x240
    4a66:	4c 89 f3             	mov    rbx,r14
    4a69:	48 81 eb 00 01 00 00 	sub    rbx,0x100
    4a70:	49 89 c3             	mov    r11,rax
    4a73:	4d 01 f3             	add    r11,r14
    4a76:	4c 89 9d 50 99 ff ff 	mov    QWORD PTR [rbp-0x66b0],r11
    4a7d:	48 01 d8             	add    rax,rbx
    4a80:	41 0f ae 3b          	clflush BYTE PTR [r11]
    4a84:	0f ae f0             	mfence
    4a87:	48 83 ec 10          	sub    rsp,0x10
    4a8b:	4c 89 14 24          	mov    QWORD PTR [rsp],r10
    4a8f:	48 89 44 24 08       	mov    QWORD PTR [rsp+0x8],rax
    4a94:	e8 c7 4b 02 00       	call   29660 <__DualGate__3_1_53>
    4a99:	48 8b 85 88 de ff ff 	mov    rax,QWORD PTR [rbp-0x2178]
    4aa0:	4c 8b 8d b0 da ff ff 	mov    r9,QWORD PTR [rbp-0x2550]
    4aa7:	48 83 c4 10          	add    rsp,0x10
    4aab:	0f ae f0             	mfence
    4aae:	8a 48 11             	mov    cl,BYTE PTR [rax+0x11]
    4ab1:	c0 e9 04             	shr    cl,0x4
    4ab4:	80 e1 01             	and    cl,0x1
    4ab7:	88 8d ef a1 ff ff    	mov    BYTE PTR [rbp-0x5e11],cl
    4abd:	8b 95 20 e3 ff ff    	mov    edx,DWORD PTR [rbp-0x1ce0]
    4ac3:	48 83 c2 01          	add    rdx,0x1
    4ac7:	4c 69 d2 40 02 00 00 	imul   r10,rdx,0x240
    4ace:	4c 89 95 f0 a1 ff ff 	mov    QWORD PTR [rbp-0x5e10],r10
    4ad5:	4c 89 cf             	mov    rdi,r9
    4ad8:	4c 01 d7             	add    rdi,r10
    4adb:	48 89 bd 08 a2 ff ff 	mov    QWORD PTR [rbp-0x5df8],rdi
    4ae2:	8b 95 24 e3 ff ff    	mov    edx,DWORD PTR [rbp-0x1cdc]
    4ae8:	48 83 c2 01          	add    rdx,0x1
    4aec:	4c 69 c2 40 02 00 00 	imul   r8,rdx,0x240
    4af3:	4c 89 85 f8 a1 ff ff 	mov    QWORD PTR [rbp-0x5e08],r8
    4afa:	4c 89 ce             	mov    rsi,r9
    4afd:	4c 01 c6             	add    rsi,r8
    4b00:	48 89 b5 10 a2 ff ff 	mov    QWORD PTR [rbp-0x5df0],rsi
    4b07:	4d 89 c3             	mov    r11,r8
    4b0a:	4d 29 d3             	sub    r11,r10
    4b0d:	0f b6 c9             	movzx  ecx,cl
    4b10:	89 ca                	mov    edx,ecx
    4b12:	48 89 d1             	mov    rcx,rdx
    4b15:	49 0f af cb          	imul   rcx,r11
    4b19:	4c 01 d1             	add    rcx,r10
    4b1c:	4d 29 c2             	sub    r10,r8
    4b1f:	49 0f af d2          	imul   rdx,r10
    4b23:	4c 01 c2             	add    rdx,r8
    4b26:	41 c6 04 09 00       	mov    BYTE PTR [r9+rcx*1],0x0
    4b2b:	4c 89 c9             	mov    rcx,r9
    4b2e:	48 01 d1             	add    rcx,rdx
    4b31:	0f ae 39             	clflush BYTE PTR [rcx]
    4b34:	8a 00                	mov    al,BYTE PTR [rax]
    4b36:	c0 e8 07             	shr    al,0x7
    4b39:	24 01                	and    al,0x1
    4b3b:	88 85 0e de ff ff    	mov    BYTE PTR [rbp-0x21f2],al
    4b41:	8b 8d f8 de ff ff    	mov    ecx,DWORD PTR [rbp-0x2108]
    4b47:	48 83 c1 01          	add    rcx,0x1
    4b4b:	4c 69 d9 40 02 00 00 	imul   r11,rcx,0x240
    4b52:	4c 89 9d 00 a2 ff ff 	mov    QWORD PTR [rbp-0x5e00],r11
    4b59:	4c 89 ca             	mov    rdx,r9
    4b5c:	4c 01 da             	add    rdx,r11
    4b5f:	48 89 95 18 a2 ff ff 	mov    QWORD PTR [rbp-0x5de8],rdx
    4b66:	8b 8d fc de ff ff    	mov    ecx,DWORD PTR [rbp-0x2104]
    4b6c:	48 83 c1 01          	add    rcx,0x1
    4b70:	4c 69 d1 40 02 00 00 	imul   r10,rcx,0x240
    4b77:	4c 89 95 38 a2 ff ff 	mov    QWORD PTR [rbp-0x5dc8],r10
    4b7e:	4c 89 c9             	mov    rcx,r9
    4b81:	4c 01 d1             	add    rcx,r10
    4b84:	48 89 8d 30 a2 ff ff 	mov    QWORD PTR [rbp-0x5dd0],rcx
    4b8b:	4c 89 d3             	mov    rbx,r10
    4b8e:	4c 29 db             	sub    rbx,r11
    4b91:	0f b6 c0             	movzx  eax,al
    4b94:	41 89 c0             	mov    r8d,eax
    4b97:	4c 89 c0             	mov    rax,r8
    4b9a:	48 0f af c3          	imul   rax,rbx
    4b9e:	4c 01 d8             	add    rax,r11
    4ba1:	4d 29 d3             	sub    r11,r10
    4ba4:	4d 0f af c3          	imul   r8,r11
    4ba8:	4d 01 d0             	add    r8,r10
    4bab:	41 c6 04 01 00       	mov    BYTE PTR [r9+rax*1],0x0
    4bb0:	4c 89 c8             	mov    rax,r9
    4bb3:	4c 01 c0             	add    rax,r8
    4bb6:	0f ae 38             	clflush BYTE PTR [rax]
    4bb9:	8b 85 f8 e8 ff ff    	mov    eax,DWORD PTR [rbp-0x1708]
    4bbf:	48 83 c0 01          	add    rax,0x1
    4bc3:	4c 69 c0 40 02 00 00 	imul   r8,rax,0x240
    4bca:	4d 89 c2             	mov    r10,r8
    4bcd:	49 81 ea 00 01 00 00 	sub    r10,0x100
    4bd4:	4c 89 c8             	mov    rax,r9
    4bd7:	4c 01 c0             	add    rax,r8
    4bda:	48 89 85 78 99 ff ff 	mov    QWORD PTR [rbp-0x6688],rax
    4be1:	4d 89 c8             	mov    r8,r9
    4be4:	4d 01 d0             	add    r8,r10
    4be7:	0f ae 38             	clflush BYTE PTR [rax]
    4bea:	8b 85 fc e8 ff ff    	mov    eax,DWORD PTR [rbp-0x1704]
    4bf0:	48 83 c0 01          	add    rax,0x1
    4bf4:	4c 69 d8 40 02 00 00 	imul   r11,rax,0x240
    4bfb:	4d 89 da             	mov    r10,r11
    4bfe:	49 81 ea 00 01 00 00 	sub    r10,0x100
    4c05:	4c 89 c8             	mov    rax,r9
    4c08:	4c 01 d8             	add    rax,r11
    4c0b:	48 89 85 80 99 ff ff 	mov    QWORD PTR [rbp-0x6680],rax
    4c12:	4d 01 d1             	add    r9,r10
    4c15:	0f ae 38             	clflush BYTE PTR [rax]
    4c18:	0f ae f0             	mfence
    4c1b:	e8 00 52 02 00       	call   29e20 <__DualGate__2_1_1>
    4c20:	4c 8b 85 88 de ff ff 	mov    r8,QWORD PTR [rbp-0x2178]
    4c27:	48 8b 85 b0 da ff ff 	mov    rax,QWORD PTR [rbp-0x2550]
    4c2e:	0f ae f0             	mfence
    4c31:	41 8a 48 05          	mov    cl,BYTE PTR [r8+0x5]
    4c35:	c0 e9 05             	shr    cl,0x5
    4c38:	80 e1 01             	and    cl,0x1
    4c3b:	88 8d 32 de ff ff    	mov    BYTE PTR [rbp-0x21ce],cl
    4c41:	8b 95 28 e0 ff ff    	mov    edx,DWORD PTR [rbp-0x1fd8]
    4c47:	48 83 c2 01          	add    rdx,0x1
    4c4b:	4c 69 d2 40 02 00 00 	imul   r10,rdx,0x240
    4c52:	48 89 c7             	mov    rdi,rax
    4c55:	4c 01 d7             	add    rdi,r10
    4c58:	8b 95 2c e0 ff ff    	mov    edx,DWORD PTR [rbp-0x1fd4]
    4c5e:	48 83 c2 01          	add    rdx,0x1
    4c62:	4c 69 ca 40 02 00 00 	imul   r9,rdx,0x240
    4c69:	48 89 c6             	mov    rsi,rax
    4c6c:	4c 01 ce             	add    rsi,r9
    4c6f:	4d 89 cb             	mov    r11,r9
    4c72:	4d 29 d3             	sub    r11,r10
    4c75:	0f b6 c9             	movzx  ecx,cl
    4c78:	89 ca                	mov    edx,ecx
    4c7a:	48 89 d1             	mov    rcx,rdx
    4c7d:	49 0f af cb          	imul   rcx,r11
    4c81:	4c 01 d1             	add    rcx,r10
    4c84:	4d 29 ca             	sub    r10,r9
    4c87:	49 0f af d2          	imul   rdx,r10
    4c8b:	4c 01 ca             	add    rdx,r9
    4c8e:	c6 04 08 00          	mov    BYTE PTR [rax+rcx*1],0x0
    4c92:	48 89 c1             	mov    rcx,rax
    4c95:	48 01 d1             	add    rcx,rdx
    4c98:	0f ae 39             	clflush BYTE PTR [rcx]
    4c9b:	45 8a 48 09          	mov    r9b,BYTE PTR [r8+0x9]
    4c9f:	41 c0 e9 05          	shr    r9b,0x5
    4ca3:	41 80 e1 01          	and    r9b,0x1
    4ca7:	44 88 8d 54 de ff ff 	mov    BYTE PTR [rbp-0x21ac],r9b
    4cae:	8b 8d 28 e1 ff ff    	mov    ecx,DWORD PTR [rbp-0x1ed8]
    4cb4:	48 83 c1 01          	add    rcx,0x1
    4cb8:	48 69 d9 40 02 00 00 	imul   rbx,rcx,0x240
    4cbf:	48 89 c2             	mov    rdx,rax
    4cc2:	48 01 da             	add    rdx,rbx
    4cc5:	8b 8d 2c e1 ff ff    	mov    ecx,DWORD PTR [rbp-0x1ed4]
    4ccb:	48 83 c1 01          	add    rcx,0x1
    4ccf:	4c 69 d9 40 02 00 00 	imul   r11,rcx,0x240
    4cd6:	48 89 c1             	mov    rcx,rax
    4cd9:	4c 01 d9             	add    rcx,r11
    4cdc:	4d 89 de             	mov    r14,r11
    4cdf:	49 29 de             	sub    r14,rbx
    4ce2:	45 0f b6 c9          	movzx  r9d,r9b
    4ce6:	45 89 ca             	mov    r10d,r9d
    4ce9:	4d 89 d1             	mov    r9,r10
    4cec:	4d 0f af ce          	imul   r9,r14
    4cf0:	49 01 d9             	add    r9,rbx
    4cf3:	4c 29 db             	sub    rbx,r11
    4cf6:	4c 0f af d3          	imul   r10,rbx
    4cfa:	4d 01 da             	add    r10,r11
    4cfd:	42 c6 04 08 00       	mov    BYTE PTR [rax+r9*1],0x0
    4d02:	49 89 c1             	mov    r9,rax
    4d05:	4d 01 d1             	add    r9,r10
    4d08:	41 0f ae 39          	clflush BYTE PTR [r9]
    4d0c:	45 8a 50 0d          	mov    r10b,BYTE PTR [r8+0xd]
    4d10:	41 c0 ea 05          	shr    r10b,0x5
    4d14:	41 80 e2 01          	and    r10b,0x1
    4d18:	44 88 95 74 de ff ff 	mov    BYTE PTR [rbp-0x218c],r10b
    4d1f:	44 8b 85 28 e2 ff ff 	mov    r8d,DWORD PTR [rbp-0x1dd8]
    4d26:	49 83 c0 01          	add    r8,0x1
    4d2a:	4d 69 f0 40 02 00 00 	imul   r14,r8,0x240
    4d31:	49 89 c0             	mov    r8,rax
    4d34:	4d 01 f0             	add    r8,r14
    4d37:	44 8b 8d 2c e2 ff ff 	mov    r9d,DWORD PTR [rbp-0x1dd4]
    4d3e:	49 83 c1 01          	add    r9,0x1
    4d42:	49 69 d9 40 02 00 00 	imul   rbx,r9,0x240
    4d49:	49 89 c1             	mov    r9,rax
    4d4c:	49 01 d9             	add    r9,rbx
    4d4f:	49 89 df             	mov    r15,rbx
    4d52:	4d 29 f7             	sub    r15,r14
    4d55:	45 0f b6 d2          	movzx  r10d,r10b
    4d59:	45 89 d3             	mov    r11d,r10d
    4d5c:	4d 89 da             	mov    r10,r11
    4d5f:	4d 0f af d7          	imul   r10,r15
    4d63:	4d 01 f2             	add    r10,r14
    4d66:	49 29 de             	sub    r14,rbx
    4d69:	4d 0f af de          	imul   r11,r14
    4d6d:	49 01 db             	add    r11,rbx
    4d70:	42 c6 04 10 00       	mov    BYTE PTR [rax+r10*1],0x0
    4d75:	49 89 c2             	mov    r10,rax
    4d78:	4d 01 da             	add    r10,r11
    4d7b:	41 0f ae 3a          	clflush BYTE PTR [r10]
    4d7f:	44 8b 95 e0 e8 ff ff 	mov    r10d,DWORD PTR [rbp-0x1720]
    4d86:	49 83 c2 01          	add    r10,0x1
    4d8a:	4d 69 d2 40 02 00 00 	imul   r10,r10,0x240
    4d91:	4c 89 d3             	mov    rbx,r10
    4d94:	48 81 eb 00 01 00 00 	sub    rbx,0x100
    4d9b:	49 89 c3             	mov    r11,rax
    4d9e:	4d 01 d3             	add    r11,r10
    4da1:	4c 89 9d 68 99 ff ff 	mov    QWORD PTR [rbp-0x6698],r11
    4da8:	49 89 c2             	mov    r10,rax
    4dab:	49 01 da             	add    r10,rbx
    4dae:	41 0f ae 3b          	clflush BYTE PTR [r11]
    4db2:	44 8b 9d e4 e8 ff ff 	mov    r11d,DWORD PTR [rbp-0x171c]
    4db9:	49 83 c3 01          	add    r11,0x1
    4dbd:	4d 69 f3 40 02 00 00 	imul   r14,r11,0x240
    4dc4:	4c 89 f3             	mov    rbx,r14
    4dc7:	48 81 eb 00 01 00 00 	sub    rbx,0x100
    4dce:	49 89 c3             	mov    r11,rax
    4dd1:	4d 01 f3             	add    r11,r14
    4dd4:	4c 89 9d 70 99 ff ff 	mov    QWORD PTR [rbp-0x6690],r11
    4ddb:	48 01 d8             	add    rax,rbx
    4dde:	41 0f ae 3b          	clflush BYTE PTR [r11]
    4de2:	0f ae f0             	mfence
    4de5:	48 83 ec 10          	sub    rsp,0x10
    4de9:	4c 89 14 24          	mov    QWORD PTR [rsp],r10
    4ded:	48 89 44 24 08       	mov    QWORD PTR [rsp+0x8],rax
    4df2:	e8 69 48 02 00       	call   29660 <__DualGate__3_1_53>
    4df7:	48 8b 85 88 de ff ff 	mov    rax,QWORD PTR [rbp-0x2178]
    4dfe:	4c 8b 8d b0 da ff ff 	mov    r9,QWORD PTR [rbp-0x2550]
    4e05:	48 83 c4 10          	add    rsp,0x10
    4e09:	0f ae f0             	mfence
    4e0c:	8a 48 11             	mov    cl,BYTE PTR [rax+0x11]
    4e0f:	c0 e9 05             	shr    cl,0x5
    4e12:	80 e1 01             	and    cl,0x1
    4e15:	88 8d 67 a2 ff ff    	mov    BYTE PTR [rbp-0x5d99],cl
    4e1b:	8b 95 28 e3 ff ff    	mov    edx,DWORD PTR [rbp-0x1cd8]
    4e21:	48 83 c2 01          	add    rdx,0x1
    4e25:	4c 69 d2 40 02 00 00 	imul   r10,rdx,0x240
    4e2c:	4c 89 95 68 a2 ff ff 	mov    QWORD PTR [rbp-0x5d98],r10
    4e33:	4c 89 cf             	mov    rdi,r9
    4e36:	4c 01 d7             	add    rdi,r10
    4e39:	48 89 bd 80 a2 ff ff 	mov    QWORD PTR [rbp-0x5d80],rdi
    4e40:	8b 95 2c e3 ff ff    	mov    edx,DWORD PTR [rbp-0x1cd4]
    4e46:	48 83 c2 01          	add    rdx,0x1
    4e4a:	4c 69 c2 40 02 00 00 	imul   r8,rdx,0x240
    4e51:	4c 89 85 70 a2 ff ff 	mov    QWORD PTR [rbp-0x5d90],r8
    4e58:	4c 89 ce             	mov    rsi,r9
    4e5b:	4c 01 c6             	add    rsi,r8
    4e5e:	48 89 b5 88 a2 ff ff 	mov    QWORD PTR [rbp-0x5d78],rsi
    4e65:	4d 89 c3             	mov    r11,r8
    4e68:	4d 29 d3             	sub    r11,r10
    4e6b:	0f b6 c9             	movzx  ecx,cl
    4e6e:	89 ca                	mov    edx,ecx
    4e70:	48 89 d1             	mov    rcx,rdx
    4e73:	49 0f af cb          	imul   rcx,r11
    4e77:	4c 01 d1             	add    rcx,r10
    4e7a:	4d 29 c2             	sub    r10,r8
    4e7d:	49 0f af d2          	imul   rdx,r10
    4e81:	4c 01 c2             	add    rdx,r8
    4e84:	41 c6 04 09 00       	mov    BYTE PTR [r9+rcx*1],0x0
    4e89:	4c 89 c9             	mov    rcx,r9
    4e8c:	48 01 d1             	add    rcx,rdx
    4e8f:	0f ae 39             	clflush BYTE PTR [rcx]
    4e92:	8a 40 01             	mov    al,BYTE PTR [rax+0x1]
    4e95:	24 01                	and    al,0x1
    4e97:	88 85 0f de ff ff    	mov    BYTE PTR [rbp-0x21f1],al
    4e9d:	8b 8d 00 df ff ff    	mov    ecx,DWORD PTR [rbp-0x2100]
    4ea3:	48 83 c1 01          	add    rcx,0x1
    4ea7:	4c 69 d9 40 02 00 00 	imul   r11,rcx,0x240
    4eae:	4c 89 9d 78 a2 ff ff 	mov    QWORD PTR [rbp-0x5d88],r11
    4eb5:	4c 89 ca             	mov    rdx,r9
    4eb8:	4c 01 da             	add    rdx,r11
    4ebb:	48 89 95 90 a2 ff ff 	mov    QWORD PTR [rbp-0x5d70],rdx
    4ec2:	8b 8d 04 df ff ff    	mov    ecx,DWORD PTR [rbp-0x20fc]
    4ec8:	48 83 c1 01          	add    rcx,0x1
    4ecc:	4c 69 d1 40 02 00 00 	imul   r10,rcx,0x240
    4ed3:	4c 89 95 b0 a2 ff ff 	mov    QWORD PTR [rbp-0x5d50],r10
    4eda:	4c 89 c9             	mov    rcx,r9
    4edd:	4c 01 d1             	add    rcx,r10
    4ee0:	48 89 8d a8 a2 ff ff 	mov    QWORD PTR [rbp-0x5d58],rcx
    4ee7:	4c 89 d3             	mov    rbx,r10
    4eea:	4c 29 db             	sub    rbx,r11
    4eed:	0f b6 c0             	movzx  eax,al
    4ef0:	41 89 c0             	mov    r8d,eax
    4ef3:	4c 89 c0             	mov    rax,r8
    4ef6:	48 0f af c3          	imul   rax,rbx
    4efa:	4c 01 d8             	add    rax,r11
    4efd:	4d 29 d3             	sub    r11,r10
    4f00:	4d 0f af c3          	imul   r8,r11
    4f04:	4d 01 d0             	add    r8,r10
    4f07:	41 c6 04 01 00       	mov    BYTE PTR [r9+rax*1],0x0
    4f0c:	4c 89 c8             	mov    rax,r9
    4f0f:	4c 01 c0             	add    rax,r8
    4f12:	0f ae 38             	clflush BYTE PTR [rax]
    4f15:	8b 85 40 e9 ff ff    	mov    eax,DWORD PTR [rbp-0x16c0]
    4f1b:	48 83 c0 01          	add    rax,0x1
    4f1f:	4c 69 c0 40 02 00 00 	imul   r8,rax,0x240
    4f26:	4d 89 c2             	mov    r10,r8
    4f29:	49 81 ea 00 01 00 00 	sub    r10,0x100
    4f30:	4c 89 c8             	mov    rax,r9
    4f33:	4c 01 c0             	add    rax,r8
    4f36:	48 89 85 98 99 ff ff 	mov    QWORD PTR [rbp-0x6668],rax
    4f3d:	4d 89 c8             	mov    r8,r9
    4f40:	4d 01 d0             	add    r8,r10
    4f43:	0f ae 38             	clflush BYTE PTR [rax]
    4f46:	8b 85 44 e9 ff ff    	mov    eax,DWORD PTR [rbp-0x16bc]
    4f4c:	48 83 c0 01          	add    rax,0x1
    4f50:	4c 69 d8 40 02 00 00 	imul   r11,rax,0x240
    4f57:	4d 89 da             	mov    r10,r11
    4f5a:	49 81 ea 00 01 00 00 	sub    r10,0x100
    4f61:	4c 89 c8             	mov    rax,r9
    4f64:	4c 01 d8             	add    rax,r11
    4f67:	48 89 85 a0 99 ff ff 	mov    QWORD PTR [rbp-0x6660],rax
    4f6e:	4d 01 d1             	add    r9,r10
    4f71:	0f ae 38             	clflush BYTE PTR [rax]
    4f74:	0f ae f0             	mfence
    4f77:	e8 a4 4e 02 00       	call   29e20 <__DualGate__2_1_1>
    4f7c:	4c 8b 85 88 de ff ff 	mov    r8,QWORD PTR [rbp-0x2178]
    4f83:	48 8b 85 b0 da ff ff 	mov    rax,QWORD PTR [rbp-0x2550]
    4f8a:	0f ae f0             	mfence
    4f8d:	41 8a 48 05          	mov    cl,BYTE PTR [r8+0x5]
    4f91:	c0 e9 06             	shr    cl,0x6
    4f94:	80 e1 01             	and    cl,0x1
    4f97:	88 8d 33 de ff ff    	mov    BYTE PTR [rbp-0x21cd],cl
    4f9d:	8b 95 30 e0 ff ff    	mov    edx,DWORD PTR [rbp-0x1fd0]
    4fa3:	48 83 c2 01          	add    rdx,0x1
    4fa7:	4c 69 d2 40 02 00 00 	imul   r10,rdx,0x240
    4fae:	48 89 c7             	mov    rdi,rax
    4fb1:	4c 01 d7             	add    rdi,r10
    4fb4:	8b 95 34 e0 ff ff    	mov    edx,DWORD PTR [rbp-0x1fcc]
    4fba:	48 83 c2 01          	add    rdx,0x1
    4fbe:	4c 69 ca 40 02 00 00 	imul   r9,rdx,0x240
    4fc5:	48 89 c6             	mov    rsi,rax
    4fc8:	4c 01 ce             	add    rsi,r9
    4fcb:	4d 89 cb             	mov    r11,r9
    4fce:	4d 29 d3             	sub    r11,r10
    4fd1:	0f b6 c9             	movzx  ecx,cl
    4fd4:	89 ca                	mov    edx,ecx
    4fd6:	48 89 d1             	mov    rcx,rdx
    4fd9:	49 0f af cb          	imul   rcx,r11
    4fdd:	4c 01 d1             	add    rcx,r10
    4fe0:	4d 29 ca             	sub    r10,r9
    4fe3:	49 0f af d2          	imul   rdx,r10
    4fe7:	4c 01 ca             	add    rdx,r9
    4fea:	c6 04 08 00          	mov    BYTE PTR [rax+rcx*1],0x0
    4fee:	48 89 c1             	mov    rcx,rax
    4ff1:	48 01 d1             	add    rcx,rdx
    4ff4:	0f ae 39             	clflush BYTE PTR [rcx]
    4ff7:	45 8a 48 09          	mov    r9b,BYTE PTR [r8+0x9]
    4ffb:	41 c0 e9 06          	shr    r9b,0x6
    4fff:	41 80 e1 01          	and    r9b,0x1
    5003:	44 88 8d 55 de ff ff 	mov    BYTE PTR [rbp-0x21ab],r9b
    500a:	8b 8d 30 e1 ff ff    	mov    ecx,DWORD PTR [rbp-0x1ed0]
    5010:	48 83 c1 01          	add    rcx,0x1
    5014:	48 69 d9 40 02 00 00 	imul   rbx,rcx,0x240
    501b:	48 89 c2             	mov    rdx,rax
    501e:	48 01 da             	add    rdx,rbx
    5021:	8b 8d 34 e1 ff ff    	mov    ecx,DWORD PTR [rbp-0x1ecc]
    5027:	48 83 c1 01          	add    rcx,0x1
    502b:	4c 69 d9 40 02 00 00 	imul   r11,rcx,0x240
    5032:	48 89 c1             	mov    rcx,rax
    5035:	4c 01 d9             	add    rcx,r11
    5038:	4d 89 de             	mov    r14,r11
    503b:	49 29 de             	sub    r14,rbx
    503e:	45 0f b6 c9          	movzx  r9d,r9b
    5042:	45 89 ca             	mov    r10d,r9d
    5045:	4d 89 d1             	mov    r9,r10
    5048:	4d 0f af ce          	imul   r9,r14
    504c:	49 01 d9             	add    r9,rbx
    504f:	4c 29 db             	sub    rbx,r11
    5052:	4c 0f af d3          	imul   r10,rbx
    5056:	4d 01 da             	add    r10,r11
    5059:	42 c6 04 08 00       	mov    BYTE PTR [rax+r9*1],0x0
    505e:	49 89 c1             	mov    r9,rax
    5061:	4d 01 d1             	add    r9,r10
    5064:	41 0f ae 39          	clflush BYTE PTR [r9]
    5068:	45 8a 50 0d          	mov    r10b,BYTE PTR [r8+0xd]
    506c:	41 c0 ea 06          	shr    r10b,0x6
    5070:	41 80 e2 01          	and    r10b,0x1
    5074:	44 88 95 75 de ff ff 	mov    BYTE PTR [rbp-0x218b],r10b
    507b:	44 8b 85 30 e2 ff ff 	mov    r8d,DWORD PTR [rbp-0x1dd0]
    5082:	49 83 c0 01          	add    r8,0x1
    5086:	4d 69 f0 40 02 00 00 	imul   r14,r8,0x240
    508d:	49 89 c0             	mov    r8,rax
    5090:	4d 01 f0             	add    r8,r14
    5093:	44 8b 8d 34 e2 ff ff 	mov    r9d,DWORD PTR [rbp-0x1dcc]
    509a:	49 83 c1 01          	add    r9,0x1
    509e:	49 69 d9 40 02 00 00 	imul   rbx,r9,0x240
    50a5:	49 89 c1             	mov    r9,rax
    50a8:	49 01 d9             	add    r9,rbx
    50ab:	49 89 df             	mov    r15,rbx
    50ae:	4d 29 f7             	sub    r15,r14
    50b1:	45 0f b6 d2          	movzx  r10d,r10b
    50b5:	45 89 d3             	mov    r11d,r10d
    50b8:	4d 89 da             	mov    r10,r11
    50bb:	4d 0f af d7          	imul   r10,r15
    50bf:	4d 01 f2             	add    r10,r14
    50c2:	49 29 de             	sub    r14,rbx
    50c5:	4d 0f af de          	imul   r11,r14
    50c9:	49 01 db             	add    r11,rbx
    50cc:	42 c6 04 10 00       	mov    BYTE PTR [rax+r10*1],0x0
    50d1:	49 89 c2             	mov    r10,rax
    50d4:	4d 01 da             	add    r10,r11
    50d7:	41 0f ae 3a          	clflush BYTE PTR [r10]
    50db:	44 8b 95 28 e9 ff ff 	mov    r10d,DWORD PTR [rbp-0x16d8]
    50e2:	49 83 c2 01          	add    r10,0x1
    50e6:	4d 69 d2 40 02 00 00 	imul   r10,r10,0x240
    50ed:	4c 89 d3             	mov    rbx,r10
    50f0:	48 81 eb 00 01 00 00 	sub    rbx,0x100
    50f7:	49 89 c3             	mov    r11,rax
    50fa:	4d 01 d3             	add    r11,r10
    50fd:	4c 89 9d 88 99 ff ff 	mov    QWORD PTR [rbp-0x6678],r11
    5104:	49 89 c2             	mov    r10,rax
    5107:	49 01 da             	add    r10,rbx
    510a:	41 0f ae 3b          	clflush BYTE PTR [r11]
    510e:	44 8b 9d 2c e9 ff ff 	mov    r11d,DWORD PTR [rbp-0x16d4]
    5115:	49 83 c3 01          	add    r11,0x1
    5119:	4d 69 f3 40 02 00 00 	imul   r14,r11,0x240
    5120:	4c 89 f3             	mov    rbx,r14
    5123:	48 81 eb 00 01 00 00 	sub    rbx,0x100
    512a:	49 89 c3             	mov    r11,rax
    512d:	4d 01 f3             	add    r11,r14
    5130:	4c 89 9d 90 99 ff ff 	mov    QWORD PTR [rbp-0x6670],r11
    5137:	48 01 d8             	add    rax,rbx
    513a:	41 0f ae 3b          	clflush BYTE PTR [r11]
    513e:	0f ae f0             	mfence
    5141:	48 83 ec 10          	sub    rsp,0x10
    5145:	4c 89 14 24          	mov    QWORD PTR [rsp],r10
    5149:	48 89 44 24 08       	mov    QWORD PTR [rsp+0x8],rax
    514e:	e8 0d 45 02 00       	call   29660 <__DualGate__3_1_53>
    5153:	44 8b 85 94 de ff ff 	mov    r8d,DWORD PTR [rbp-0x216c]
    515a:	48 8b 8d 88 de ff ff 	mov    rcx,QWORD PTR [rbp-0x2178]
    5161:	48 8b 85 b0 da ff ff 	mov    rax,QWORD PTR [rbp-0x2550]
    5168:	48 83 c4 10          	add    rsp,0x10
    516c:	0f ae f0             	mfence
    516f:	8a 51 11             	mov    dl,BYTE PTR [rcx+0x11]
    5172:	c0 ea 07             	shr    dl,0x7
    5175:	80 e2 01             	and    dl,0x1
    5178:	88 95 7f 92 ff ff    	mov    BYTE PTR [rbp-0x6d81],dl
    517e:	8b b5 38 e3 ff ff    	mov    esi,DWORD PTR [rbp-0x1cc8]
    5184:	48 83 c6 01          	add    rsi,0x1
    5188:	4c 69 de 40 02 00 00 	imul   r11,rsi,0x240
    518f:	4c 89 9d 80 92 ff ff 	mov    QWORD PTR [rbp-0x6d80],r11
    5196:	48 89 c7             	mov    rdi,rax
    5199:	4c 01 df             	add    rdi,r11
    519c:	48 89 bd 90 92 ff ff 	mov    QWORD PTR [rbp-0x6d70],rdi
    51a3:	8b b5 3c e3 ff ff    	mov    esi,DWORD PTR [rbp-0x1cc4]
    51a9:	48 83 c6 01          	add    rsi,0x1
    51ad:	4c 69 d6 40 02 00 00 	imul   r10,rsi,0x240
    51b4:	4c 89 95 c0 92 ff ff 	mov    QWORD PTR [rbp-0x6d40],r10
    51bb:	48 89 c6             	mov    rsi,rax
    51be:	4c 01 d6             	add    rsi,r10
    51c1:	48 89 b5 98 92 ff ff 	mov    QWORD PTR [rbp-0x6d68],rsi
    51c8:	4c 89 d3             	mov    rbx,r10
    51cb:	4c 29 db             	sub    rbx,r11
    51ce:	0f b6 d2             	movzx  edx,dl
    51d1:	41 89 d1             	mov    r9d,edx
    51d4:	4c 89 ca             	mov    rdx,r9
    51d7:	48 0f af d3          	imul   rdx,rbx
    51db:	4c 01 da             	add    rdx,r11
    51de:	4d 29 d3             	sub    r11,r10
    51e1:	4d 0f af cb          	imul   r9,r11
    51e5:	4d 01 d1             	add    r9,r10
    51e8:	c6 04 10 00          	mov    BYTE PTR [rax+rdx*1],0x0
    51ec:	48 89 c2             	mov    rdx,rax
    51ef:	4c 01 ca             	add    rdx,r9
    51f2:	0f ae 3a             	clflush BYTE PTR [rdx]
    51f5:	44 8a 49 01          	mov    r9b,BYTE PTR [rcx+0x1]
    51f9:	41 c0 e9 02          	shr    r9b,0x2
    51fd:	41 80 e1 01          	and    r9b,0x1
    5201:	44 88 8d 11 de ff ff 	mov    BYTE PTR [rbp-0x21ef],r9b
    5208:	8b 8d 10 df ff ff    	mov    ecx,DWORD PTR [rbp-0x20f0]
    520e:	48 83 c1 01          	add    rcx,0x1
    5212:	48 69 d9 40 02 00 00 	imul   rbx,rcx,0x240
    5219:	48 89 9d c8 92 ff ff 	mov    QWORD PTR [rbp-0x6d38],rbx
    5220:	48 89 c2             	mov    rdx,rax
    5223:	48 01 da             	add    rdx,rbx
    5226:	48 89 95 a0 92 ff ff 	mov    QWORD PTR [rbp-0x6d60],rdx
    522d:	8b 8d 14 df ff ff    	mov    ecx,DWORD PTR [rbp-0x20ec]
    5233:	48 83 c1 01          	add    rcx,0x1
    5237:	4c 69 d9 40 02 00 00 	imul   r11,rcx,0x240
    523e:	4c 89 9d d8 92 ff ff 	mov    QWORD PTR [rbp-0x6d28],r11
    5245:	48 89 c1             	mov    rcx,rax
    5248:	4c 01 d9             	add    rcx,r11
    524b:	48 89 8d e0 92 ff ff 	mov    QWORD PTR [rbp-0x6d20],rcx
    5252:	4d 89 de             	mov    r14,r11
    5255:	49 29 de             	sub    r14,rbx
    5258:	45 0f b6 c9          	movzx  r9d,r9b
    525c:	45 89 ca             	mov    r10d,r9d
    525f:	4d 89 d1             	mov    r9,r10
    5262:	4d 0f af ce          	imul   r9,r14
    5266:	49 01 d9             	add    r9,rbx
    5269:	4c 29 db             	sub    rbx,r11
    526c:	4c 0f af d3          	imul   r10,rbx
    5270:	4d 01 da             	add    r10,r11
    5273:	42 c6 04 08 00       	mov    BYTE PTR [rax+r9*1],0x0
    5278:	49 89 c1             	mov    r9,rax
    527b:	4d 01 d1             	add    r9,r10
    527e:	41 0f ae 39          	clflush BYTE PTR [r9]
    5282:	41 c1 e8 0f          	shr    r8d,0xf
    5286:	45 88 c2             	mov    r10b,r8b
    5289:	41 80 e2 01          	and    r10b,0x1
    528d:	44 88 95 8f 92 ff ff 	mov    BYTE PTR [rbp-0x6d71],r10b
    5294:	44 8b 85 38 e4 ff ff 	mov    r8d,DWORD PTR [rbp-0x1bc8]
    529b:	49 83 c0 01          	add    r8,0x1
    529f:	4d 69 e0 40 02 00 00 	imul   r12,r8,0x240
    52a6:	49 89 c0             	mov    r8,rax
    52a9:	4d 01 e0             	add    r8,r12
    52ac:	4c 89 85 a8 92 ff ff 	mov    QWORD PTR [rbp-0x6d58],r8
    52b3:	44 8b 8d 3c e4 ff ff 	mov    r9d,DWORD PTR [rbp-0x1bc4]
    52ba:	49 83 c1 01          	add    r9,0x1
    52be:	4d 69 f1 40 02 00 00 	imul   r14,r9,0x240
    52c5:	49 89 c1             	mov    r9,rax
    52c8:	4d 01 f1             	add    r9,r14
    52cb:	4c 89 8d b0 92 ff ff 	mov    QWORD PTR [rbp-0x6d50],r9
    52d2:	4c 89 f3             	mov    rbx,r14
    52d5:	4c 29 e3             	sub    rbx,r12
    52d8:	45 0f b6 d2          	movzx  r10d,r10b
    52dc:	45 89 d3             	mov    r11d,r10d
    52df:	4d 89 da             	mov    r10,r11
    52e2:	4c 0f af d3          	imul   r10,rbx
    52e6:	4d 01 e2             	add    r10,r12
    52e9:	4c 89 e3             	mov    rbx,r12
    52ec:	4c 29 f3             	sub    rbx,r14
    52ef:	4c 0f af db          	imul   r11,rbx
    52f3:	4d 01 f3             	add    r11,r14
    52f6:	42 c6 04 10 00       	mov    BYTE PTR [rax+r10*1],0x0
    52fb:	49 89 c2             	mov    r10,rax
    52fe:	4d 01 da             	add    r10,r11
    5301:	41 0f ae 3a          	clflush BYTE PTR [r10]
    5305:	44 8b 95 78 e9 ff ff 	mov    r10d,DWORD PTR [rbp-0x1688]
    530c:	49 83 c2 01          	add    r10,0x1
    5310:	4d 69 d2 40 02 00 00 	imul   r10,r10,0x240
    5317:	4c 89 d3             	mov    rbx,r10
    531a:	48 81 eb 00 01 00 00 	sub    rbx,0x100
    5321:	49 89 c3             	mov    r11,rax
    5324:	4d 01 d3             	add    r11,r10
    5327:	4c 89 9d b8 99 ff ff 	mov    QWORD PTR [rbp-0x6648],r11
    532e:	49 89 c2             	mov    r10,rax
    5331:	49 01 da             	add    r10,rbx
    5334:	41 0f ae 3b          	clflush BYTE PTR [r11]
    5338:	44 8b 9d 7c e9 ff ff 	mov    r11d,DWORD PTR [rbp-0x1684]
    533f:	49 83 c3 01          	add    r11,0x1
    5343:	4d 69 fb 40 02 00 00 	imul   r15,r11,0x240
    534a:	4c 89 fb             	mov    rbx,r15
    534d:	48 81 eb 00 01 00 00 	sub    rbx,0x100
    5354:	49 89 c3             	mov    r11,rax
    5357:	4d 01 fb             	add    r11,r15
    535a:	4c 89 9d c0 99 ff ff 	mov    QWORD PTR [rbp-0x6640],r11
    5361:	48 01 d8             	add    rax,rbx
    5364:	41 0f ae 3b          	clflush BYTE PTR [r11]
    5368:	0f ae f0             	mfence
    536b:	48 83 ec 10          	sub    rsp,0x10
    536f:	4c 89 14 24          	mov    QWORD PTR [rsp],r10
    5373:	48 89 44 24 08       	mov    QWORD PTR [rsp+0x8],rax
    5378:	e8 53 45 02 00       	call   298d0 <__DualGate__3_1_105>
    537d:	4c 8b 85 88 de ff ff 	mov    r8,QWORD PTR [rbp-0x2178]
    5384:	48 8b 85 b0 da ff ff 	mov    rax,QWORD PTR [rbp-0x2550]
    538b:	48 83 c4 10          	add    rsp,0x10
    538f:	0f ae f0             	mfence
    5392:	41 8a 48 05          	mov    cl,BYTE PTR [r8+0x5]
    5396:	c0 e9 07             	shr    cl,0x7
    5399:	80 e1 01             	and    cl,0x1
    539c:	88 8d 34 de ff ff    	mov    BYTE PTR [rbp-0x21cc],cl
    53a2:	8b 95 38 e0 ff ff    	mov    edx,DWORD PTR [rbp-0x1fc8]
    53a8:	48 83 c2 01          	add    rdx,0x1
    53ac:	4c 69 d2 40 02 00 00 	imul   r10,rdx,0x240
    53b3:	48 89 c7             	mov    rdi,rax
    53b6:	4c 01 d7             	add    rdi,r10
    53b9:	8b 95 3c e0 ff ff    	mov    edx,DWORD PTR [rbp-0x1fc4]
    53bf:	48 83 c2 01          	add    rdx,0x1
    53c3:	4c 69 ca 40 02 00 00 	imul   r9,rdx,0x240
    53ca:	48 89 c6             	mov    rsi,rax
    53cd:	4c 01 ce             	add    rsi,r9
    53d0:	4d 89 cb             	mov    r11,r9
    53d3:	4d 29 d3             	sub    r11,r10
    53d6:	0f b6 c9             	movzx  ecx,cl
    53d9:	89 ca                	mov    edx,ecx
    53db:	48 89 d1             	mov    rcx,rdx
    53de:	49 0f af cb          	imul   rcx,r11
    53e2:	4c 01 d1             	add    rcx,r10
    53e5:	4d 29 ca             	sub    r10,r9
    53e8:	49 0f af d2          	imul   rdx,r10
    53ec:	4c 01 ca             	add    rdx,r9
    53ef:	c6 04 08 00          	mov    BYTE PTR [rax+rcx*1],0x0
    53f3:	48 89 c1             	mov    rcx,rax
    53f6:	48 01 d1             	add    rcx,rdx
    53f9:	0f ae 39             	clflush BYTE PTR [rcx]
    53fc:	45 8a 48 09          	mov    r9b,BYTE PTR [r8+0x9]
    5400:	41 c0 e9 07          	shr    r9b,0x7
    5404:	41 80 e1 01          	and    r9b,0x1
    5408:	44 88 8d 56 de ff ff 	mov    BYTE PTR [rbp-0x21aa],r9b
    540f:	8b 8d 38 e1 ff ff    	mov    ecx,DWORD PTR [rbp-0x1ec8]
    5415:	48 83 c1 01          	add    rcx,0x1
    5419:	48 69 d9 40 02 00 00 	imul   rbx,rcx,0x240
    5420:	48 89 c2             	mov    rdx,rax
    5423:	48 01 da             	add    rdx,rbx
    5426:	8b 8d 3c e1 ff ff    	mov    ecx,DWORD PTR [rbp-0x1ec4]
    542c:	48 83 c1 01          	add    rcx,0x1
    5430:	4c 69 d9 40 02 00 00 	imul   r11,rcx,0x240
    5437:	48 89 c1             	mov    rcx,rax
    543a:	4c 01 d9             	add    rcx,r11
    543d:	4d 89 df             	mov    r15,r11
    5440:	49 29 df             	sub    r15,rbx
    5443:	45 0f b6 c9          	movzx  r9d,r9b
    5447:	45 89 ca             	mov    r10d,r9d
    544a:	4d 89 d1             	mov    r9,r10
    544d:	4d 0f af cf          	imul   r9,r15
    5451:	49 01 d9             	add    r9,rbx
    5454:	4c 29 db             	sub    rbx,r11
    5457:	4c 0f af d3          	imul   r10,rbx
    545b:	4d 01 da             	add    r10,r11
    545e:	42 c6 04 08 00       	mov    BYTE PTR [rax+r9*1],0x0
    5463:	49 89 c1             	mov    r9,rax
    5466:	4d 01 d1             	add    r9,r10
    5469:	41 0f ae 39          	clflush BYTE PTR [r9]
    546d:	45 8a 50 0d          	mov    r10b,BYTE PTR [r8+0xd]
    5471:	41 c0 ea 07          	shr    r10b,0x7
    5475:	41 80 e2 01          	and    r10b,0x1
    5479:	44 88 95 76 de ff ff 	mov    BYTE PTR [rbp-0x218a],r10b
    5480:	44 8b 85 38 e2 ff ff 	mov    r8d,DWORD PTR [rbp-0x1dc8]
    5487:	49 83 c0 01          	add    r8,0x1
    548b:	4d 69 f8 40 02 00 00 	imul   r15,r8,0x240
    5492:	49 89 c0             	mov    r8,rax
    5495:	4d 01 f8             	add    r8,r15
    5498:	44 8b 8d 3c e2 ff ff 	mov    r9d,DWORD PTR [rbp-0x1dc4]
    549f:	49 83 c1 01          	add    r9,0x1
    54a3:	49 69 d9 40 02 00 00 	imul   rbx,r9,0x240
    54aa:	49 89 c1             	mov    r9,rax
    54ad:	49 01 d9             	add    r9,rbx
    54b0:	49 89 dd             	mov    r13,rbx
    54b3:	4d 29 fd             	sub    r13,r15
    54b6:	45 0f b6 d2          	movzx  r10d,r10b
    54ba:	45 89 d3             	mov    r11d,r10d
    54bd:	4d 89 da             	mov    r10,r11
    54c0:	4d 0f af d5          	imul   r10,r13
    54c4:	4d 01 fa             	add    r10,r15
    54c7:	49 29 df             	sub    r15,rbx
    54ca:	4d 0f af df          	imul   r11,r15
    54ce:	49 01 db             	add    r11,rbx
    54d1:	42 c6 04 10 00       	mov    BYTE PTR [rax+r10*1],0x0
    54d6:	49 89 c2             	mov    r10,rax
    54d9:	4d 01 da             	add    r10,r11
    54dc:	41 0f ae 3a          	clflush BYTE PTR [r10]
    54e0:	44 8b 95 70 e9 ff ff 	mov    r10d,DWORD PTR [rbp-0x1690]
    54e7:	49 83 c2 01          	add    r10,0x1
    54eb:	4d 69 d2 40 02 00 00 	imul   r10,r10,0x240
    54f2:	4c 89 d3             	mov    rbx,r10
    54f5:	48 81 eb 00 01 00 00 	sub    rbx,0x100
    54fc:	49 89 c3             	mov    r11,rax
    54ff:	4d 01 d3             	add    r11,r10
    5502:	4c 89 9d a8 99 ff ff 	mov    QWORD PTR [rbp-0x6658],r11
    5509:	49 89 c2             	mov    r10,rax
    550c:	49 01 da             	add    r10,rbx
    550f:	41 0f ae 3b          	clflush BYTE PTR [r11]
    5513:	44 8b 9d 74 e9 ff ff 	mov    r11d,DWORD PTR [rbp-0x168c]
    551a:	49 83 c3 01          	add    r11,0x1
    551e:	4d 69 fb 40 02 00 00 	imul   r15,r11,0x240
    5525:	4c 89 fb             	mov    rbx,r15
    5528:	48 81 eb 00 01 00 00 	sub    rbx,0x100
    552f:	49 89 c3             	mov    r11,rax
    5532:	4d 01 fb             	add    r11,r15
    5535:	4c 89 9d b0 99 ff ff 	mov    QWORD PTR [rbp-0x6650],r11
    553c:	48 01 d8             	add    rax,rbx
    553f:	41 0f ae 3b          	clflush BYTE PTR [r11]
    5543:	0f ae f0             	mfence
    5546:	48 83 ec 10          	sub    rsp,0x10
    554a:	4c 89 14 24          	mov    QWORD PTR [rsp],r10
    554e:	48 89 44 24 08       	mov    QWORD PTR [rsp+0x8],rax
    5553:	e8 08 41 02 00       	call   29660 <__DualGate__3_1_53>
    5558:	8b 85 94 de ff ff    	mov    eax,DWORD PTR [rbp-0x216c]
    555e:	48 8b 8d 88 de ff ff 	mov    rcx,QWORD PTR [rbp-0x2178]
    5565:	4c 8b 9d b0 da ff ff 	mov    r11,QWORD PTR [rbp-0x2550]
    556c:	48 83 c4 10          	add    rsp,0x10
    5570:	0f ae f0             	mfence
    5573:	8a 51 12             	mov    dl,BYTE PTR [rcx+0x12]
    5576:	80 e2 01             	and    dl,0x1
    5579:	88 95 f7 92 ff ff    	mov    BYTE PTR [rbp-0x6d09],dl
    557f:	8b b5 40 e3 ff ff    	mov    esi,DWORD PTR [rbp-0x1cc0]
    5585:	48 83 c6 01          	add    rsi,0x1
    5589:	4c 69 d6 40 02 00 00 	imul   r10,rsi,0x240
    5590:	4c 89 95 f8 92 ff ff 	mov    QWORD PTR [rbp-0x6d08],r10
    5597:	4c 89 df             	mov    rdi,r11
    559a:	4c 01 d7             	add    rdi,r10
    559d:	48 89 bd 08 93 ff ff 	mov    QWORD PTR [rbp-0x6cf8],rdi
    55a4:	8b b5 44 e3 ff ff    	mov    esi,DWORD PTR [rbp-0x1cbc]
    55aa:	48 83 c6 01          	add    rsi,0x1
    55ae:	4c 69 ce 40 02 00 00 	imul   r9,rsi,0x240
    55b5:	4c 89 8d 38 93 ff ff 	mov    QWORD PTR [rbp-0x6cc8],r9
    55bc:	4c 89 de             	mov    rsi,r11
    55bf:	4c 01 ce             	add    rsi,r9
    55c2:	48 89 b5 10 93 ff ff 	mov    QWORD PTR [rbp-0x6cf0],rsi
    55c9:	4c 89 cb             	mov    rbx,r9
    55cc:	4c 29 d3             	sub    rbx,r10
    55cf:	0f b6 d2             	movzx  edx,dl
    55d2:	41 89 d0             	mov    r8d,edx
    55d5:	4c 89 c2             	mov    rdx,r8
    55d8:	48 0f af d3          	imul   rdx,rbx
    55dc:	4c 01 d2             	add    rdx,r10
    55df:	4d 29 ca             	sub    r10,r9
    55e2:	4d 0f af c2          	imul   r8,r10
    55e6:	4d 01 c8             	add    r8,r9
    55e9:	41 c6 04 13 00       	mov    BYTE PTR [r11+rdx*1],0x0
    55ee:	4c 89 da             	mov    rdx,r11
    55f1:	4c 01 c2             	add    rdx,r8
    55f4:	0f ae 3a             	clflush BYTE PTR [rdx]
    55f7:	8a 49 01             	mov    cl,BYTE PTR [rcx+0x1]
    55fa:	c0 e9 03             	shr    cl,0x3
    55fd:	80 e1 01             	and    cl,0x1
    5600:	88 8d 12 de ff ff    	mov    BYTE PTR [rbp-0x21ee],cl
    5606:	8b 95 18 df ff ff    	mov    edx,DWORD PTR [rbp-0x20e8]
    560c:	48 83 c2 01          	add    rdx,0x1
    5610:	4c 69 ca 40 02 00 00 	imul   r9,rdx,0x240
    5617:	4c 89 8d 40 93 ff ff 	mov    QWORD PTR [rbp-0x6cc0],r9
    561e:	4c 89 da             	mov    rdx,r11
    5621:	4c 01 ca             	add    rdx,r9
    5624:	48 89 95 18 93 ff ff 	mov    QWORD PTR [rbp-0x6ce8],rdx
    562b:	44 8b 85 1c df ff ff 	mov    r8d,DWORD PTR [rbp-0x20e4]
    5632:	49 83 c0 01          	add    r8,0x1
    5636:	4d 69 e8 40 02 00 00 	imul   r13,r8,0x240
    563d:	4d 89 d8             	mov    r8,r11
    5640:	4d 01 e8             	add    r8,r13
    5643:	4c 89 85 30 93 ff ff 	mov    QWORD PTR [rbp-0x6cd0],r8
    564a:	4d 89 ea             	mov    r10,r13
    564d:	4d 29 ca             	sub    r10,r9
    5650:	0f b6 c9             	movzx  ecx,cl
    5653:	41 89 c8             	mov    r8d,ecx
    5656:	4c 89 c1             	mov    rcx,r8
    5659:	49 0f af ca          	imul   rcx,r10
    565d:	4c 01 c9             	add    rcx,r9
    5660:	4d 29 e9             	sub    r9,r13
    5663:	4d 0f af c1          	imul   r8,r9
    5667:	4d 01 e8             	add    r8,r13
    566a:	41 c6 04 0b 00       	mov    BYTE PTR [r11+rcx*1],0x0
    566f:	4c 89 d9             	mov    rcx,r11
    5672:	4c 01 c1             	add    rcx,r8
    5675:	0f ae 39             	clflush BYTE PTR [rcx]
    5678:	c1 e8 10             	shr    eax,0x10
    567b:	24 01                	and    al,0x1
    567d:	88 85 07 93 ff ff    	mov    BYTE PTR [rbp-0x6cf9],al
    5683:	8b 8d 40 e4 ff ff    	mov    ecx,DWORD PTR [rbp-0x1bc0]
    5689:	48 83 c1 01          	add    rcx,0x1
    568d:	4c 69 f9 40 02 00 00 	imul   r15,rcx,0x240
    5694:	4d 89 d8             	mov    r8,r11
    5697:	4d 01 f8             	add    r8,r15
    569a:	4c 89 85 20 93 ff ff 	mov    QWORD PTR [rbp-0x6ce0],r8
    56a1:	8b 8d 44 e4 ff ff    	mov    ecx,DWORD PTR [rbp-0x1bbc]
    56a7:	48 83 c1 01          	add    rcx,0x1
    56ab:	48 69 d9 40 02 00 00 	imul   rbx,rcx,0x240
    56b2:	4d 89 d9             	mov    r9,r11
    56b5:	49 01 d9             	add    r9,rbx
    56b8:	4c 89 8d 28 93 ff ff 	mov    QWORD PTR [rbp-0x6cd8],r9
    56bf:	49 89 da             	mov    r10,rbx
    56c2:	4d 29 fa             	sub    r10,r15
    56c5:	0f b6 c0             	movzx  eax,al
    56c8:	89 c1                	mov    ecx,eax
    56ca:	48 89 c8             	mov    rax,rcx
    56cd:	49 0f af c2          	imul   rax,r10
    56d1:	4c 01 f8             	add    rax,r15
    56d4:	4d 89 fa             	mov    r10,r15
    56d7:	49 29 da             	sub    r10,rbx
    56da:	49 0f af ca          	imul   rcx,r10
    56de:	48 01 d9             	add    rcx,rbx
    56e1:	41 c6 04 03 00       	mov    BYTE PTR [r11+rax*1],0x0
    56e6:	4c 89 d8             	mov    rax,r11
    56e9:	48 01 c8             	add    rax,rcx
    56ec:	0f ae 38             	clflush BYTE PTR [rax]
    56ef:	8b 85 f0 e9 ff ff    	mov    eax,DWORD PTR [rbp-0x1610]
    56f5:	48 83 c0 01          	add    rax,0x1
    56f9:	4c 69 d0 40 02 00 00 	imul   r10,rax,0x240
    5700:	4c 89 d1             	mov    rcx,r10
    5703:	48 81 e9 00 01 00 00 	sub    rcx,0x100
    570a:	4c 89 d8             	mov    rax,r11
    570d:	4c 01 d0             	add    rax,r10
    5710:	48 89 85 e8 99 ff ff 	mov    QWORD PTR [rbp-0x6618],rax
    5717:	4d 89 da             	mov    r10,r11
    571a:	49 01 ca             	add    r10,rcx
    571d:	0f ae 38             	clflush BYTE PTR [rax]
    5720:	8b 85 f4 e9 ff ff    	mov    eax,DWORD PTR [rbp-0x160c]
    5726:	48 83 c0 01          	add    rax,0x1
    572a:	48 69 c0 40 02 00 00 	imul   rax,rax,0x240
    5731:	48 89 c1             	mov    rcx,rax
    5734:	48 81 e9 00 01 00 00 	sub    rcx,0x100
    573b:	49 01 c3             	add    r11,rax
    573e:	48 8b 85 b0 da ff ff 	mov    rax,QWORD PTR [rbp-0x2550]
    5745:	4c 89 9d f0 99 ff ff 	mov    QWORD PTR [rbp-0x6610],r11
    574c:	48 01 c8             	add    rax,rcx
    574f:	48 8b 8d 30 93 ff ff 	mov    rcx,QWORD PTR [rbp-0x6cd0]
    5756:	41 0f ae 3b          	clflush BYTE PTR [r11]
    575a:	0f ae f0             	mfence
    575d:	48 83 ec 10          	sub    rsp,0x10
    5761:	4c 89 14 24          	mov    QWORD PTR [rsp],r10
    5765:	48 89 44 24 08       	mov    QWORD PTR [rsp+0x8],rax
    576a:	e8 61 41 02 00       	call   298d0 <__DualGate__3_1_105>
    576f:	44 8a 9d 7f 92 ff ff 	mov    r11b,BYTE PTR [rbp-0x6d81]
    5776:	48 8b 85 80 92 ff ff 	mov    rax,QWORD PTR [rbp-0x6d80]
    577d:	48 8b 8d c0 92 ff ff 	mov    rcx,QWORD PTR [rbp-0x6d40]
    5784:	44 8a 95 8f 92 ff ff 	mov    r10b,BYTE PTR [rbp-0x6d71]
    578b:	48 8b bd 90 92 ff ff 	mov    rdi,QWORD PTR [rbp-0x6d70]
    5792:	48 8b b5 98 92 ff ff 	mov    rsi,QWORD PTR [rbp-0x6d68]
    5799:	48 8b 95 a0 92 ff ff 	mov    rdx,QWORD PTR [rbp-0x6d60]
    57a0:	4c 8b 85 a8 92 ff ff 	mov    r8,QWORD PTR [rbp-0x6d58]
    57a7:	4c 8b 8d b0 92 ff ff 	mov    r9,QWORD PTR [rbp-0x6d50]
    57ae:	48 83 c4 10          	add    rsp,0x10
    57b2:	0f ae f0             	mfence
    57b5:	48 29 c1             	sub    rcx,rax
    57b8:	45 0f b6 db          	movzx  r11d,r11b
    57bc:	4c 89 9d b8 92 ff ff 	mov    QWORD PTR [rbp-0x6d48],r11
    57c3:	4c 0f af d9          	imul   r11,rcx
    57c7:	48 8b 8d c0 92 ff ff 	mov    rcx,QWORD PTR [rbp-0x6d40]
    57ce:	49 01 c3             	add    r11,rax
    57d1:	48 29 c8             	sub    rax,rcx
    57d4:	48 8b 8d b8 92 ff ff 	mov    rcx,QWORD PTR [rbp-0x6d48]
    57db:	48 0f af c8          	imul   rcx,rax
    57df:	48 8b 85 c0 92 ff ff 	mov    rax,QWORD PTR [rbp-0x6d40]
    57e6:	48 01 c1             	add    rcx,rax
    57e9:	48 8b 85 b0 da ff ff 	mov    rax,QWORD PTR [rbp-0x2550]
    57f0:	42 c6 04 18 00       	mov    BYTE PTR [rax+r11*1],0x0
    57f5:	4c 8b 9d c8 92 ff ff 	mov    r11,QWORD PTR [rbp-0x6d38]
    57fc:	48 01 c8             	add    rax,rcx
    57ff:	8a 8d 11 de ff ff    	mov    cl,BYTE PTR [rbp-0x21ef]
    5805:	0f ae 38             	clflush BYTE PTR [rax]
    5808:	48 8b 85 d8 92 ff ff 	mov    rax,QWORD PTR [rbp-0x6d28]
    580f:	4c 29 d8             	sub    rax,r11
    5812:	0f b6 c9             	movzx  ecx,cl
    5815:	41 89 cb             	mov    r11d,ecx
    5818:	4c 89 d9             	mov    rcx,r11
    581b:	48 0f af c8          	imul   rcx,rax
    581f:	48 8b 85 c8 92 ff ff 	mov    rax,QWORD PTR [rbp-0x6d38]
    5826:	48 01 c1             	add    rcx,rax
    5829:	48 89 8d d0 92 ff ff 	mov    QWORD PTR [rbp-0x6d30],rcx
    5830:	48 8b 8d d8 92 ff ff 	mov    rcx,QWORD PTR [rbp-0x6d28]
    5837:	48 29 c8             	sub    rax,rcx
    583a:	48 8b 8d d0 92 ff ff 	mov    rcx,QWORD PTR [rbp-0x6d30]
    5841:	4c 0f af d8          	imul   r11,rax
    5845:	48 8b 85 d8 92 ff ff 	mov    rax,QWORD PTR [rbp-0x6d28]
    584c:	49 01 c3             	add    r11,rax
    584f:	48 8b 85 b0 da ff ff 	mov    rax,QWORD PTR [rbp-0x2550]
    5856:	c6 04 08 00          	mov    BYTE PTR [rax+rcx*1],0x0
    585a:	48 8b 8d e0 92 ff ff 	mov    rcx,QWORD PTR [rbp-0x6d20]
    5861:	4c 01 d8             	add    rax,r11
    5864:	0f ae 38             	clflush BYTE PTR [rax]
    5867:	4c 89 f0             	mov    rax,r14
    586a:	4c 29 e0             	sub    rax,r12
    586d:	45 0f b6 d2          	movzx  r10d,r10b
    5871:	45 89 d3             	mov    r11d,r10d
    5874:	4d 89 da             	mov    r10,r11
    5877:	4c 0f af d0          	imul   r10,rax
    587b:	48 8b 85 b0 da ff ff 	mov    rax,QWORD PTR [rbp-0x2550]
    5882:	4d 01 e2             	add    r10,r12
    5885:	4d 29 f4             	sub    r12,r14
    5888:	4d 0f af dc          	imul   r11,r12
    588c:	4d 01 f3             	add    r11,r14
    588f:	42 c6 04 10 00       	mov    BYTE PTR [rax+r10*1],0x0
    5894:	49 89 c2             	mov    r10,rax
    5897:	4d 01 da             	add    r10,r11
    589a:	41 0f ae 3a          	clflush BYTE PTR [r10]
    589e:	44 8b 95 e8 e9 ff ff 	mov    r10d,DWORD PTR [rbp-0x1618]
    58a5:	49 83 c2 01          	add    r10,0x1
    58a9:	4d 69 d2 40 02 00 00 	imul   r10,r10,0x240
    58b0:	4d 89 d6             	mov    r14,r10
    58b3:	49 81 ee 00 01 00 00 	sub    r14,0x100
    58ba:	49 89 c3             	mov    r11,rax
    58bd:	4d 01 d3             	add    r11,r10
    58c0:	4c 89 9d d8 99 ff ff 	mov    QWORD PTR [rbp-0x6628],r11
    58c7:	49 89 c2             	mov    r10,rax
    58ca:	4d 01 f2             	add    r10,r14
    58cd:	41 0f ae 3b          	clflush BYTE PTR [r11]
    58d1:	44 8b 9d ec e9 ff ff 	mov    r11d,DWORD PTR [rbp-0x1614]
    58d8:	49 83 c3 01          	add    r11,0x1
    58dc:	4d 69 e3 40 02 00 00 	imul   r12,r11,0x240
    58e3:	4d 89 e6             	mov    r14,r12
    58e6:	49 81 ee 00 01 00 00 	sub    r14,0x100
    58ed:	49 89 c3             	mov    r11,rax
    58f0:	4d 01 e3             	add    r11,r12
    58f3:	4c 89 9d e0 99 ff ff 	mov    QWORD PTR [rbp-0x6620],r11
    58fa:	4c 01 f0             	add    rax,r14
    58fd:	41 0f ae 3b          	clflush BYTE PTR [r11]
    5901:	0f ae f0             	mfence
    5904:	48 83 ec 10          	sub    rsp,0x10
    5908:	4c 89 14 24          	mov    QWORD PTR [rsp],r10
    590c:	48 89 44 24 08       	mov    QWORD PTR [rsp+0x8],rax
    5911:	e8 7a 42 02 00       	call   29b90 <__DualGate__3_1_23>
    5916:	48 8b 85 88 de ff ff 	mov    rax,QWORD PTR [rbp-0x2178]
    591d:	4c 8b 8d b0 da ff ff 	mov    r9,QWORD PTR [rbp-0x2550]
    5924:	48 83 c4 10          	add    rsp,0x10
    5928:	0f ae f0             	mfence
    592b:	8a 48 06             	mov    cl,BYTE PTR [rax+0x6]
    592e:	80 e1 01             	and    cl,0x1
    5931:	88 8d 35 de ff ff    	mov    BYTE PTR [rbp-0x21cb],cl
    5937:	8b 95 40 e0 ff ff    	mov    edx,DWORD PTR [rbp-0x1fc0]
    593d:	48 83 c2 01          	add    rdx,0x1
    5941:	4c 69 d2 40 02 00 00 	imul   r10,rdx,0x240
    5948:	4c 89 cf             	mov    rdi,r9
    594b:	4c 01 d7             	add    rdi,r10
    594e:	8b 95 44 e0 ff ff    	mov    edx,DWORD PTR [rbp-0x1fbc]
    5954:	48 83 c2 01          	add    rdx,0x1
    5958:	4c 69 c2 40 02 00 00 	imul   r8,rdx,0x240
    595f:	4c 89 ce             	mov    rsi,r9
    5962:	4c 01 c6             	add    rsi,r8
    5965:	4d 89 c3             	mov    r11,r8
    5968:	4d 29 d3             	sub    r11,r10
    596b:	0f b6 c9             	movzx  ecx,cl
    596e:	89 ca                	mov    edx,ecx
    5970:	48 89 d1             	mov    rcx,rdx
    5973:	49 0f af cb          	imul   rcx,r11
    5977:	4c 01 d1             	add    rcx,r10
    597a:	4d 29 c2             	sub    r10,r8
    597d:	49 0f af d2          	imul   rdx,r10
    5981:	4c 01 c2             	add    rdx,r8
    5984:	41 c6 04 09 00       	mov    BYTE PTR [r9+rcx*1],0x0
    5989:	4c 89 c9             	mov    rcx,r9
    598c:	48 01 d1             	add    rcx,rdx
    598f:	0f ae 39             	clflush BYTE PTR [rcx]
    5992:	8a 48 0a             	mov    cl,BYTE PTR [rax+0xa]
    5995:	80 e1 01             	and    cl,0x1
    5998:	88 8d 57 de ff ff    	mov    BYTE PTR [rbp-0x21a9],cl
    599e:	8b 95 40 e1 ff ff    	mov    edx,DWORD PTR [rbp-0x1ec0]
    59a4:	48 83 c2 01          	add    rdx,0x1
    59a8:	4c 69 da 40 02 00 00 	imul   r11,rdx,0x240
    59af:	4c 89 ca             	mov    rdx,r9
    59b2:	4c 01 da             	add    rdx,r11
    59b5:	44 8b 85 44 e1 ff ff 	mov    r8d,DWORD PTR [rbp-0x1ebc]
    59bc:	49 83 c0 01          	add    r8,0x1
    59c0:	4d 69 d0 40 02 00 00 	imul   r10,r8,0x240
    59c7:	4d 89 c8             	mov    r8,r9
    59ca:	4d 01 d0             	add    r8,r10
    59cd:	4c 89 85 e8 92 ff ff 	mov    QWORD PTR [rbp-0x6d18],r8
    59d4:	4d 89 d6             	mov    r14,r10
    59d7:	4d 29 de             	sub    r14,r11
    59da:	0f b6 c9             	movzx  ecx,cl
    59dd:	41 89 c8             	mov    r8d,ecx
    59e0:	4c 89 c1             	mov    rcx,r8
    59e3:	49 0f af ce          	imul   rcx,r14
    59e7:	4c 01 d9             	add    rcx,r11
    59ea:	4d 29 d3             	sub    r11,r10
    59ed:	4d 0f af c3          	imul   r8,r11
    59f1:	4d 01 d0             	add    r8,r10
    59f4:	41 c6 04 09 00       	mov    BYTE PTR [r9+rcx*1],0x0
    59f9:	4c 89 c9             	mov    rcx,r9
    59fc:	4c 01 c1             	add    rcx,r8
    59ff:	0f ae 39             	clflush BYTE PTR [rcx]
    5a02:	44 8a 70 0e          	mov    r14b,BYTE PTR [rax+0xe]
    5a06:	41 80 e6 01          	and    r14b,0x1
    5a0a:	8b 85 40 e2 ff ff    	mov    eax,DWORD PTR [rbp-0x1dc0]
    5a10:	48 83 c0 01          	add    rax,0x1
    5a14:	4c 69 d8 40 02 00 00 	imul   r11,rax,0x240
    5a1b:	4d 89 c8             	mov    r8,r9
    5a1e:	4d 01 d8             	add    r8,r11
    5a21:	8b 85 44 e2 ff ff    	mov    eax,DWORD PTR [rbp-0x1dbc]
    5a27:	48 83 c0 01          	add    rax,0x1
    5a2b:	4c 69 e0 40 02 00 00 	imul   r12,rax,0x240
    5a32:	4d 01 e1             	add    r9,r12
    5a35:	4c 89 e1             	mov    rcx,r12
    5a38:	4c 29 d9             	sub    rcx,r11
    5a3b:	41 0f b6 c6          	movzx  eax,r14b
    5a3f:	41 89 c2             	mov    r10d,eax
    5a42:	4c 89 d0             	mov    rax,r10
    5a45:	48 0f af c1          	imul   rax,rcx
    5a49:	48 8b 8d e8 92 ff ff 	mov    rcx,QWORD PTR [rbp-0x6d18]
    5a50:	4c 01 d8             	add    rax,r11
    5a53:	4d 29 e3             	sub    r11,r12
    5a56:	4d 0f af d3          	imul   r10,r11
    5a5a:	4c 8b 9d b0 da ff ff 	mov    r11,QWORD PTR [rbp-0x2550]
    5a61:	4d 01 e2             	add    r10,r12
    5a64:	41 c6 04 03 00       	mov    BYTE PTR [r11+rax*1],0x0
    5a69:	4c 89 d8             	mov    rax,r11
    5a6c:	4c 01 d0             	add    rax,r10
    5a6f:	0f ae 38             	clflush BYTE PTR [rax]
    5a72:	8b 85 e0 e9 ff ff    	mov    eax,DWORD PTR [rbp-0x1620]
    5a78:	48 83 c0 01          	add    rax,0x1
    5a7c:	4c 69 d0 40 02 00 00 	imul   r10,rax,0x240
    5a83:	4d 89 d4             	mov    r12,r10
    5a86:	49 81 ec 00 01 00 00 	sub    r12,0x100
    5a8d:	4c 89 d8             	mov    rax,r11
    5a90:	4c 01 d0             	add    rax,r10
    5a93:	48 89 85 c8 99 ff ff 	mov    QWORD PTR [rbp-0x6638],rax
    5a9a:	4d 89 da             	mov    r10,r11
    5a9d:	4d 01 e2             	add    r10,r12
    5aa0:	0f ae 38             	clflush BYTE PTR [rax]
    5aa3:	8b 85 e4 e9 ff ff    	mov    eax,DWORD PTR [rbp-0x161c]
    5aa9:	48 83 c0 01          	add    rax,0x1
    5aad:	48 69 c0 40 02 00 00 	imul   rax,rax,0x240
    5ab4:	49 89 c4             	mov    r12,rax
    5ab7:	49 81 ec 00 01 00 00 	sub    r12,0x100
    5abe:	49 01 c3             	add    r11,rax
    5ac1:	48 8b 85 b0 da ff ff 	mov    rax,QWORD PTR [rbp-0x2550]
    5ac8:	4c 89 9d d0 99 ff ff 	mov    QWORD PTR [rbp-0x6630],r11
    5acf:	4c 01 e0             	add    rax,r12
    5ad2:	41 0f ae 3b          	clflush BYTE PTR [r11]
    5ad6:	0f ae f0             	mfence
    5ad9:	48 83 ec 10          	sub    rsp,0x10
    5add:	4c 89 14 24          	mov    QWORD PTR [rsp],r10
    5ae1:	48 89 44 24 08       	mov    QWORD PTR [rsp+0x8],rax
    5ae6:	e8 75 3b 02 00       	call   29660 <__DualGate__3_1_53>
    5aeb:	44 8a 9d f7 92 ff ff 	mov    r11b,BYTE PTR [rbp-0x6d09]
    5af2:	48 8b 85 f8 92 ff ff 	mov    rax,QWORD PTR [rbp-0x6d08]
    5af9:	48 8b 8d 38 93 ff ff 	mov    rcx,QWORD PTR [rbp-0x6cc8]
    5b00:	44 8a 95 07 93 ff ff 	mov    r10b,BYTE PTR [rbp-0x6cf9]
    5b07:	48 8b bd 08 93 ff ff 	mov    rdi,QWORD PTR [rbp-0x6cf8]
    5b0e:	48 8b b5 10 93 ff ff 	mov    rsi,QWORD PTR [rbp-0x6cf0]
    5b15:	48 8b 95 18 93 ff ff 	mov    rdx,QWORD PTR [rbp-0x6ce8]
    5b1c:	4c 8b 85 20 93 ff ff 	mov    r8,QWORD PTR [rbp-0x6ce0]
    5b23:	4c 8b 8d 28 93 ff ff 	mov    r9,QWORD PTR [rbp-0x6cd8]
    5b2a:	48 83 c4 10          	add    rsp,0x10
    5b2e:	0f ae f0             	mfence
    5b31:	48 29 c1             	sub    rcx,rax
    5b34:	45 0f b6 db          	movzx  r11d,r11b
    5b38:	4d 89 dc             	mov    r12,r11
    5b3b:	4c 0f af e1          	imul   r12,rcx
    5b3f:	48 8b 8d 38 93 ff ff 	mov    rcx,QWORD PTR [rbp-0x6cc8]
    5b46:	49 01 c4             	add    r12,rax
    5b49:	48 29 c8             	sub    rax,rcx
    5b4c:	48 8b 8d 30 93 ff ff 	mov    rcx,QWORD PTR [rbp-0x6cd0]
    5b53:	4c 0f af d8          	imul   r11,rax
    5b57:	48 8b 85 38 93 ff ff 	mov    rax,QWORD PTR [rbp-0x6cc8]
    5b5e:	49 01 c3             	add    r11,rax
    5b61:	48 8b 85 b0 da ff ff 	mov    rax,QWORD PTR [rbp-0x2550]
    5b68:	42 c6 04 20 00       	mov    BYTE PTR [rax+r12*1],0x0
    5b6d:	4c 8b a5 40 93 ff ff 	mov    r12,QWORD PTR [rbp-0x6cc0]
    5b74:	4c 01 d8             	add    rax,r11
    5b77:	44 8a 9d 12 de ff ff 	mov    r11b,BYTE PTR [rbp-0x21ee]
    5b7e:	0f ae 38             	clflush BYTE PTR [rax]
    5b81:	4c 89 e8             	mov    rax,r13
    5b84:	4c 29 e0             	sub    rax,r12
    5b87:	45 0f b6 db          	movzx  r11d,r11b
    5b8b:	45 89 dc             	mov    r12d,r11d
    5b8e:	4d 89 e3             	mov    r11,r12
    5b91:	4c 0f af d8          	imul   r11,rax
    5b95:	48 8b 85 40 93 ff ff 	mov    rax,QWORD PTR [rbp-0x6cc0]
    5b9c:	49 01 c3             	add    r11,rax
    5b9f:	4c 29 e8             	sub    rax,r13
    5ba2:	4c 0f af e0          	imul   r12,rax
    5ba6:	48 8b 85 b0 da ff ff 	mov    rax,QWORD PTR [rbp-0x2550]
    5bad:	4d 01 ec             	add    r12,r13
    5bb0:	42 c6 04 18 00       	mov    BYTE PTR [rax+r11*1],0x0
    5bb5:	49 89 c3             	mov    r11,rax
    5bb8:	4d 01 e3             	add    r11,r12
    5bbb:	41 0f ae 3b          	clflush BYTE PTR [r11]
    5bbf:	49 89 dc             	mov    r12,rbx
    5bc2:	4d 29 fc             	sub    r12,r15
    5bc5:	45 0f b6 d2          	movzx  r10d,r10b
    5bc9:	45 89 d3             	mov    r11d,r10d
    5bcc:	4d 89 da             	mov    r10,r11
    5bcf:	4d 0f af d4          	imul   r10,r12
    5bd3:	4d 01 fa             	add    r10,r15
    5bd6:	49 29 df             	sub    r15,rbx
    5bd9:	4d 0f af df          	imul   r11,r15
    5bdd:	49 01 db             	add    r11,rbx
    5be0:	42 c6 04 10 00       	mov    BYTE PTR [rax+r10*1],0x0
    5be5:	49 89 c2             	mov    r10,rax
    5be8:	4d 01 da             	add    r10,r11
    5beb:	41 0f ae 3a          	clflush BYTE PTR [r10]
    5bef:	44 8b 95 20 ea ff ff 	mov    r10d,DWORD PTR [rbp-0x15e0]
    5bf6:	49 83 c2 01          	add    r10,0x1
    5bfa:	4d 69 d2 40 02 00 00 	imul   r10,r10,0x240
    5c01:	4c 89 d3             	mov    rbx,r10
    5c04:	48 81 eb 00 01 00 00 	sub    rbx,0x100
    5c0b:	49 89 c3             	mov    r11,rax
    5c0e:	4d 01 d3             	add    r11,r10
    5c11:	4c 89 9d 08 9a ff ff 	mov    QWORD PTR [rbp-0x65f8],r11
    5c18:	49 89 c2             	mov    r10,rax
    5c1b:	49 01 da             	add    r10,rbx
    5c1e:	41 0f ae 3b          	clflush BYTE PTR [r11]
    5c22:	44 8b 9d 24 ea ff ff 	mov    r11d,DWORD PTR [rbp-0x15dc]
    5c29:	49 83 c3 01          	add    r11,0x1
    5c2d:	4d 69 fb 40 02 00 00 	imul   r15,r11,0x240
    5c34:	4c 89 fb             	mov    rbx,r15
    5c37:	48 81 eb 00 01 00 00 	sub    rbx,0x100
    5c3e:	49 89 c3             	mov    r11,rax
    5c41:	4d 01 fb             	add    r11,r15
    5c44:	4c 89 9d 10 9a ff ff 	mov    QWORD PTR [rbp-0x65f0],r11
    5c4b:	48 01 d8             	add    rax,rbx
    5c4e:	41 0f ae 3b          	clflush BYTE PTR [r11]
    5c52:	0f ae f0             	mfence
    5c55:	48 83 ec 10          	sub    rsp,0x10
    5c59:	4c 89 14 24          	mov    QWORD PTR [rsp],r10
    5c5d:	48 89 44 24 08       	mov    QWORD PTR [rsp+0x8],rax
    5c62:	e8 29 3f 02 00       	call   29b90 <__DualGate__3_1_23>
    5c67:	4c 8b 85 88 de ff ff 	mov    r8,QWORD PTR [rbp-0x2178]
    5c6e:	48 8b 85 b0 da ff ff 	mov    rax,QWORD PTR [rbp-0x2550]
    5c75:	48 83 c4 10          	add    rsp,0x10
    5c79:	0f ae f0             	mfence
    5c7c:	41 8a 48 06          	mov    cl,BYTE PTR [r8+0x6]
    5c80:	d0 e9                	shr    cl,1
    5c82:	80 e1 01             	and    cl,0x1
    5c85:	88 8d 36 de ff ff    	mov    BYTE PTR [rbp-0x21ca],cl
    5c8b:	8b 95 48 e0 ff ff    	mov    edx,DWORD PTR [rbp-0x1fb8]
    5c91:	48 83 c2 01          	add    rdx,0x1
    5c95:	4c 69 d2 40 02 00 00 	imul   r10,rdx,0x240
    5c9c:	48 89 c7             	mov    rdi,rax
    5c9f:	4c 01 d7             	add    rdi,r10
    5ca2:	8b 95 4c e0 ff ff    	mov    edx,DWORD PTR [rbp-0x1fb4]
    5ca8:	48 83 c2 01          	add    rdx,0x1
    5cac:	4c 69 ca 40 02 00 00 	imul   r9,rdx,0x240
    5cb3:	48 89 c6             	mov    rsi,rax
    5cb6:	4c 01 ce             	add    rsi,r9
    5cb9:	4d 89 cb             	mov    r11,r9
    5cbc:	4d 29 d3             	sub    r11,r10
    5cbf:	0f b6 c9             	movzx  ecx,cl
    5cc2:	89 ca                	mov    edx,ecx
    5cc4:	48 89 d1             	mov    rcx,rdx
    5cc7:	49 0f af cb          	imul   rcx,r11
    5ccb:	4c 01 d1             	add    rcx,r10
    5cce:	4d 29 ca             	sub    r10,r9
    5cd1:	49 0f af d2          	imul   rdx,r10
    5cd5:	4c 01 ca             	add    rdx,r9
    5cd8:	c6 04 08 00          	mov    BYTE PTR [rax+rcx*1],0x0
    5cdc:	48 89 c1             	mov    rcx,rax
    5cdf:	48 01 d1             	add    rcx,rdx
    5ce2:	0f ae 39             	clflush BYTE PTR [rcx]
    5ce5:	45 8a 48 0a          	mov    r9b,BYTE PTR [r8+0xa]
    5ce9:	41 d0 e9             	shr    r9b,1
    5cec:	41 80 e1 01          	and    r9b,0x1
    5cf0:	44 88 8d 58 de ff ff 	mov    BYTE PTR [rbp-0x21a8],r9b
    5cf7:	8b 8d 48 e1 ff ff    	mov    ecx,DWORD PTR [rbp-0x1eb8]
    5cfd:	48 83 c1 01          	add    rcx,0x1
    5d01:	48 69 d9 40 02 00 00 	imul   rbx,rcx,0x240
    5d08:	48 89 c2             	mov    rdx,rax
    5d0b:	48 01 da             	add    rdx,rbx
    5d0e:	8b 8d 4c e1 ff ff    	mov    ecx,DWORD PTR [rbp-0x1eb4]
    5d14:	48 83 c1 01          	add    rcx,0x1
    5d18:	4c 69 d9 40 02 00 00 	imul   r11,rcx,0x240
    5d1f:	48 89 c1             	mov    rcx,rax
    5d22:	4c 01 d9             	add    rcx,r11
    5d25:	4d 89 df             	mov    r15,r11
    5d28:	49 29 df             	sub    r15,rbx
    5d2b:	45 0f b6 c9          	movzx  r9d,r9b
    5d2f:	45 89 ca             	mov    r10d,r9d
    5d32:	4d 89 d1             	mov    r9,r10
    5d35:	4d 0f af cf          	imul   r9,r15
    5d39:	49 01 d9             	add    r9,rbx
    5d3c:	4c 29 db             	sub    rbx,r11
    5d3f:	4c 0f af d3          	imul   r10,rbx
    5d43:	4d 01 da             	add    r10,r11
    5d46:	42 c6 04 08 00       	mov    BYTE PTR [rax+r9*1],0x0
    5d4b:	49 89 c1             	mov    r9,rax
    5d4e:	4d 01 d1             	add    r9,r10
    5d51:	41 0f ae 39          	clflush BYTE PTR [r9]
    5d55:	45 8a 50 0e          	mov    r10b,BYTE PTR [r8+0xe]
    5d59:	41 d0 ea             	shr    r10b,1
    5d5c:	41 80 e2 01          	and    r10b,0x1
    5d60:	44 88 95 78 de ff ff 	mov    BYTE PTR [rbp-0x2188],r10b
    5d67:	44 8b 85 48 e2 ff ff 	mov    r8d,DWORD PTR [rbp-0x1db8]
    5d6e:	49 83 c0 01          	add    r8,0x1
    5d72:	4d 69 f8 40 02 00 00 	imul   r15,r8,0x240
    5d79:	49 89 c0             	mov    r8,rax
    5d7c:	4d 01 f8             	add    r8,r15
    5d7f:	44 8b 8d 4c e2 ff ff 	mov    r9d,DWORD PTR [rbp-0x1db4]
    5d86:	49 83 c1 01          	add    r9,0x1
    5d8a:	49 69 d9 40 02 00 00 	imul   rbx,r9,0x240
    5d91:	49 89 c1             	mov    r9,rax
    5d94:	49 01 d9             	add    r9,rbx
    5d97:	49 89 dc             	mov    r12,rbx
    5d9a:	4d 29 fc             	sub    r12,r15
    5d9d:	45 0f b6 d2          	movzx  r10d,r10b
    5da1:	45 89 d3             	mov    r11d,r10d
    5da4:	4d 89 da             	mov    r10,r11
    5da7:	4d 0f af d4          	imul   r10,r12
    5dab:	4d 01 fa             	add    r10,r15
    5dae:	49 29 df             	sub    r15,rbx
    5db1:	4d 0f af df          	imul   r11,r15
    5db5:	49 01 db             	add    r11,rbx
    5db8:	42 c6 04 10 00       	mov    BYTE PTR [rax+r10*1],0x0
    5dbd:	49 89 c2             	mov    r10,rax
    5dc0:	4d 01 da             	add    r10,r11
    5dc3:	41 0f ae 3a          	clflush BYTE PTR [r10]
    5dc7:	44 8b 95 08 ea ff ff 	mov    r10d,DWORD PTR [rbp-0x15f8]
    5dce:	49 83 c2 01          	add    r10,0x1
    5dd2:	4d 69 d2 40 02 00 00 	imul   r10,r10,0x240
    5dd9:	4c 89 d3             	mov    rbx,r10
    5ddc:	48 81 eb 00 01 00 00 	sub    rbx,0x100
    5de3:	49 89 c3             	mov    r11,rax
    5de6:	4d 01 d3             	add    r11,r10
    5de9:	4c 89 9d f8 99 ff ff 	mov    QWORD PTR [rbp-0x6608],r11
    5df0:	49 89 c2             	mov    r10,rax
    5df3:	49 01 da             	add    r10,rbx
    5df6:	41 0f ae 3b          	clflush BYTE PTR [r11]
    5dfa:	44 8b 9d 0c ea ff ff 	mov    r11d,DWORD PTR [rbp-0x15f4]
    5e01:	49 83 c3 01          	add    r11,0x1
    5e05:	4d 69 fb 40 02 00 00 	imul   r15,r11,0x240
    5e0c:	4c 89 fb             	mov    rbx,r15
    5e0f:	48 81 eb 00 01 00 00 	sub    rbx,0x100
    5e16:	49 89 c3             	mov    r11,rax
    5e19:	4d 01 fb             	add    r11,r15
    5e1c:	4c 89 9d 00 9a ff ff 	mov    QWORD PTR [rbp-0x6600],r11
    5e23:	48 01 d8             	add    rax,rbx
    5e26:	41 0f ae 3b          	clflush BYTE PTR [r11]
    5e2a:	0f ae f0             	mfence
    5e2d:	48 83 ec 10          	sub    rsp,0x10
    5e31:	4c 89 14 24          	mov    QWORD PTR [rsp],r10
    5e35:	48 89 44 24 08       	mov    QWORD PTR [rsp+0x8],rax
    5e3a:	e8 21 38 02 00       	call   29660 <__DualGate__3_1_53>
    5e3f:	8b 85 94 de ff ff    	mov    eax,DWORD PTR [rbp-0x216c]
    5e45:	48 8b 8d 88 de ff ff 	mov    rcx,QWORD PTR [rbp-0x2178]
    5e4c:	4c 8b 9d b0 da ff ff 	mov    r11,QWORD PTR [rbp-0x2550]
    5e53:	48 83 c4 10          	add    rsp,0x10
    5e57:	0f ae f0             	mfence
    5e5a:	8a 51 12             	mov    dl,BYTE PTR [rcx+0x12]
    5e5d:	c0 ea 02             	shr    dl,0x2
    5e60:	80 e2 01             	and    dl,0x1
    5e63:	88 95 56 93 ff ff    	mov    BYTE PTR [rbp-0x6caa],dl
    5e69:	8b b5 50 e3 ff ff    	mov    esi,DWORD PTR [rbp-0x1cb0]
    5e6f:	48 83 c6 01          	add    rsi,0x1
    5e73:	4c 69 ce 40 02 00 00 	imul   r9,rsi,0x240
    5e7a:	4c 89 8d 80 93 ff ff 	mov    QWORD PTR [rbp-0x6c80],r9
    5e81:	4c 89 df             	mov    rdi,r11
    5e84:	4c 01 cf             	add    rdi,r9
    5e87:	48 89 bd 58 93 ff ff 	mov    QWORD PTR [rbp-0x6ca8],rdi
    5e8e:	8b b5 54 e3 ff ff    	mov    esi,DWORD PTR [rbp-0x1cac]
    5e94:	48 83 c6 01          	add    rsi,0x1
    5e98:	4c 69 ee 40 02 00 00 	imul   r13,rsi,0x240
    5e9f:	4c 89 de             	mov    rsi,r11
    5ea2:	4c 01 ee             	add    rsi,r13
    5ea5:	48 89 b5 60 93 ff ff 	mov    QWORD PTR [rbp-0x6ca0],rsi
    5eac:	4d 89 ea             	mov    r10,r13
    5eaf:	4d 29 ca             	sub    r10,r9
    5eb2:	0f b6 d2             	movzx  edx,dl
    5eb5:	41 89 d0             	mov    r8d,edx
    5eb8:	4c 89 c2             	mov    rdx,r8
    5ebb:	49 0f af d2          	imul   rdx,r10
    5ebf:	4c 01 ca             	add    rdx,r9
    5ec2:	4d 29 e9             	sub    r9,r13
    5ec5:	4d 0f af c1          	imul   r8,r9
    5ec9:	4d 01 e8             	add    r8,r13
    5ecc:	41 c6 04 13 00       	mov    BYTE PTR [r11+rdx*1],0x0
    5ed1:	4c 89 da             	mov    rdx,r11
    5ed4:	4c 01 c2             	add    rdx,r8
    5ed7:	0f ae 3a             	clflush BYTE PTR [rdx]
    5eda:	44 8a 41 01          	mov    r8b,BYTE PTR [rcx+0x1]
    5ede:	41 c0 e8 05          	shr    r8b,0x5
    5ee2:	41 80 e0 01          	and    r8b,0x1
    5ee6:	44 88 85 14 de ff ff 	mov    BYTE PTR [rbp-0x21ec],r8b
    5eed:	8b 8d 28 df ff ff    	mov    ecx,DWORD PTR [rbp-0x20d8]
    5ef3:	48 83 c1 01          	add    rcx,0x1
    5ef7:	48 69 d9 40 02 00 00 	imul   rbx,rcx,0x240
    5efe:	48 89 9d 88 93 ff ff 	mov    QWORD PTR [rbp-0x6c78],rbx
