
gate_xor3.elf:     file format elf64-x86-64


Disassembly of section .init:

0000000000001000 <_init>:
    1000:	f3 0f 1e fa          	endbr64
    1004:	48 83 ec 08          	sub    rsp,0x8
    1008:	48 8b 05 c9 5f 00 00 	mov    rax,QWORD PTR [rip+0x5fc9]        # 6fd8 <__gmon_start__@Base>
    100f:	48 85 c0             	test   rax,rax
    1012:	74 02                	je     1016 <_init+0x16>
    1014:	ff d0                	call   rax
    1016:	48 83 c4 08          	add    rsp,0x8
    101a:	c3                   	ret

Disassembly of section .plt:

0000000000001020 <printf@plt-0x10>:
    1020:	ff 35 ca 5f 00 00    	push   QWORD PTR [rip+0x5fca]        # 6ff0 <_GLOBAL_OFFSET_TABLE_+0x8>
    1026:	ff 25 cc 5f 00 00    	jmp    QWORD PTR [rip+0x5fcc]        # 6ff8 <_GLOBAL_OFFSET_TABLE_+0x10>
    102c:	0f 1f 40 00          	nop    DWORD PTR [rax+0x0]

0000000000001030 <printf@plt>:
    1030:	ff 25 ca 5f 00 00    	jmp    QWORD PTR [rip+0x5fca]        # 7000 <printf@GLIBC_2.2.5>
    1036:	68 00 00 00 00       	push   0x0
    103b:	e9 e0 ff ff ff       	jmp    1020 <_init+0x20>

0000000000001040 <argp_parse@plt>:
    1040:	ff 25 c2 5f 00 00    	jmp    QWORD PTR [rip+0x5fc2]        # 7008 <argp_parse@GLIBC_2.2.5>
    1046:	68 01 00 00 00       	push   0x1
    104b:	e9 d0 ff ff ff       	jmp    1020 <_init+0x20>

0000000000001050 <rand@plt>:
    1050:	ff 25 ba 5f 00 00    	jmp    QWORD PTR [rip+0x5fba]        # 7010 <rand@GLIBC_2.2.5>
    1056:	68 02 00 00 00       	push   0x2
    105b:	e9 c0 ff ff ff       	jmp    1020 <_init+0x20>

0000000000001060 <clock_gettime@plt>:
    1060:	ff 25 b2 5f 00 00    	jmp    QWORD PTR [rip+0x5fb2]        # 7018 <clock_gettime@GLIBC_2.17>
    1066:	68 03 00 00 00       	push   0x3
    106b:	e9 b0 ff ff ff       	jmp    1020 <_init+0x20>

0000000000001070 <atoi@plt>:
    1070:	ff 25 aa 5f 00 00    	jmp    QWORD PTR [rip+0x5faa]        # 7020 <atoi@GLIBC_2.2.5>
    1076:	68 04 00 00 00       	push   0x4
    107b:	e9 a0 ff ff ff       	jmp    1020 <_init+0x20>

Disassembly of section .plt.got:

0000000000001080 <__cxa_finalize@plt>:
    1080:	ff 25 3a 5f 00 00    	jmp    QWORD PTR [rip+0x5f3a]        # 6fc0 <__cxa_finalize@GLIBC_2.2.5>
    1086:	66 90                	xchg   ax,ax

Disassembly of section .text:

0000000000001090 <_start>:
    1090:	f3 0f 1e fa          	endbr64
    1094:	31 ed                	xor    ebp,ebp
    1096:	49 89 d1             	mov    r9,rdx
    1099:	5e                   	pop    rsi
    109a:	48 89 e2             	mov    rdx,rsp
    109d:	48 83 e4 f0          	and    rsp,0xfffffffffffffff0
    10a1:	50                   	push   rax
    10a2:	54                   	push   rsp
    10a3:	45 31 c0             	xor    r8d,r8d
    10a6:	31 c9                	xor    ecx,ecx
    10a8:	48 8d 3d 91 16 00 00 	lea    rdi,[rip+0x1691]        # 2740 <main>
    10af:	ff 15 13 5f 00 00    	call   QWORD PTR [rip+0x5f13]        # 6fc8 <__libc_start_main@GLIBC_2.34>
    10b5:	f4                   	hlt
    10b6:	66 2e 0f 1f 84 00 00 	cs nop WORD PTR [rax+rax*1+0x0]
    10bd:	00 00 00 

00000000000010c0 <deregister_tm_clones>:
    10c0:	48 8d 3d 51 60 00 00 	lea    rdi,[rip+0x6051]        # 7118 <__TMC_END__>
    10c7:	48 8d 05 4a 60 00 00 	lea    rax,[rip+0x604a]        # 7118 <__TMC_END__>
    10ce:	48 39 f8             	cmp    rax,rdi
    10d1:	74 15                	je     10e8 <deregister_tm_clones+0x28>
    10d3:	48 8b 05 f6 5e 00 00 	mov    rax,QWORD PTR [rip+0x5ef6]        # 6fd0 <_ITM_deregisterTMCloneTable@Base>
    10da:	48 85 c0             	test   rax,rax
    10dd:	74 09                	je     10e8 <deregister_tm_clones+0x28>
    10df:	ff e0                	jmp    rax
    10e1:	0f 1f 80 00 00 00 00 	nop    DWORD PTR [rax+0x0]
    10e8:	c3                   	ret
    10e9:	0f 1f 80 00 00 00 00 	nop    DWORD PTR [rax+0x0]

00000000000010f0 <register_tm_clones>:
    10f0:	48 8d 3d 21 60 00 00 	lea    rdi,[rip+0x6021]        # 7118 <__TMC_END__>
    10f7:	48 8d 35 1a 60 00 00 	lea    rsi,[rip+0x601a]        # 7118 <__TMC_END__>
    10fe:	48 29 fe             	sub    rsi,rdi
    1101:	48 89 f0             	mov    rax,rsi
    1104:	48 c1 ee 3f          	shr    rsi,0x3f
    1108:	48 c1 f8 03          	sar    rax,0x3
    110c:	48 01 c6             	add    rsi,rax
    110f:	48 d1 fe             	sar    rsi,1
    1112:	74 14                	je     1128 <register_tm_clones+0x38>
    1114:	48 8b 05 c5 5e 00 00 	mov    rax,QWORD PTR [rip+0x5ec5]        # 6fe0 <_ITM_registerTMCloneTable@Base>
    111b:	48 85 c0             	test   rax,rax
    111e:	74 08                	je     1128 <register_tm_clones+0x38>
    1120:	ff e0                	jmp    rax
    1122:	66 0f 1f 44 00 00    	nop    WORD PTR [rax+rax*1+0x0]
    1128:	c3                   	ret
    1129:	0f 1f 80 00 00 00 00 	nop    DWORD PTR [rax+0x0]

0000000000001130 <__do_global_dtors_aux>:
    1130:	f3 0f 1e fa          	endbr64
    1134:	80 3d d7 5f 00 00 00 	cmp    BYTE PTR [rip+0x5fd7],0x0        # 7112 <completed.0>
    113b:	75 2b                	jne    1168 <__do_global_dtors_aux+0x38>
    113d:	55                   	push   rbp
    113e:	48 83 3d 7a 5e 00 00 	cmp    QWORD PTR [rip+0x5e7a],0x0        # 6fc0 <__cxa_finalize@GLIBC_2.2.5>
    1145:	00 
    1146:	48 89 e5             	mov    rbp,rsp
    1149:	74 0c                	je     1157 <__do_global_dtors_aux+0x27>
    114b:	48 8b 3d e6 5e 00 00 	mov    rdi,QWORD PTR [rip+0x5ee6]        # 7038 <__dso_handle>
    1152:	e8 29 ff ff ff       	call   1080 <__cxa_finalize@plt>
    1157:	e8 64 ff ff ff       	call   10c0 <deregister_tm_clones>
    115c:	c6 05 af 5f 00 00 01 	mov    BYTE PTR [rip+0x5faf],0x1        # 7112 <completed.0>
    1163:	5d                   	pop    rbp
    1164:	c3                   	ret
    1165:	0f 1f 00             	nop    DWORD PTR [rax]
    1168:	c3                   	ret
    1169:	0f 1f 80 00 00 00 00 	nop    DWORD PTR [rax+0x0]

0000000000001170 <frame_dummy>:
    1170:	f3 0f 1e fa          	endbr64
    1174:	e9 77 ff ff ff       	jmp    10f0 <register_tm_clones>
    1179:	0f 1f 80 00 00 00 00 	nop    DWORD PTR [rax+0x0]

0000000000001180 <mod_ret_addr>:
    1180:	48 c7 c1 99 3a 00 00 	mov    rcx,0x3a99
    1187:	48 c7 c0 9b 06 00 00 	mov    rax,0x69b
    118e:	48 c7 c2 b5 0d 00 00 	mov    rdx,0xdb5
    1195:	66 f7 f1             	div    cx
    1198:	66 f7 f1             	div    cx
    119b:	66 f7 f1             	div    cx
    119e:	66 f7 f1             	div    cx
    11a1:	66 f7 f1             	div    cx
    11a4:	66 f7 f1             	div    cx
    11a7:	66 f7 f1             	div    cx
    11aa:	66 f7 f1             	div    cx
    11ad:	66 f7 f1             	div    cx
    11b0:	66 f7 f1             	div    cx
    11b3:	66 f7 f1             	div    cx
    11b6:	66 f7 f1             	div    cx
    11b9:	48 01 14 24          	add    QWORD PTR [rsp],rdx
    11bd:	c3                   	ret
    11be:	66 90                	xchg   ax,ax

00000000000011c0 <_Z12time_elaspedP8timespecS0_>:
    11c0:	48 8b 06             	mov    rax,QWORD PTR [rsi]
    11c3:	48 2b 07             	sub    rax,QWORD PTR [rdi]
    11c6:	48 69 c8 00 ca 9a 3b 	imul   rcx,rax,0x3b9aca00
    11cd:	48 8b 46 08          	mov    rax,QWORD PTR [rsi+0x8]
    11d1:	48 2b 47 08          	sub    rax,QWORD PTR [rdi+0x8]
    11d5:	48 01 c8             	add    rax,rcx
    11d8:	c3                   	ret
    11d9:	0f 1f 80 00 00 00 00 	nop    DWORD PTR [rax+0x0]

00000000000011e0 <_Z12__weird__andbbRb>:
    11e0:	55                   	push   rbp
    11e1:	48 89 e5             	mov    rbp,rsp
    11e4:	53                   	push   rbx
    11e5:	48 83 ec 68          	sub    rsp,0x68
    11e9:	48 89 55 b8          	mov    QWORD PTR [rbp-0x48],rdx
    11ed:	40 88 f0             	mov    al,sil
    11f0:	88 45 c6             	mov    BYTE PTR [rbp-0x3a],al
    11f3:	40 88 f8             	mov    al,dil
    11f6:	88 45 c7             	mov    BYTE PTR [rbp-0x39],al
    11f9:	e8 52 fe ff ff       	call   1050 <rand@plt>
    11fe:	89 45 cc             	mov    DWORD PTR [rbp-0x34],eax
    1201:	31 c0                	xor    eax,eax
    1203:	89 45 c8             	mov    DWORD PTR [rbp-0x38],eax
    1206:	8b 4d c8             	mov    ecx,DWORD PTR [rbp-0x38]
    1209:	48 63 c1             	movsxd rax,ecx
    120c:	89 4c 85 d0          	mov    DWORD PTR [rbp+rax*4-0x30],ecx
    1210:	83 c1 01             	add    ecx,0x1
    1213:	31 c0                	xor    eax,eax
    1215:	83 f9 0a             	cmp    ecx,0xa
    1218:	89 4d c8             	mov    DWORD PTR [rbp-0x38],ecx
    121b:	89 45 b4             	mov    DWORD PTR [rbp-0x4c],eax
    121e:	0f 85 e2 ff ff ff    	jne    1206 <_Z12__weird__andbbRb+0x26>
    1224:	8b 55 b4             	mov    edx,DWORD PTR [rbp-0x4c]
    1227:	89 55 ac             	mov    DWORD PTR [rbp-0x54],edx
    122a:	8b 45 cc             	mov    eax,DWORD PTR [rbp-0x34]
    122d:	89 45 b0             	mov    DWORD PTR [rbp-0x50],eax
    1230:	b9 0a 00 00 00       	mov    ecx,0xa
    1235:	29 d1                	sub    ecx,edx
    1237:	31 d2                	xor    edx,edx
    1239:	f7 f1                	div    ecx
    123b:	8b 45 ac             	mov    eax,DWORD PTR [rbp-0x54]
    123e:	89 d6                	mov    esi,edx
    1240:	8b 55 b0             	mov    edx,DWORD PTR [rbp-0x50]
    1243:	89 c1                	mov    ecx,eax
    1245:	01 f1                	add    ecx,esi
    1247:	69 d2 0d 66 19 00    	imul   edx,edx,0x19660d
    124d:	81 c2 5f f3 6e 3c    	add    edx,0x3c6ef35f
    1253:	89 55 cc             	mov    DWORD PTR [rbp-0x34],edx
    1256:	48 63 d0             	movsxd rdx,eax
    1259:	8b 74 95 d0          	mov    esi,DWORD PTR [rbp+rdx*4-0x30]
    125d:	48 63 d1             	movsxd rdx,ecx
    1260:	8b 54 95 d0          	mov    edx,DWORD PTR [rbp+rdx*4-0x30]
    1264:	48 63 c9             	movsxd rcx,ecx
    1267:	89 74 8d d0          	mov    DWORD PTR [rbp+rcx*4-0x30],esi
    126b:	48 63 c8             	movsxd rcx,eax
    126e:	89 54 8d d0          	mov    DWORD PTR [rbp+rcx*4-0x30],edx
    1272:	83 c0 01             	add    eax,0x1
    1275:	83 f8 09             	cmp    eax,0x9
    1278:	89 45 b4             	mov    DWORD PTR [rbp-0x4c],eax
    127b:	0f 85 a3 ff ff ff    	jne    1224 <_Z12__weird__andbbRb+0x44>
    1281:	8a 45 c7             	mov    al,BYTE PTR [rbp-0x39]
    1284:	8a 4d c6             	mov    cl,BYTE PTR [rbp-0x3a]
    1287:	49 89 e1             	mov    r9,rsp
    128a:	49 81 c1 40 dc ff ff 	add    r9,0xffffffffffffdc40
    1291:	4c 89 cc             	mov    rsp,r9
    1294:	8b 55 e8             	mov    edx,DWORD PTR [rbp-0x18]
    1297:	48 83 c2 01          	add    rdx,0x1
    129b:	4c 69 d2 40 03 00 00 	imul   r10,rdx,0x340
    12a2:	4c 89 cf             	mov    rdi,r9
    12a5:	4c 01 d7             	add    rdi,r10
    12a8:	8b 55 ec             	mov    edx,DWORD PTR [rbp-0x14]
    12ab:	48 83 c2 01          	add    rdx,0x1
    12af:	4c 69 c2 40 03 00 00 	imul   r8,rdx,0x340
    12b6:	4c 89 ce             	mov    rsi,r9
    12b9:	4c 01 c6             	add    rsi,r8
    12bc:	4d 89 c3             	mov    r11,r8
    12bf:	4d 29 d3             	sub    r11,r10
    12c2:	80 e1 01             	and    cl,0x1
    12c5:	0f b6 c9             	movzx  ecx,cl
    12c8:	89 ca                	mov    edx,ecx
    12ca:	48 89 d1             	mov    rcx,rdx
    12cd:	49 0f af cb          	imul   rcx,r11
    12d1:	4c 01 d1             	add    rcx,r10
    12d4:	4d 29 c2             	sub    r10,r8
    12d7:	49 0f af d2          	imul   rdx,r10
    12db:	4c 01 c2             	add    rdx,r8
    12de:	41 c6 04 09 00       	mov    BYTE PTR [r9+rcx*1],0x0
    12e3:	4c 89 c9             	mov    rcx,r9
    12e6:	48 01 d1             	add    rcx,rdx
    12e9:	0f ae 39             	clflush BYTE PTR [rcx]
    12ec:	8b 4d e0             	mov    ecx,DWORD PTR [rbp-0x20]
    12ef:	48 83 c1 01          	add    rcx,0x1
    12f3:	4c 69 d9 40 03 00 00 	imul   r11,rcx,0x340
    12fa:	4c 89 ca             	mov    rdx,r9
    12fd:	4c 01 da             	add    rdx,r11
    1300:	8b 4d e4             	mov    ecx,DWORD PTR [rbp-0x1c]
    1303:	48 83 c1 01          	add    rcx,0x1
    1307:	4c 69 d1 40 03 00 00 	imul   r10,rcx,0x340
    130e:	4c 89 c9             	mov    rcx,r9
    1311:	4c 01 d1             	add    rcx,r10
    1314:	4c 89 d3             	mov    rbx,r10
    1317:	4c 29 db             	sub    rbx,r11
    131a:	24 01                	and    al,0x1
    131c:	0f b6 c0             	movzx  eax,al
    131f:	41 89 c0             	mov    r8d,eax
    1322:	4c 89 c0             	mov    rax,r8
    1325:	48 0f af c3          	imul   rax,rbx
    1329:	4c 01 d8             	add    rax,r11
    132c:	4d 29 d3             	sub    r11,r10
    132f:	4d 0f af c3          	imul   r8,r11
    1333:	4d 01 d0             	add    r8,r10
    1336:	41 c6 04 01 00       	mov    BYTE PTR [r9+rax*1],0x0
    133b:	4c 89 c8             	mov    rax,r9
    133e:	4c 01 c0             	add    rax,r8
    1341:	0f ae 38             	clflush BYTE PTR [rax]
    1344:	8b 45 f0             	mov    eax,DWORD PTR [rbp-0x10]
    1347:	48 83 c0 01          	add    rax,0x1
    134b:	4c 69 c0 40 03 00 00 	imul   r8,rax,0x340
    1352:	4d 89 c2             	mov    r10,r8
    1355:	49 81 ea 00 01 00 00 	sub    r10,0x100
    135c:	4c 89 c8             	mov    rax,r9
    135f:	4c 01 c0             	add    rax,r8
    1362:	48 89 45 a0          	mov    QWORD PTR [rbp-0x60],rax
    1366:	4d 89 c8             	mov    r8,r9
    1369:	4d 01 d0             	add    r8,r10
    136c:	0f ae 38             	clflush BYTE PTR [rax]
    136f:	8b 45 f4             	mov    eax,DWORD PTR [rbp-0xc]
    1372:	48 83 c0 01          	add    rax,0x1
    1376:	4c 69 d8 40 03 00 00 	imul   r11,rax,0x340
    137d:	4d 89 da             	mov    r10,r11
    1380:	49 81 ea 00 01 00 00 	sub    r10,0x100
    1387:	4c 89 c8             	mov    rax,r9
    138a:	4c 01 d8             	add    rax,r11
    138d:	48 89 45 98          	mov    QWORD PTR [rbp-0x68],rax
    1391:	4d 01 d1             	add    r9,r10
    1394:	0f ae 38             	clflush BYTE PTR [rax]
    1397:	0f ae f0             	mfence
    139a:	e8 61 19 00 00       	call   2d00 <__DualGate__2_1_8>
    139f:	48 8b 7d 98          	mov    rdi,QWORD PTR [rbp-0x68]
    13a3:	0f ae f0             	mfence
    13a6:	e8 25 19 00 00       	call   2cd0 <timer>
    13ab:	48 8b 7d a0          	mov    rdi,QWORD PTR [rbp-0x60]
    13af:	48 3d b5 00 00 00    	cmp    rax,0xb5
    13b5:	0f 92 c0             	setb   al
    13b8:	88 45 ab             	mov    BYTE PTR [rbp-0x55],al
    13bb:	e8 10 19 00 00       	call   2cd0 <timer>
    13c0:	8a 55 ab             	mov    dl,BYTE PTR [rbp-0x55]
    13c3:	48 8b 4d b8          	mov    rcx,QWORD PTR [rbp-0x48]
    13c7:	48 3d b5 00 00 00    	cmp    rax,0xb5
    13cd:	0f 92 c0             	setb   al
    13d0:	30 d0                	xor    al,dl
    13d2:	34 ff                	xor    al,0xff
    13d4:	0c 00                	or     al,0x0
    13d6:	80 e2 01             	and    dl,0x1
    13d9:	80 ca 00             	or     dl,0x0
    13dc:	80 ca 00             	or     dl,0x0
    13df:	80 ca 00             	or     dl,0x0
    13e2:	80 ca 00             	or     dl,0x0
    13e5:	80 ca 00             	or     dl,0x0
    13e8:	80 ca 00             	or     dl,0x0
    13eb:	80 ca 00             	or     dl,0x0
    13ee:	88 11                	mov    BYTE PTR [rcx],dl
    13f0:	24 01                	and    al,0x1
    13f2:	0f b6 c0             	movzx  eax,al
    13f5:	48 8d 65 f8          	lea    rsp,[rbp-0x8]
    13f9:	5b                   	pop    rbx
    13fa:	5d                   	pop    rbp
    13fb:	c3                   	ret
    13fc:	0f 1f 40 00          	nop    DWORD PTR [rax+0x0]

0000000000001400 <_Z11__weird__orbbRb>:
    1400:	55                   	push   rbp
    1401:	48 89 e5             	mov    rbp,rsp
    1404:	53                   	push   rbx
    1405:	48 83 ec 68          	sub    rsp,0x68
    1409:	48 89 55 b8          	mov    QWORD PTR [rbp-0x48],rdx
    140d:	40 88 f0             	mov    al,sil
    1410:	88 45 c6             	mov    BYTE PTR [rbp-0x3a],al
    1413:	40 88 f8             	mov    al,dil
    1416:	88 45 c7             	mov    BYTE PTR [rbp-0x39],al
    1419:	e8 32 fc ff ff       	call   1050 <rand@plt>
    141e:	89 45 cc             	mov    DWORD PTR [rbp-0x34],eax
    1421:	31 c0                	xor    eax,eax
    1423:	89 45 c8             	mov    DWORD PTR [rbp-0x38],eax
    1426:	8b 4d c8             	mov    ecx,DWORD PTR [rbp-0x38]
    1429:	48 63 c1             	movsxd rax,ecx
    142c:	89 4c 85 d0          	mov    DWORD PTR [rbp+rax*4-0x30],ecx
    1430:	83 c1 01             	add    ecx,0x1
    1433:	31 c0                	xor    eax,eax
    1435:	83 f9 0a             	cmp    ecx,0xa
    1438:	89 4d c8             	mov    DWORD PTR [rbp-0x38],ecx
    143b:	89 45 b4             	mov    DWORD PTR [rbp-0x4c],eax
    143e:	0f 85 e2 ff ff ff    	jne    1426 <_Z11__weird__orbbRb+0x26>
    1444:	8b 55 b4             	mov    edx,DWORD PTR [rbp-0x4c]
    1447:	89 55 ac             	mov    DWORD PTR [rbp-0x54],edx
    144a:	8b 45 cc             	mov    eax,DWORD PTR [rbp-0x34]
    144d:	89 45 b0             	mov    DWORD PTR [rbp-0x50],eax
    1450:	b9 0a 00 00 00       	mov    ecx,0xa
    1455:	29 d1                	sub    ecx,edx
    1457:	31 d2                	xor    edx,edx
    1459:	f7 f1                	div    ecx
    145b:	8b 45 ac             	mov    eax,DWORD PTR [rbp-0x54]
    145e:	89 d6                	mov    esi,edx
    1460:	8b 55 b0             	mov    edx,DWORD PTR [rbp-0x50]
    1463:	89 c1                	mov    ecx,eax
    1465:	01 f1                	add    ecx,esi
    1467:	69 d2 0d 66 19 00    	imul   edx,edx,0x19660d
    146d:	81 c2 5f f3 6e 3c    	add    edx,0x3c6ef35f
    1473:	89 55 cc             	mov    DWORD PTR [rbp-0x34],edx
    1476:	48 63 d0             	movsxd rdx,eax
    1479:	8b 74 95 d0          	mov    esi,DWORD PTR [rbp+rdx*4-0x30]
    147d:	48 63 d1             	movsxd rdx,ecx
    1480:	8b 54 95 d0          	mov    edx,DWORD PTR [rbp+rdx*4-0x30]
    1484:	48 63 c9             	movsxd rcx,ecx
    1487:	89 74 8d d0          	mov    DWORD PTR [rbp+rcx*4-0x30],esi
    148b:	48 63 c8             	movsxd rcx,eax
    148e:	89 54 8d d0          	mov    DWORD PTR [rbp+rcx*4-0x30],edx
    1492:	83 c0 01             	add    eax,0x1
    1495:	83 f8 09             	cmp    eax,0x9
    1498:	89 45 b4             	mov    DWORD PTR [rbp-0x4c],eax
    149b:	0f 85 a3 ff ff ff    	jne    1444 <_Z11__weird__orbbRb+0x44>
    14a1:	8a 45 c7             	mov    al,BYTE PTR [rbp-0x39]
    14a4:	8a 4d c6             	mov    cl,BYTE PTR [rbp-0x3a]
    14a7:	49 89 e1             	mov    r9,rsp
    14aa:	49 81 c1 40 dc ff ff 	add    r9,0xffffffffffffdc40
    14b1:	4c 89 cc             	mov    rsp,r9
    14b4:	8b 55 e8             	mov    edx,DWORD PTR [rbp-0x18]
    14b7:	48 83 c2 01          	add    rdx,0x1
    14bb:	4c 69 d2 40 03 00 00 	imul   r10,rdx,0x340
    14c2:	4c 89 cf             	mov    rdi,r9
    14c5:	4c 01 d7             	add    rdi,r10
    14c8:	8b 55 ec             	mov    edx,DWORD PTR [rbp-0x14]
    14cb:	48 83 c2 01          	add    rdx,0x1
    14cf:	4c 69 c2 40 03 00 00 	imul   r8,rdx,0x340
    14d6:	4c 89 ce             	mov    rsi,r9
    14d9:	4c 01 c6             	add    rsi,r8
    14dc:	4d 89 c3             	mov    r11,r8
    14df:	4d 29 d3             	sub    r11,r10
    14e2:	80 e1 01             	and    cl,0x1
    14e5:	0f b6 c9             	movzx  ecx,cl
    14e8:	89 ca                	mov    edx,ecx
    14ea:	48 89 d1             	mov    rcx,rdx
    14ed:	49 0f af cb          	imul   rcx,r11
    14f1:	4c 01 d1             	add    rcx,r10
    14f4:	4d 29 c2             	sub    r10,r8
    14f7:	49 0f af d2          	imul   rdx,r10
    14fb:	4c 01 c2             	add    rdx,r8
    14fe:	41 c6 04 09 00       	mov    BYTE PTR [r9+rcx*1],0x0
    1503:	4c 89 c9             	mov    rcx,r9
    1506:	48 01 d1             	add    rcx,rdx
    1509:	0f ae 39             	clflush BYTE PTR [rcx]
    150c:	8b 4d e0             	mov    ecx,DWORD PTR [rbp-0x20]
    150f:	48 83 c1 01          	add    rcx,0x1
    1513:	4c 69 d9 40 03 00 00 	imul   r11,rcx,0x340
    151a:	4c 89 ca             	mov    rdx,r9
    151d:	4c 01 da             	add    rdx,r11
    1520:	8b 4d e4             	mov    ecx,DWORD PTR [rbp-0x1c]
    1523:	48 83 c1 01          	add    rcx,0x1
    1527:	4c 69 d1 40 03 00 00 	imul   r10,rcx,0x340
    152e:	4c 89 c9             	mov    rcx,r9
    1531:	4c 01 d1             	add    rcx,r10
    1534:	4c 89 d3             	mov    rbx,r10
    1537:	4c 29 db             	sub    rbx,r11
    153a:	24 01                	and    al,0x1
    153c:	0f b6 c0             	movzx  eax,al
    153f:	41 89 c0             	mov    r8d,eax
    1542:	4c 89 c0             	mov    rax,r8
    1545:	48 0f af c3          	imul   rax,rbx
    1549:	4c 01 d8             	add    rax,r11
    154c:	4d 29 d3             	sub    r11,r10
    154f:	4d 0f af c3          	imul   r8,r11
    1553:	4d 01 d0             	add    r8,r10
    1556:	41 c6 04 01 00       	mov    BYTE PTR [r9+rax*1],0x0
    155b:	4c 89 c8             	mov    rax,r9
    155e:	4c 01 c0             	add    rax,r8
    1561:	0f ae 38             	clflush BYTE PTR [rax]
    1564:	8b 45 f0             	mov    eax,DWORD PTR [rbp-0x10]
    1567:	48 83 c0 01          	add    rax,0x1
    156b:	4c 69 c0 40 03 00 00 	imul   r8,rax,0x340
    1572:	4d 89 c2             	mov    r10,r8
    1575:	49 81 ea 00 01 00 00 	sub    r10,0x100
    157c:	4c 89 c8             	mov    rax,r9
    157f:	4c 01 c0             	add    rax,r8
    1582:	48 89 45 a0          	mov    QWORD PTR [rbp-0x60],rax
    1586:	4d 89 c8             	mov    r8,r9
    1589:	4d 01 d0             	add    r8,r10
    158c:	0f ae 38             	clflush BYTE PTR [rax]
    158f:	8b 45 f4             	mov    eax,DWORD PTR [rbp-0xc]
    1592:	48 83 c0 01          	add    rax,0x1
    1596:	4c 69 d8 40 03 00 00 	imul   r11,rax,0x340
    159d:	4d 89 da             	mov    r10,r11
    15a0:	49 81 ea 00 01 00 00 	sub    r10,0x100
    15a7:	4c 89 c8             	mov    rax,r9
    15aa:	4c 01 d8             	add    rax,r11
    15ad:	48 89 45 98          	mov    QWORD PTR [rbp-0x68],rax
    15b1:	4d 01 d1             	add    r9,r10
    15b4:	0f ae 38             	clflush BYTE PTR [rax]
    15b7:	0f ae f0             	mfence
    15ba:	e8 81 19 00 00       	call   2f40 <__DualGate__2_1_14>
    15bf:	48 8b 7d 98          	mov    rdi,QWORD PTR [rbp-0x68]
    15c3:	0f ae f0             	mfence
    15c6:	e8 05 17 00 00       	call   2cd0 <timer>
    15cb:	48 8b 7d a0          	mov    rdi,QWORD PTR [rbp-0x60]
    15cf:	48 3d b5 00 00 00    	cmp    rax,0xb5
    15d5:	0f 92 c0             	setb   al
    15d8:	88 45 ab             	mov    BYTE PTR [rbp-0x55],al
    15db:	e8 f0 16 00 00       	call   2cd0 <timer>
    15e0:	8a 55 ab             	mov    dl,BYTE PTR [rbp-0x55]
    15e3:	48 8b 4d b8          	mov    rcx,QWORD PTR [rbp-0x48]
    15e7:	48 3d b5 00 00 00    	cmp    rax,0xb5
    15ed:	0f 92 c0             	setb   al
    15f0:	30 d0                	xor    al,dl
    15f2:	34 ff                	xor    al,0xff
    15f4:	0c 00                	or     al,0x0
    15f6:	80 e2 01             	and    dl,0x1
    15f9:	80 ca 00             	or     dl,0x0
    15fc:	80 ca 00             	or     dl,0x0
    15ff:	80 ca 00             	or     dl,0x0
    1602:	80 ca 00             	or     dl,0x0
    1605:	80 ca 00             	or     dl,0x0
    1608:	80 ca 00             	or     dl,0x0
    160b:	80 ca 00             	or     dl,0x0
    160e:	88 11                	mov    BYTE PTR [rcx],dl
    1610:	24 01                	and    al,0x1
    1612:	0f b6 c0             	movzx  eax,al
    1615:	48 8d 65 f8          	lea    rsp,[rbp-0x8]
    1619:	5b                   	pop    rbx
    161a:	5d                   	pop    rbp
    161b:	c3                   	ret
    161c:	0f 1f 40 00          	nop    DWORD PTR [rax+0x0]

0000000000001620 <_Z12__weird__notbRb>:
    1620:	55                   	push   rbp
    1621:	48 89 e5             	mov    rbp,rsp
    1624:	48 83 ec 60          	sub    rsp,0x60
    1628:	48 89 75 c8          	mov    QWORD PTR [rbp-0x38],rsi
    162c:	40 88 f8             	mov    al,dil
    162f:	88 45 d7             	mov    BYTE PTR [rbp-0x29],al
    1632:	e8 19 fa ff ff       	call   1050 <rand@plt>
    1637:	89 45 dc             	mov    DWORD PTR [rbp-0x24],eax
    163a:	31 c0                	xor    eax,eax
    163c:	89 45 d8             	mov    DWORD PTR [rbp-0x28],eax
    163f:	8b 4d d8             	mov    ecx,DWORD PTR [rbp-0x28]
    1642:	48 63 c1             	movsxd rax,ecx
    1645:	89 4c 85 e0          	mov    DWORD PTR [rbp+rax*4-0x20],ecx
    1649:	83 c1 01             	add    ecx,0x1
    164c:	31 c0                	xor    eax,eax
    164e:	83 f9 08             	cmp    ecx,0x8
    1651:	89 4d d8             	mov    DWORD PTR [rbp-0x28],ecx
    1654:	89 45 c4             	mov    DWORD PTR [rbp-0x3c],eax
    1657:	0f 85 e2 ff ff ff    	jne    163f <_Z12__weird__notbRb+0x1f>
    165d:	8b 55 c4             	mov    edx,DWORD PTR [rbp-0x3c]
    1660:	89 55 bc             	mov    DWORD PTR [rbp-0x44],edx
    1663:	8b 45 dc             	mov    eax,DWORD PTR [rbp-0x24]
    1666:	89 45 c0             	mov    DWORD PTR [rbp-0x40],eax
    1669:	b9 08 00 00 00       	mov    ecx,0x8
    166e:	29 d1                	sub    ecx,edx
    1670:	31 d2                	xor    edx,edx
    1672:	f7 f1                	div    ecx
    1674:	8b 45 bc             	mov    eax,DWORD PTR [rbp-0x44]
    1677:	89 d6                	mov    esi,edx
    1679:	8b 55 c0             	mov    edx,DWORD PTR [rbp-0x40]
    167c:	89 c1                	mov    ecx,eax
    167e:	01 f1                	add    ecx,esi
    1680:	69 d2 0d 66 19 00    	imul   edx,edx,0x19660d
    1686:	81 c2 5f f3 6e 3c    	add    edx,0x3c6ef35f
    168c:	89 55 dc             	mov    DWORD PTR [rbp-0x24],edx
    168f:	48 63 d0             	movsxd rdx,eax
    1692:	8b 74 95 e0          	mov    esi,DWORD PTR [rbp+rdx*4-0x20]
    1696:	48 63 d1             	movsxd rdx,ecx
    1699:	8b 54 95 e0          	mov    edx,DWORD PTR [rbp+rdx*4-0x20]
    169d:	48 63 c9             	movsxd rcx,ecx
    16a0:	89 74 8d e0          	mov    DWORD PTR [rbp+rcx*4-0x20],esi
    16a4:	48 63 c8             	movsxd rcx,eax
    16a7:	89 54 8d e0          	mov    DWORD PTR [rbp+rcx*4-0x20],edx
    16ab:	83 c0 01             	add    eax,0x1
    16ae:	83 f8 07             	cmp    eax,0x7
    16b1:	89 45 c4             	mov    DWORD PTR [rbp-0x3c],eax
    16b4:	0f 85 a3 ff ff ff    	jne    165d <_Z12__weird__notbRb+0x3d>
    16ba:	8a 45 d7             	mov    al,BYTE PTR [rbp-0x29]
    16bd:	48 89 e1             	mov    rcx,rsp
    16c0:	48 81 c1 c0 e2 ff ff 	add    rcx,0xffffffffffffe2c0
    16c7:	48 89 cc             	mov    rsp,rcx
    16ca:	8b 55 f0             	mov    edx,DWORD PTR [rbp-0x10]
    16cd:	48 83 c2 01          	add    rdx,0x1
    16d1:	4c 69 ca 40 03 00 00 	imul   r9,rdx,0x340
    16d8:	48 89 cf             	mov    rdi,rcx
    16db:	4c 01 cf             	add    rdi,r9
    16de:	8b 55 f4             	mov    edx,DWORD PTR [rbp-0xc]
    16e1:	48 83 c2 01          	add    rdx,0x1
    16e5:	4c 69 c2 40 03 00 00 	imul   r8,rdx,0x340
    16ec:	48 89 ce             	mov    rsi,rcx
    16ef:	4c 01 c6             	add    rsi,r8
    16f2:	4d 89 c2             	mov    r10,r8
    16f5:	4d 29 ca             	sub    r10,r9
    16f8:	24 01                	and    al,0x1
    16fa:	0f b6 c0             	movzx  eax,al
    16fd:	89 c2                	mov    edx,eax
    16ff:	48 89 d0             	mov    rax,rdx
    1702:	49 0f af c2          	imul   rax,r10
    1706:	4c 01 c8             	add    rax,r9
    1709:	4d 29 c1             	sub    r9,r8
    170c:	49 0f af d1          	imul   rdx,r9
    1710:	4c 01 c2             	add    rdx,r8
    1713:	c6 04 01 00          	mov    BYTE PTR [rcx+rax*1],0x0
    1717:	48 89 c8             	mov    rax,rcx
    171a:	48 01 d0             	add    rax,rdx
    171d:	0f ae 38             	clflush BYTE PTR [rax]
    1720:	8b 45 f8             	mov    eax,DWORD PTR [rbp-0x8]
    1723:	48 83 c0 01          	add    rax,0x1
    1727:	48 69 d0 40 03 00 00 	imul   rdx,rax,0x340
    172e:	49 89 d0             	mov    r8,rdx
    1731:	49 81 e8 00 01 00 00 	sub    r8,0x100
    1738:	48 89 c8             	mov    rax,rcx
    173b:	48 01 d0             	add    rax,rdx
    173e:	48 89 45 b0          	mov    QWORD PTR [rbp-0x50],rax
    1742:	48 89 ca             	mov    rdx,rcx
    1745:	4c 01 c2             	add    rdx,r8
    1748:	0f ae 38             	clflush BYTE PTR [rax]
    174b:	8b 45 fc             	mov    eax,DWORD PTR [rbp-0x4]
    174e:	48 83 c0 01          	add    rax,0x1
    1752:	4c 69 c8 40 03 00 00 	imul   r9,rax,0x340
    1759:	4d 89 c8             	mov    r8,r9
    175c:	49 81 e8 00 01 00 00 	sub    r8,0x100
    1763:	48 89 c8             	mov    rax,rcx
    1766:	4c 01 c8             	add    rax,r9
    1769:	48 89 45 a8          	mov    QWORD PTR [rbp-0x58],rax
    176d:	4c 01 c1             	add    rcx,r8
    1770:	0f ae 38             	clflush BYTE PTR [rax]
    1773:	0f ae f0             	mfence
    1776:	e8 05 1a 00 00       	call   3180 <__DualGate__1_1_1>
    177b:	48 8b 7d a8          	mov    rdi,QWORD PTR [rbp-0x58]
    177f:	0f ae f0             	mfence
    1782:	e8 49 15 00 00       	call   2cd0 <timer>
    1787:	48 8b 7d b0          	mov    rdi,QWORD PTR [rbp-0x50]
    178b:	48 3d b5 00 00 00    	cmp    rax,0xb5
    1791:	0f 92 c0             	setb   al
    1794:	88 45 bb             	mov    BYTE PTR [rbp-0x45],al
    1797:	e8 34 15 00 00       	call   2cd0 <timer>
    179c:	8a 55 bb             	mov    dl,BYTE PTR [rbp-0x45]
    179f:	48 8b 4d c8          	mov    rcx,QWORD PTR [rbp-0x38]
    17a3:	48 3d b5 00 00 00    	cmp    rax,0xb5
    17a9:	0f 92 c0             	setb   al
    17ac:	30 d0                	xor    al,dl
    17ae:	34 ff                	xor    al,0xff
    17b0:	0c 00                	or     al,0x0
    17b2:	80 e2 01             	and    dl,0x1
    17b5:	80 ca 00             	or     dl,0x0
    17b8:	80 ca 00             	or     dl,0x0
    17bb:	80 ca 00             	or     dl,0x0
    17be:	80 ca 00             	or     dl,0x0
    17c1:	80 ca 00             	or     dl,0x0
    17c4:	80 ca 00             	or     dl,0x0
    17c7:	80 ca 00             	or     dl,0x0
    17ca:	88 11                	mov    BYTE PTR [rcx],dl
    17cc:	24 01                	and    al,0x1
    17ce:	0f b6 c0             	movzx  eax,al
    17d1:	48 89 ec             	mov    rsp,rbp
    17d4:	5d                   	pop    rbp
    17d5:	c3                   	ret
    17d6:	66 2e 0f 1f 84 00 00 	cs nop WORD PTR [rax+rax*1+0x0]
    17dd:	00 00 00 

00000000000017e0 <_Z13__weird__nandbbRb>:
    17e0:	55                   	push   rbp
    17e1:	48 89 e5             	mov    rbp,rsp
    17e4:	53                   	push   rbx
    17e5:	48 83 ec 68          	sub    rsp,0x68
    17e9:	48 89 55 b8          	mov    QWORD PTR [rbp-0x48],rdx
    17ed:	40 88 f0             	mov    al,sil
    17f0:	88 45 c6             	mov    BYTE PTR [rbp-0x3a],al
    17f3:	40 88 f8             	mov    al,dil
    17f6:	88 45 c7             	mov    BYTE PTR [rbp-0x39],al
    17f9:	e8 52 f8 ff ff       	call   1050 <rand@plt>
    17fe:	89 45 cc             	mov    DWORD PTR [rbp-0x34],eax
    1801:	31 c0                	xor    eax,eax
    1803:	89 45 c8             	mov    DWORD PTR [rbp-0x38],eax
    1806:	8b 4d c8             	mov    ecx,DWORD PTR [rbp-0x38]
    1809:	48 63 c1             	movsxd rax,ecx
    180c:	89 4c 85 d0          	mov    DWORD PTR [rbp+rax*4-0x30],ecx
    1810:	83 c1 01             	add    ecx,0x1
    1813:	31 c0                	xor    eax,eax
    1815:	83 f9 0a             	cmp    ecx,0xa
    1818:	89 4d c8             	mov    DWORD PTR [rbp-0x38],ecx
    181b:	89 45 b4             	mov    DWORD PTR [rbp-0x4c],eax
    181e:	0f 85 e2 ff ff ff    	jne    1806 <_Z13__weird__nandbbRb+0x26>
    1824:	8b 55 b4             	mov    edx,DWORD PTR [rbp-0x4c]
    1827:	89 55 ac             	mov    DWORD PTR [rbp-0x54],edx
    182a:	8b 45 cc             	mov    eax,DWORD PTR [rbp-0x34]
    182d:	89 45 b0             	mov    DWORD PTR [rbp-0x50],eax
    1830:	b9 0a 00 00 00       	mov    ecx,0xa
    1835:	29 d1                	sub    ecx,edx
    1837:	31 d2                	xor    edx,edx
    1839:	f7 f1                	div    ecx
    183b:	8b 45 ac             	mov    eax,DWORD PTR [rbp-0x54]
    183e:	89 d6                	mov    esi,edx
    1840:	8b 55 b0             	mov    edx,DWORD PTR [rbp-0x50]
    1843:	89 c1                	mov    ecx,eax
    1845:	01 f1                	add    ecx,esi
    1847:	69 d2 0d 66 19 00    	imul   edx,edx,0x19660d
    184d:	81 c2 5f f3 6e 3c    	add    edx,0x3c6ef35f
    1853:	89 55 cc             	mov    DWORD PTR [rbp-0x34],edx
    1856:	48 63 d0             	movsxd rdx,eax
    1859:	8b 74 95 d0          	mov    esi,DWORD PTR [rbp+rdx*4-0x30]
    185d:	48 63 d1             	movsxd rdx,ecx
    1860:	8b 54 95 d0          	mov    edx,DWORD PTR [rbp+rdx*4-0x30]
    1864:	48 63 c9             	movsxd rcx,ecx
    1867:	89 74 8d d0          	mov    DWORD PTR [rbp+rcx*4-0x30],esi
    186b:	48 63 c8             	movsxd rcx,eax
    186e:	89 54 8d d0          	mov    DWORD PTR [rbp+rcx*4-0x30],edx
    1872:	83 c0 01             	add    eax,0x1
    1875:	83 f8 09             	cmp    eax,0x9
    1878:	89 45 b4             	mov    DWORD PTR [rbp-0x4c],eax
    187b:	0f 85 a3 ff ff ff    	jne    1824 <_Z13__weird__nandbbRb+0x44>
    1881:	8a 45 c7             	mov    al,BYTE PTR [rbp-0x39]
    1884:	8a 4d c6             	mov    cl,BYTE PTR [rbp-0x3a]
    1887:	49 89 e1             	mov    r9,rsp
    188a:	49 81 c1 40 dc ff ff 	add    r9,0xffffffffffffdc40
    1891:	4c 89 cc             	mov    rsp,r9
    1894:	8b 55 e8             	mov    edx,DWORD PTR [rbp-0x18]
    1897:	48 83 c2 01          	add    rdx,0x1
    189b:	4c 69 d2 40 03 00 00 	imul   r10,rdx,0x340
    18a2:	4c 89 cf             	mov    rdi,r9
    18a5:	4c 01 d7             	add    rdi,r10
    18a8:	8b 55 ec             	mov    edx,DWORD PTR [rbp-0x14]
    18ab:	48 83 c2 01          	add    rdx,0x1
    18af:	4c 69 c2 40 03 00 00 	imul   r8,rdx,0x340
    18b6:	4c 89 ce             	mov    rsi,r9
    18b9:	4c 01 c6             	add    rsi,r8
    18bc:	4d 89 c3             	mov    r11,r8
    18bf:	4d 29 d3             	sub    r11,r10
    18c2:	80 e1 01             	and    cl,0x1
    18c5:	0f b6 c9             	movzx  ecx,cl
    18c8:	89 ca                	mov    edx,ecx
    18ca:	48 89 d1             	mov    rcx,rdx
    18cd:	49 0f af cb          	imul   rcx,r11
    18d1:	4c 01 d1             	add    rcx,r10
    18d4:	4d 29 c2             	sub    r10,r8
    18d7:	49 0f af d2          	imul   rdx,r10
    18db:	4c 01 c2             	add    rdx,r8
    18de:	41 c6 04 09 00       	mov    BYTE PTR [r9+rcx*1],0x0
    18e3:	4c 89 c9             	mov    rcx,r9
    18e6:	48 01 d1             	add    rcx,rdx
    18e9:	0f ae 39             	clflush BYTE PTR [rcx]
    18ec:	8b 4d e0             	mov    ecx,DWORD PTR [rbp-0x20]
    18ef:	48 83 c1 01          	add    rcx,0x1
    18f3:	4c 69 d9 40 03 00 00 	imul   r11,rcx,0x340
    18fa:	4c 89 ca             	mov    rdx,r9
    18fd:	4c 01 da             	add    rdx,r11
    1900:	8b 4d e4             	mov    ecx,DWORD PTR [rbp-0x1c]
    1903:	48 83 c1 01          	add    rcx,0x1
    1907:	4c 69 d1 40 03 00 00 	imul   r10,rcx,0x340
    190e:	4c 89 c9             	mov    rcx,r9
    1911:	4c 01 d1             	add    rcx,r10
    1914:	4c 89 d3             	mov    rbx,r10
    1917:	4c 29 db             	sub    rbx,r11
    191a:	24 01                	and    al,0x1
    191c:	0f b6 c0             	movzx  eax,al
    191f:	41 89 c0             	mov    r8d,eax
    1922:	4c 89 c0             	mov    rax,r8
    1925:	48 0f af c3          	imul   rax,rbx
    1929:	4c 01 d8             	add    rax,r11
    192c:	4d 29 d3             	sub    r11,r10
    192f:	4d 0f af c3          	imul   r8,r11
    1933:	4d 01 d0             	add    r8,r10
    1936:	41 c6 04 01 00       	mov    BYTE PTR [r9+rax*1],0x0
    193b:	4c 89 c8             	mov    rax,r9
    193e:	4c 01 c0             	add    rax,r8
    1941:	0f ae 38             	clflush BYTE PTR [rax]
    1944:	8b 45 f0             	mov    eax,DWORD PTR [rbp-0x10]
    1947:	48 83 c0 01          	add    rax,0x1
    194b:	4c 69 c0 40 03 00 00 	imul   r8,rax,0x340
    1952:	4d 89 c2             	mov    r10,r8
    1955:	49 81 ea 00 01 00 00 	sub    r10,0x100
    195c:	4c 89 c8             	mov    rax,r9
    195f:	4c 01 c0             	add    rax,r8
    1962:	48 89 45 a0          	mov    QWORD PTR [rbp-0x60],rax
    1966:	4d 89 c8             	mov    r8,r9
    1969:	4d 01 d0             	add    r8,r10
    196c:	0f ae 38             	clflush BYTE PTR [rax]
    196f:	8b 45 f4             	mov    eax,DWORD PTR [rbp-0xc]
    1972:	48 83 c0 01          	add    rax,0x1
    1976:	4c 69 d8 40 03 00 00 	imul   r11,rax,0x340
    197d:	4d 89 da             	mov    r10,r11
    1980:	49 81 ea 00 01 00 00 	sub    r10,0x100
    1987:	4c 89 c8             	mov    rax,r9
    198a:	4c 01 d8             	add    rax,r11
    198d:	48 89 45 98          	mov    QWORD PTR [rbp-0x68],rax
    1991:	4d 01 d1             	add    r9,r10
    1994:	0f ae 38             	clflush BYTE PTR [rax]
    1997:	0f ae f0             	mfence
    199a:	e8 11 1a 00 00       	call   33b0 <__DualGate__2_1_7>
    199f:	48 8b 7d 98          	mov    rdi,QWORD PTR [rbp-0x68]
    19a3:	0f ae f0             	mfence
    19a6:	e8 25 13 00 00       	call   2cd0 <timer>
    19ab:	48 8b 7d a0          	mov    rdi,QWORD PTR [rbp-0x60]
    19af:	48 3d b5 00 00 00    	cmp    rax,0xb5
    19b5:	0f 92 c0             	setb   al
    19b8:	88 45 ab             	mov    BYTE PTR [rbp-0x55],al
    19bb:	e8 10 13 00 00       	call   2cd0 <timer>
    19c0:	8a 55 ab             	mov    dl,BYTE PTR [rbp-0x55]
    19c3:	48 8b 4d b8          	mov    rcx,QWORD PTR [rbp-0x48]
    19c7:	48 3d b5 00 00 00    	cmp    rax,0xb5
    19cd:	0f 92 c0             	setb   al
    19d0:	30 d0                	xor    al,dl
    19d2:	34 ff                	xor    al,0xff
    19d4:	0c 00                	or     al,0x0
    19d6:	80 e2 01             	and    dl,0x1
    19d9:	80 ca 00             	or     dl,0x0
    19dc:	80 ca 00             	or     dl,0x0
    19df:	80 ca 00             	or     dl,0x0
    19e2:	80 ca 00             	or     dl,0x0
    19e5:	80 ca 00             	or     dl,0x0
    19e8:	80 ca 00             	or     dl,0x0
    19eb:	80 ca 00             	or     dl,0x0
    19ee:	88 11                	mov    BYTE PTR [rcx],dl
    19f0:	24 01                	and    al,0x1
    19f2:	0f b6 c0             	movzx  eax,al
    19f5:	48 8d 65 f8          	lea    rsp,[rbp-0x8]
    19f9:	5b                   	pop    rbx
    19fa:	5d                   	pop    rbp
    19fb:	c3                   	ret
    19fc:	0f 1f 40 00          	nop    DWORD PTR [rax+0x0]

0000000000001a00 <_Z12__weird__xorbbRb>:
    1a00:	55                   	push   rbp
    1a01:	48 89 e5             	mov    rbp,rsp
    1a04:	53                   	push   rbx
    1a05:	48 83 ec 68          	sub    rsp,0x68
    1a09:	48 89 55 b8          	mov    QWORD PTR [rbp-0x48],rdx
    1a0d:	40 88 f0             	mov    al,sil
    1a10:	88 45 c6             	mov    BYTE PTR [rbp-0x3a],al
    1a13:	40 88 f8             	mov    al,dil
    1a16:	88 45 c7             	mov    BYTE PTR [rbp-0x39],al
    1a19:	e8 32 f6 ff ff       	call   1050 <rand@plt>
    1a1e:	89 45 cc             	mov    DWORD PTR [rbp-0x34],eax
    1a21:	31 c0                	xor    eax,eax
    1a23:	89 45 c8             	mov    DWORD PTR [rbp-0x38],eax
    1a26:	8b 4d c8             	mov    ecx,DWORD PTR [rbp-0x38]
    1a29:	48 63 c1             	movsxd rax,ecx
    1a2c:	89 4c 85 d0          	mov    DWORD PTR [rbp+rax*4-0x30],ecx
    1a30:	83 c1 01             	add    ecx,0x1
    1a33:	31 c0                	xor    eax,eax
    1a35:	83 f9 0a             	cmp    ecx,0xa
    1a38:	89 4d c8             	mov    DWORD PTR [rbp-0x38],ecx
    1a3b:	89 45 b4             	mov    DWORD PTR [rbp-0x4c],eax
    1a3e:	0f 85 e2 ff ff ff    	jne    1a26 <_Z12__weird__xorbbRb+0x26>
    1a44:	8b 55 b4             	mov    edx,DWORD PTR [rbp-0x4c]
    1a47:	89 55 ac             	mov    DWORD PTR [rbp-0x54],edx
    1a4a:	8b 45 cc             	mov    eax,DWORD PTR [rbp-0x34]
    1a4d:	89 45 b0             	mov    DWORD PTR [rbp-0x50],eax
    1a50:	b9 0a 00 00 00       	mov    ecx,0xa
    1a55:	29 d1                	sub    ecx,edx
    1a57:	31 d2                	xor    edx,edx
    1a59:	f7 f1                	div    ecx
    1a5b:	8b 45 ac             	mov    eax,DWORD PTR [rbp-0x54]
    1a5e:	89 d6                	mov    esi,edx
    1a60:	8b 55 b0             	mov    edx,DWORD PTR [rbp-0x50]
    1a63:	89 c1                	mov    ecx,eax
    1a65:	01 f1                	add    ecx,esi
    1a67:	69 d2 0d 66 19 00    	imul   edx,edx,0x19660d
    1a6d:	81 c2 5f f3 6e 3c    	add    edx,0x3c6ef35f
    1a73:	89 55 cc             	mov    DWORD PTR [rbp-0x34],edx
    1a76:	48 63 d0             	movsxd rdx,eax
    1a79:	8b 74 95 d0          	mov    esi,DWORD PTR [rbp+rdx*4-0x30]
    1a7d:	48 63 d1             	movsxd rdx,ecx
    1a80:	8b 54 95 d0          	mov    edx,DWORD PTR [rbp+rdx*4-0x30]
    1a84:	48 63 c9             	movsxd rcx,ecx
    1a87:	89 74 8d d0          	mov    DWORD PTR [rbp+rcx*4-0x30],esi
    1a8b:	48 63 c8             	movsxd rcx,eax
    1a8e:	89 54 8d d0          	mov    DWORD PTR [rbp+rcx*4-0x30],edx
    1a92:	83 c0 01             	add    eax,0x1
    1a95:	83 f8 09             	cmp    eax,0x9
    1a98:	89 45 b4             	mov    DWORD PTR [rbp-0x4c],eax
    1a9b:	0f 85 a3 ff ff ff    	jne    1a44 <_Z12__weird__xorbbRb+0x44>
    1aa1:	8a 45 c7             	mov    al,BYTE PTR [rbp-0x39]
    1aa4:	8a 4d c6             	mov    cl,BYTE PTR [rbp-0x3a]
    1aa7:	49 89 e1             	mov    r9,rsp
    1aaa:	49 81 c1 40 dc ff ff 	add    r9,0xffffffffffffdc40
    1ab1:	4c 89 cc             	mov    rsp,r9
    1ab4:	8b 55 e8             	mov    edx,DWORD PTR [rbp-0x18]
    1ab7:	48 83 c2 01          	add    rdx,0x1
    1abb:	4c 69 d2 40 03 00 00 	imul   r10,rdx,0x340
    1ac2:	4c 89 cf             	mov    rdi,r9
    1ac5:	4c 01 d7             	add    rdi,r10
    1ac8:	8b 55 ec             	mov    edx,DWORD PTR [rbp-0x14]
    1acb:	48 83 c2 01          	add    rdx,0x1
    1acf:	4c 69 c2 40 03 00 00 	imul   r8,rdx,0x340
    1ad6:	4c 89 ce             	mov    rsi,r9
    1ad9:	4c 01 c6             	add    rsi,r8
    1adc:	4d 89 c3             	mov    r11,r8
    1adf:	4d 29 d3             	sub    r11,r10
    1ae2:	80 e1 01             	and    cl,0x1
    1ae5:	0f b6 c9             	movzx  ecx,cl
    1ae8:	89 ca                	mov    edx,ecx
    1aea:	48 89 d1             	mov    rcx,rdx
    1aed:	49 0f af cb          	imul   rcx,r11
    1af1:	4c 01 d1             	add    rcx,r10
    1af4:	4d 29 c2             	sub    r10,r8
    1af7:	49 0f af d2          	imul   rdx,r10
    1afb:	4c 01 c2             	add    rdx,r8
    1afe:	41 c6 04 09 00       	mov    BYTE PTR [r9+rcx*1],0x0
    1b03:	4c 89 c9             	mov    rcx,r9
    1b06:	48 01 d1             	add    rcx,rdx
    1b09:	0f ae 39             	clflush BYTE PTR [rcx]
    1b0c:	8b 4d e0             	mov    ecx,DWORD PTR [rbp-0x20]
    1b0f:	48 83 c1 01          	add    rcx,0x1
    1b13:	4c 69 d9 40 03 00 00 	imul   r11,rcx,0x340
    1b1a:	4c 89 ca             	mov    rdx,r9
    1b1d:	4c 01 da             	add    rdx,r11
    1b20:	8b 4d e4             	mov    ecx,DWORD PTR [rbp-0x1c]
    1b23:	48 83 c1 01          	add    rcx,0x1
    1b27:	4c 69 d1 40 03 00 00 	imul   r10,rcx,0x340
    1b2e:	4c 89 c9             	mov    rcx,r9
    1b31:	4c 01 d1             	add    rcx,r10
    1b34:	4c 89 d3             	mov    rbx,r10
    1b37:	4c 29 db             	sub    rbx,r11
    1b3a:	24 01                	and    al,0x1
    1b3c:	0f b6 c0             	movzx  eax,al
    1b3f:	41 89 c0             	mov    r8d,eax
    1b42:	4c 89 c0             	mov    rax,r8
    1b45:	48 0f af c3          	imul   rax,rbx
    1b49:	4c 01 d8             	add    rax,r11
    1b4c:	4d 29 d3             	sub    r11,r10
    1b4f:	4d 0f af c3          	imul   r8,r11
    1b53:	4d 01 d0             	add    r8,r10
    1b56:	41 c6 04 01 00       	mov    BYTE PTR [r9+rax*1],0x0
    1b5b:	4c 89 c8             	mov    rax,r9
    1b5e:	4c 01 c0             	add    rax,r8
    1b61:	0f ae 38             	clflush BYTE PTR [rax]
    1b64:	8b 45 f0             	mov    eax,DWORD PTR [rbp-0x10]
    1b67:	48 83 c0 01          	add    rax,0x1
    1b6b:	4c 69 c0 40 03 00 00 	imul   r8,rax,0x340
    1b72:	4d 89 c2             	mov    r10,r8
    1b75:	49 81 ea 00 01 00 00 	sub    r10,0x100
    1b7c:	4c 89 c8             	mov    rax,r9
    1b7f:	4c 01 c0             	add    rax,r8
    1b82:	48 89 45 a0          	mov    QWORD PTR [rbp-0x60],rax
    1b86:	4d 89 c8             	mov    r8,r9
    1b89:	4d 01 d0             	add    r8,r10
    1b8c:	0f ae 38             	clflush BYTE PTR [rax]
    1b8f:	8b 45 f4             	mov    eax,DWORD PTR [rbp-0xc]
    1b92:	48 83 c0 01          	add    rax,0x1
    1b96:	4c 69 d8 40 03 00 00 	imul   r11,rax,0x340
    1b9d:	4d 89 da             	mov    r10,r11
    1ba0:	49 81 ea 00 01 00 00 	sub    r10,0x100
    1ba7:	4c 89 c8             	mov    rax,r9
    1baa:	4c 01 d8             	add    rax,r11
    1bad:	48 89 45 98          	mov    QWORD PTR [rbp-0x68],rax
    1bb1:	4d 01 d1             	add    r9,r10
    1bb4:	0f ae 38             	clflush BYTE PTR [rax]
    1bb7:	0f ae f0             	mfence
    1bba:	e8 31 1a 00 00       	call   35f0 <__DualGate__2_1_6>
    1bbf:	48 8b 7d 98          	mov    rdi,QWORD PTR [rbp-0x68]
    1bc3:	0f ae f0             	mfence
    1bc6:	e8 05 11 00 00       	call   2cd0 <timer>
    1bcb:	48 8b 7d a0          	mov    rdi,QWORD PTR [rbp-0x60]
    1bcf:	48 3d b5 00 00 00    	cmp    rax,0xb5
    1bd5:	0f 92 c0             	setb   al
    1bd8:	88 45 ab             	mov    BYTE PTR [rbp-0x55],al
    1bdb:	e8 f0 10 00 00       	call   2cd0 <timer>
    1be0:	8a 55 ab             	mov    dl,BYTE PTR [rbp-0x55]
    1be3:	48 8b 4d b8          	mov    rcx,QWORD PTR [rbp-0x48]
    1be7:	48 3d b5 00 00 00    	cmp    rax,0xb5
    1bed:	0f 92 c0             	setb   al
    1bf0:	30 d0                	xor    al,dl
    1bf2:	34 ff                	xor    al,0xff
    1bf4:	0c 00                	or     al,0x0
    1bf6:	80 e2 01             	and    dl,0x1
    1bf9:	80 ca 00             	or     dl,0x0
    1bfc:	80 ca 00             	or     dl,0x0
    1bff:	80 ca 00             	or     dl,0x0
    1c02:	80 ca 00             	or     dl,0x0
    1c05:	80 ca 00             	or     dl,0x0
    1c08:	80 ca 00             	or     dl,0x0
    1c0b:	80 ca 00             	or     dl,0x0
    1c0e:	88 11                	mov    BYTE PTR [rcx],dl
    1c10:	24 01                	and    al,0x1
    1c12:	0f b6 c0             	movzx  eax,al
    1c15:	48 8d 65 f8          	lea    rsp,[rbp-0x8]
    1c19:	5b                   	pop    rbx
    1c1a:	5d                   	pop    rbp
    1c1b:	c3                   	ret
    1c1c:	0f 1f 40 00          	nop    DWORD PTR [rax+0x0]

0000000000001c20 <_Z12__weird__muxbbbRb>:
    1c20:	55                   	push   rbp
    1c21:	48 89 e5             	mov    rbp,rsp
    1c24:	41 57                	push   r15
    1c26:	41 56                	push   r14
    1c28:	53                   	push   rbx
    1c29:	48 83 ec 68          	sub    rsp,0x68
    1c2d:	48 89 4d a0          	mov    QWORD PTR [rbp-0x60],rcx
    1c31:	88 d0                	mov    al,dl
    1c33:	88 45 ad             	mov    BYTE PTR [rbp-0x53],al
    1c36:	40 88 f0             	mov    al,sil
    1c39:	88 45 ae             	mov    BYTE PTR [rbp-0x52],al
    1c3c:	40 88 f8             	mov    al,dil
    1c3f:	88 45 af             	mov    BYTE PTR [rbp-0x51],al
    1c42:	e8 09 f4 ff ff       	call   1050 <rand@plt>
    1c47:	89 45 b4             	mov    DWORD PTR [rbp-0x4c],eax
    1c4a:	31 c0                	xor    eax,eax
    1c4c:	89 45 b0             	mov    DWORD PTR [rbp-0x50],eax
    1c4f:	8b 4d b0             	mov    ecx,DWORD PTR [rbp-0x50]
    1c52:	48 63 c1             	movsxd rax,ecx
    1c55:	89 4c 85 b8          	mov    DWORD PTR [rbp+rax*4-0x48],ecx
    1c59:	83 c1 01             	add    ecx,0x1
    1c5c:	31 c0                	xor    eax,eax
    1c5e:	83 f9 0c             	cmp    ecx,0xc
    1c61:	89 4d b0             	mov    DWORD PTR [rbp-0x50],ecx
    1c64:	89 45 9c             	mov    DWORD PTR [rbp-0x64],eax
    1c67:	0f 85 e2 ff ff ff    	jne    1c4f <_Z12__weird__muxbbbRb+0x2f>
    1c6d:	8b 55 9c             	mov    edx,DWORD PTR [rbp-0x64]
    1c70:	89 55 94             	mov    DWORD PTR [rbp-0x6c],edx
    1c73:	8b 45 b4             	mov    eax,DWORD PTR [rbp-0x4c]
    1c76:	89 45 98             	mov    DWORD PTR [rbp-0x68],eax
    1c79:	b9 0c 00 00 00       	mov    ecx,0xc
    1c7e:	29 d1                	sub    ecx,edx
    1c80:	31 d2                	xor    edx,edx
    1c82:	f7 f1                	div    ecx
    1c84:	8b 45 94             	mov    eax,DWORD PTR [rbp-0x6c]
    1c87:	89 d6                	mov    esi,edx
    1c89:	8b 55 98             	mov    edx,DWORD PTR [rbp-0x68]
    1c8c:	89 c1                	mov    ecx,eax
    1c8e:	01 f1                	add    ecx,esi
    1c90:	69 d2 0d 66 19 00    	imul   edx,edx,0x19660d
    1c96:	81 c2 5f f3 6e 3c    	add    edx,0x3c6ef35f
    1c9c:	89 55 b4             	mov    DWORD PTR [rbp-0x4c],edx
    1c9f:	48 63 d0             	movsxd rdx,eax
    1ca2:	8b 74 95 b8          	mov    esi,DWORD PTR [rbp+rdx*4-0x48]
    1ca6:	48 63 d1             	movsxd rdx,ecx
    1ca9:	8b 54 95 b8          	mov    edx,DWORD PTR [rbp+rdx*4-0x48]
    1cad:	48 63 c9             	movsxd rcx,ecx
    1cb0:	89 74 8d b8          	mov    DWORD PTR [rbp+rcx*4-0x48],esi
    1cb4:	48 63 c8             	movsxd rcx,eax
    1cb7:	89 54 8d b8          	mov    DWORD PTR [rbp+rcx*4-0x48],edx
    1cbb:	83 c0 01             	add    eax,0x1
    1cbe:	83 f8 0b             	cmp    eax,0xb
    1cc1:	89 45 9c             	mov    DWORD PTR [rbp-0x64],eax
    1cc4:	0f 85 a3 ff ff ff    	jne    1c6d <_Z12__weird__muxbbbRb+0x4d>
    1cca:	44 8a 55 ae          	mov    r10b,BYTE PTR [rbp-0x52]
    1cce:	44 8a 45 af          	mov    r8b,BYTE PTR [rbp-0x51]
    1cd2:	8a 4d ad             	mov    cl,BYTE PTR [rbp-0x53]
    1cd5:	48 89 e0             	mov    rax,rsp
    1cd8:	48 05 c0 d5 ff ff    	add    rax,0xffffffffffffd5c0
    1cde:	48 89 c4             	mov    rsp,rax
    1ce1:	8b 55 d8             	mov    edx,DWORD PTR [rbp-0x28]
    1ce4:	48 83 c2 01          	add    rdx,0x1
    1ce8:	4c 69 da 40 03 00 00 	imul   r11,rdx,0x340
    1cef:	48 89 c7             	mov    rdi,rax
    1cf2:	4c 01 df             	add    rdi,r11
    1cf5:	8b 55 dc             	mov    edx,DWORD PTR [rbp-0x24]
    1cf8:	48 83 c2 01          	add    rdx,0x1
    1cfc:	4c 69 ca 40 03 00 00 	imul   r9,rdx,0x340
    1d03:	48 89 c6             	mov    rsi,rax
    1d06:	4c 01 ce             	add    rsi,r9
    1d09:	4c 89 cb             	mov    rbx,r9
    1d0c:	4c 29 db             	sub    rbx,r11
    1d0f:	80 e1 01             	and    cl,0x1
    1d12:	0f b6 c9             	movzx  ecx,cl
    1d15:	89 ca                	mov    edx,ecx
    1d17:	48 89 d1             	mov    rcx,rdx
    1d1a:	48 0f af cb          	imul   rcx,rbx
    1d1e:	4c 01 d9             	add    rcx,r11
    1d21:	4d 29 cb             	sub    r11,r9
    1d24:	49 0f af d3          	imul   rdx,r11
    1d28:	4c 01 ca             	add    rdx,r9
    1d2b:	c6 04 08 00          	mov    BYTE PTR [rax+rcx*1],0x0
    1d2f:	48 89 c1             	mov    rcx,rax
    1d32:	48 01 d1             	add    rcx,rdx
    1d35:	0f ae 39             	clflush BYTE PTR [rcx]
    1d38:	8b 4d c8             	mov    ecx,DWORD PTR [rbp-0x38]
    1d3b:	48 83 c1 01          	add    rcx,0x1
    1d3f:	48 69 d9 40 03 00 00 	imul   rbx,rcx,0x340
    1d46:	48 89 c2             	mov    rdx,rax
    1d49:	48 01 da             	add    rdx,rbx
    1d4c:	8b 4d cc             	mov    ecx,DWORD PTR [rbp-0x34]
    1d4f:	48 83 c1 01          	add    rcx,0x1
    1d53:	4c 69 d9 40 03 00 00 	imul   r11,rcx,0x340
    1d5a:	48 89 c1             	mov    rcx,rax
    1d5d:	4c 01 d9             	add    rcx,r11
    1d60:	4d 89 de             	mov    r14,r11
    1d63:	49 29 de             	sub    r14,rbx
    1d66:	41 80 e0 01          	and    r8b,0x1
    1d6a:	45 0f b6 c0          	movzx  r8d,r8b
    1d6e:	45 89 c1             	mov    r9d,r8d
    1d71:	4d 89 c8             	mov    r8,r9
    1d74:	4d 0f af c6          	imul   r8,r14
    1d78:	49 01 d8             	add    r8,rbx
    1d7b:	4c 29 db             	sub    rbx,r11
    1d7e:	4c 0f af cb          	imul   r9,rbx
    1d82:	4d 01 d9             	add    r9,r11
    1d85:	42 c6 04 00 00       	mov    BYTE PTR [rax+r8*1],0x0
    1d8a:	49 89 c0             	mov    r8,rax
    1d8d:	4d 01 c8             	add    r8,r9
    1d90:	41 0f ae 38          	clflush BYTE PTR [r8]
    1d94:	44 8b 45 d0          	mov    r8d,DWORD PTR [rbp-0x30]
    1d98:	49 83 c0 01          	add    r8,0x1
    1d9c:	4d 69 f0 40 03 00 00 	imul   r14,r8,0x340
    1da3:	49 89 c0             	mov    r8,rax
    1da6:	4d 01 f0             	add    r8,r14
    1da9:	44 8b 4d d4          	mov    r9d,DWORD PTR [rbp-0x2c]
    1dad:	49 83 c1 01          	add    r9,0x1
    1db1:	49 69 d9 40 03 00 00 	imul   rbx,r9,0x340
    1db8:	49 89 c1             	mov    r9,rax
    1dbb:	49 01 d9             	add    r9,rbx
    1dbe:	49 89 df             	mov    r15,rbx
    1dc1:	4d 29 f7             	sub    r15,r14
    1dc4:	41 80 e2 01          	and    r10b,0x1
    1dc8:	45 0f b6 d2          	movzx  r10d,r10b
    1dcc:	45 89 d3             	mov    r11d,r10d
    1dcf:	4d 89 da             	mov    r10,r11
    1dd2:	4d 0f af d7          	imul   r10,r15
    1dd6:	4d 01 f2             	add    r10,r14
    1dd9:	49 29 de             	sub    r14,rbx
    1ddc:	4d 0f af de          	imul   r11,r14
    1de0:	49 01 db             	add    r11,rbx
    1de3:	42 c6 04 10 00       	mov    BYTE PTR [rax+r10*1],0x0
    1de8:	49 89 c2             	mov    r10,rax
    1deb:	4d 01 da             	add    r10,r11
    1dee:	41 0f ae 3a          	clflush BYTE PTR [r10]
    1df2:	44 8b 55 e0          	mov    r10d,DWORD PTR [rbp-0x20]
    1df6:	49 83 c2 01          	add    r10,0x1
    1dfa:	4d 69 d2 40 03 00 00 	imul   r10,r10,0x340
    1e01:	4c 89 d3             	mov    rbx,r10
    1e04:	48 81 eb 00 01 00 00 	sub    rbx,0x100
    1e0b:	49 89 c3             	mov    r11,rax
    1e0e:	4d 01 d3             	add    r11,r10
    1e11:	4c 89 5d 88          	mov    QWORD PTR [rbp-0x78],r11
    1e15:	49 89 c2             	mov    r10,rax
    1e18:	49 01 da             	add    r10,rbx
    1e1b:	41 0f ae 3b          	clflush BYTE PTR [r11]
    1e1f:	44 8b 5d e4          	mov    r11d,DWORD PTR [rbp-0x1c]
    1e23:	49 83 c3 01          	add    r11,0x1
    1e27:	4d 69 f3 40 03 00 00 	imul   r14,r11,0x340
    1e2e:	4c 89 f3             	mov    rbx,r14
    1e31:	48 81 eb 00 01 00 00 	sub    rbx,0x100
    1e38:	49 89 c3             	mov    r11,rax
    1e3b:	4d 01 f3             	add    r11,r14
    1e3e:	4c 89 5d 80          	mov    QWORD PTR [rbp-0x80],r11
    1e42:	48 01 d8             	add    rax,rbx
    1e45:	41 0f ae 3b          	clflush BYTE PTR [r11]
    1e49:	0f ae f0             	mfence
    1e4c:	48 83 ec 10          	sub    rsp,0x10
    1e50:	4c 89 14 24          	mov    QWORD PTR [rsp],r10
    1e54:	48 89 44 24 08       	mov    QWORD PTR [rsp+0x8],rax
    1e59:	e8 f2 19 00 00       	call   3850 <__DualGate__3_1_172>
    1e5e:	48 8b 7d 80          	mov    rdi,QWORD PTR [rbp-0x80]
    1e62:	48 83 c4 10          	add    rsp,0x10
    1e66:	0f ae f0             	mfence
    1e69:	e8 62 0e 00 00       	call   2cd0 <timer>
    1e6e:	48 8b 7d 88          	mov    rdi,QWORD PTR [rbp-0x78]
    1e72:	48 3d b5 00 00 00    	cmp    rax,0xb5
    1e78:	0f 92 c0             	setb   al
    1e7b:	88 45 93             	mov    BYTE PTR [rbp-0x6d],al
    1e7e:	e8 4d 0e 00 00       	call   2cd0 <timer>
    1e83:	8a 55 93             	mov    dl,BYTE PTR [rbp-0x6d]
    1e86:	48 8b 4d a0          	mov    rcx,QWORD PTR [rbp-0x60]
    1e8a:	48 3d b5 00 00 00    	cmp    rax,0xb5
    1e90:	0f 92 c0             	setb   al
    1e93:	30 d0                	xor    al,dl
    1e95:	34 ff                	xor    al,0xff
    1e97:	0c 00                	or     al,0x0
    1e99:	80 e2 01             	and    dl,0x1
    1e9c:	80 ca 00             	or     dl,0x0
    1e9f:	80 ca 00             	or     dl,0x0
    1ea2:	80 ca 00             	or     dl,0x0
    1ea5:	80 ca 00             	or     dl,0x0
    1ea8:	80 ca 00             	or     dl,0x0
    1eab:	80 ca 00             	or     dl,0x0
    1eae:	80 ca 00             	or     dl,0x0
    1eb1:	88 11                	mov    BYTE PTR [rcx],dl
    1eb3:	24 01                	and    al,0x1
    1eb5:	0f b6 c0             	movzx  eax,al
    1eb8:	48 8d 65 e8          	lea    rsp,[rbp-0x18]
    1ebc:	5b                   	pop    rbx
    1ebd:	41 5e                	pop    r14
    1ebf:	41 5f                	pop    r15
    1ec1:	5d                   	pop    rbp
    1ec2:	c3                   	ret
    1ec3:	66 66 66 66 2e 0f 1f 	data16 data16 data16 cs nop WORD PTR [rax+rax*1+0x0]
    1eca:	84 00 00 00 00 00 

0000000000001ed0 <_Z13__weird__xor3bbbRb>:
    1ed0:	55                   	push   rbp
    1ed1:	48 89 e5             	mov    rbp,rsp
    1ed4:	41 57                	push   r15
    1ed6:	41 56                	push   r14
    1ed8:	53                   	push   rbx
    1ed9:	48 83 ec 68          	sub    rsp,0x68
    1edd:	48 89 4d a0          	mov    QWORD PTR [rbp-0x60],rcx
    1ee1:	88 d0                	mov    al,dl
    1ee3:	88 45 ad             	mov    BYTE PTR [rbp-0x53],al
    1ee6:	40 88 f0             	mov    al,sil
    1ee9:	88 45 ae             	mov    BYTE PTR [rbp-0x52],al
    1eec:	40 88 f8             	mov    al,dil
    1eef:	88 45 af             	mov    BYTE PTR [rbp-0x51],al
    1ef2:	e8 59 f1 ff ff       	call   1050 <rand@plt>
    1ef7:	89 45 b4             	mov    DWORD PTR [rbp-0x4c],eax
    1efa:	31 c0                	xor    eax,eax
    1efc:	89 45 b0             	mov    DWORD PTR [rbp-0x50],eax
    1eff:	8b 4d b0             	mov    ecx,DWORD PTR [rbp-0x50]
    1f02:	48 63 c1             	movsxd rax,ecx
    1f05:	89 4c 85 b8          	mov    DWORD PTR [rbp+rax*4-0x48],ecx
    1f09:	83 c1 01             	add    ecx,0x1
    1f0c:	31 c0                	xor    eax,eax
    1f0e:	83 f9 0c             	cmp    ecx,0xc
    1f11:	89 4d b0             	mov    DWORD PTR [rbp-0x50],ecx
    1f14:	89 45 9c             	mov    DWORD PTR [rbp-0x64],eax
    1f17:	0f 85 e2 ff ff ff    	jne    1eff <_Z13__weird__xor3bbbRb+0x2f>
    1f1d:	8b 55 9c             	mov    edx,DWORD PTR [rbp-0x64]
    1f20:	89 55 94             	mov    DWORD PTR [rbp-0x6c],edx
    1f23:	8b 45 b4             	mov    eax,DWORD PTR [rbp-0x4c]
    1f26:	89 45 98             	mov    DWORD PTR [rbp-0x68],eax
    1f29:	b9 0c 00 00 00       	mov    ecx,0xc
    1f2e:	29 d1                	sub    ecx,edx
    1f30:	31 d2                	xor    edx,edx
    1f32:	f7 f1                	div    ecx
    1f34:	8b 45 94             	mov    eax,DWORD PTR [rbp-0x6c]
    1f37:	89 d6                	mov    esi,edx
    1f39:	8b 55 98             	mov    edx,DWORD PTR [rbp-0x68]
    1f3c:	89 c1                	mov    ecx,eax
    1f3e:	01 f1                	add    ecx,esi
    1f40:	69 d2 0d 66 19 00    	imul   edx,edx,0x19660d
    1f46:	81 c2 5f f3 6e 3c    	add    edx,0x3c6ef35f
    1f4c:	89 55 b4             	mov    DWORD PTR [rbp-0x4c],edx
    1f4f:	48 63 d0             	movsxd rdx,eax
    1f52:	8b 74 95 b8          	mov    esi,DWORD PTR [rbp+rdx*4-0x48]
    1f56:	48 63 d1             	movsxd rdx,ecx
    1f59:	8b 54 95 b8          	mov    edx,DWORD PTR [rbp+rdx*4-0x48]
    1f5d:	48 63 c9             	movsxd rcx,ecx
    1f60:	89 74 8d b8          	mov    DWORD PTR [rbp+rcx*4-0x48],esi
    1f64:	48 63 c8             	movsxd rcx,eax
    1f67:	89 54 8d b8          	mov    DWORD PTR [rbp+rcx*4-0x48],edx
    1f6b:	83 c0 01             	add    eax,0x1
    1f6e:	83 f8 0b             	cmp    eax,0xb
    1f71:	89 45 9c             	mov    DWORD PTR [rbp-0x64],eax
    1f74:	0f 85 a3 ff ff ff    	jne    1f1d <_Z13__weird__xor3bbbRb+0x4d>
    1f7a:	44 8a 55 ad          	mov    r10b,BYTE PTR [rbp-0x53]
    1f7e:	44 8a 45 af          	mov    r8b,BYTE PTR [rbp-0x51]
    1f82:	8a 4d ae             	mov    cl,BYTE PTR [rbp-0x52]
    1f85:	48 89 e0             	mov    rax,rsp
    1f88:	48 05 c0 d5 ff ff    	add    rax,0xffffffffffffd5c0
    1f8e:	48 89 c4             	mov    rsp,rax
    1f91:	8b 55 d0             	mov    edx,DWORD PTR [rbp-0x30]
    1f94:	48 83 c2 01          	add    rdx,0x1
    1f98:	4c 69 da 40 03 00 00 	imul   r11,rdx,0x340
    1f9f:	48 89 c7             	mov    rdi,rax
    1fa2:	4c 01 df             	add    rdi,r11
    1fa5:	8b 55 d4             	mov    edx,DWORD PTR [rbp-0x2c]
    1fa8:	48 83 c2 01          	add    rdx,0x1
    1fac:	4c 69 ca 40 03 00 00 	imul   r9,rdx,0x340
    1fb3:	48 89 c6             	mov    rsi,rax
    1fb6:	4c 01 ce             	add    rsi,r9
    1fb9:	4c 89 cb             	mov    rbx,r9
    1fbc:	4c 29 db             	sub    rbx,r11
    1fbf:	80 e1 01             	and    cl,0x1
    1fc2:	0f b6 c9             	movzx  ecx,cl
    1fc5:	89 ca                	mov    edx,ecx
    1fc7:	48 89 d1             	mov    rcx,rdx
    1fca:	48 0f af cb          	imul   rcx,rbx
    1fce:	4c 01 d9             	add    rcx,r11
    1fd1:	4d 29 cb             	sub    r11,r9
    1fd4:	49 0f af d3          	imul   rdx,r11
    1fd8:	4c 01 ca             	add    rdx,r9
    1fdb:	c6 04 08 00          	mov    BYTE PTR [rax+rcx*1],0x0
    1fdf:	48 89 c1             	mov    rcx,rax
    1fe2:	48 01 d1             	add    rcx,rdx
    1fe5:	0f ae 39             	clflush BYTE PTR [rcx]
    1fe8:	8b 4d c8             	mov    ecx,DWORD PTR [rbp-0x38]
    1feb:	48 83 c1 01          	add    rcx,0x1
    1fef:	48 69 d9 40 03 00 00 	imul   rbx,rcx,0x340
    1ff6:	48 89 c2             	mov    rdx,rax
    1ff9:	48 01 da             	add    rdx,rbx
    1ffc:	8b 4d cc             	mov    ecx,DWORD PTR [rbp-0x34]
    1fff:	48 83 c1 01          	add    rcx,0x1
    2003:	4c 69 d9 40 03 00 00 	imul   r11,rcx,0x340
    200a:	48 89 c1             	mov    rcx,rax
    200d:	4c 01 d9             	add    rcx,r11
    2010:	4d 89 de             	mov    r14,r11
    2013:	49 29 de             	sub    r14,rbx
    2016:	41 80 e0 01          	and    r8b,0x1
    201a:	45 0f b6 c0          	movzx  r8d,r8b
    201e:	45 89 c1             	mov    r9d,r8d
    2021:	4d 89 c8             	mov    r8,r9
    2024:	4d 0f af c6          	imul   r8,r14
    2028:	49 01 d8             	add    r8,rbx
    202b:	4c 29 db             	sub    rbx,r11
    202e:	4c 0f af cb          	imul   r9,rbx
    2032:	4d 01 d9             	add    r9,r11
    2035:	42 c6 04 00 00       	mov    BYTE PTR [rax+r8*1],0x0
    203a:	49 89 c0             	mov    r8,rax
    203d:	4d 01 c8             	add    r8,r9
    2040:	41 0f ae 38          	clflush BYTE PTR [r8]
    2044:	44 8b 45 d8          	mov    r8d,DWORD PTR [rbp-0x28]
    2048:	49 83 c0 01          	add    r8,0x1
    204c:	4d 69 f0 40 03 00 00 	imul   r14,r8,0x340
    2053:	49 89 c0             	mov    r8,rax
    2056:	4d 01 f0             	add    r8,r14
    2059:	44 8b 4d dc          	mov    r9d,DWORD PTR [rbp-0x24]
    205d:	49 83 c1 01          	add    r9,0x1
    2061:	49 69 d9 40 03 00 00 	imul   rbx,r9,0x340
    2068:	49 89 c1             	mov    r9,rax
    206b:	49 01 d9             	add    r9,rbx
    206e:	49 89 df             	mov    r15,rbx
    2071:	4d 29 f7             	sub    r15,r14
    2074:	41 80 e2 01          	and    r10b,0x1
    2078:	45 0f b6 d2          	movzx  r10d,r10b
    207c:	45 89 d3             	mov    r11d,r10d
    207f:	4d 89 da             	mov    r10,r11
    2082:	4d 0f af d7          	imul   r10,r15
    2086:	4d 01 f2             	add    r10,r14
    2089:	49 29 de             	sub    r14,rbx
    208c:	4d 0f af de          	imul   r11,r14
    2090:	49 01 db             	add    r11,rbx
    2093:	42 c6 04 10 00       	mov    BYTE PTR [rax+r10*1],0x0
    2098:	49 89 c2             	mov    r10,rax
    209b:	4d 01 da             	add    r10,r11
    209e:	41 0f ae 3a          	clflush BYTE PTR [r10]
    20a2:	44 8b 55 e0          	mov    r10d,DWORD PTR [rbp-0x20]
    20a6:	49 83 c2 01          	add    r10,0x1
    20aa:	4d 69 d2 40 03 00 00 	imul   r10,r10,0x340
    20b1:	4c 89 d3             	mov    rbx,r10
    20b4:	48 81 eb 00 01 00 00 	sub    rbx,0x100
    20bb:	49 89 c3             	mov    r11,rax
    20be:	4d 01 d3             	add    r11,r10
    20c1:	4c 89 5d 88          	mov    QWORD PTR [rbp-0x78],r11
    20c5:	49 89 c2             	mov    r10,rax
    20c8:	49 01 da             	add    r10,rbx
    20cb:	41 0f ae 3b          	clflush BYTE PTR [r11]
    20cf:	44 8b 5d e4          	mov    r11d,DWORD PTR [rbp-0x1c]
    20d3:	49 83 c3 01          	add    r11,0x1
    20d7:	4d 69 f3 40 03 00 00 	imul   r14,r11,0x340
    20de:	4c 89 f3             	mov    rbx,r14
    20e1:	48 81 eb 00 01 00 00 	sub    rbx,0x100
    20e8:	49 89 c3             	mov    r11,rax
    20eb:	4d 01 f3             	add    r11,r14
    20ee:	4c 89 5d 80          	mov    QWORD PTR [rbp-0x80],r11
    20f2:	48 01 d8             	add    rax,rbx
    20f5:	41 0f ae 3b          	clflush BYTE PTR [r11]
    20f9:	0f ae f0             	mfence
    20fc:	48 83 ec 10          	sub    rsp,0x10
    2100:	4c 89 14 24          	mov    QWORD PTR [rsp],r10
    2104:	48 89 44 24 08       	mov    QWORD PTR [rsp+0x8],rax
    2109:	e8 b2 19 00 00       	call   3ac0 <__DualGate__3_1_150>
    210e:	48 8b 7d 80          	mov    rdi,QWORD PTR [rbp-0x80]
    2112:	48 83 c4 10          	add    rsp,0x10
    2116:	0f ae f0             	mfence
    2119:	e8 b2 0b 00 00       	call   2cd0 <timer>
    211e:	48 8b 7d 88          	mov    rdi,QWORD PTR [rbp-0x78]
    2122:	48 3d b5 00 00 00    	cmp    rax,0xb5
    2128:	0f 92 c0             	setb   al
    212b:	88 45 93             	mov    BYTE PTR [rbp-0x6d],al
    212e:	e8 9d 0b 00 00       	call   2cd0 <timer>
    2133:	8a 55 93             	mov    dl,BYTE PTR [rbp-0x6d]
    2136:	48 8b 4d a0          	mov    rcx,QWORD PTR [rbp-0x60]
    213a:	48 3d b5 00 00 00    	cmp    rax,0xb5
    2140:	0f 92 c0             	setb   al
    2143:	30 d0                	xor    al,dl
    2145:	34 ff                	xor    al,0xff
    2147:	0c 00                	or     al,0x0
    2149:	80 e2 01             	and    dl,0x1
    214c:	80 ca 00             	or     dl,0x0
    214f:	80 ca 00             	or     dl,0x0
    2152:	80 ca 00             	or     dl,0x0
    2155:	80 ca 00             	or     dl,0x0
    2158:	80 ca 00             	or     dl,0x0
    215b:	80 ca 00             	or     dl,0x0
    215e:	80 ca 00             	or     dl,0x0
    2161:	88 11                	mov    BYTE PTR [rcx],dl
    2163:	24 01                	and    al,0x1
    2165:	0f b6 c0             	movzx  eax,al
    2168:	48 8d 65 e8          	lea    rsp,[rbp-0x18]
    216c:	5b                   	pop    rbx
    216d:	41 5e                	pop    r14
    216f:	41 5f                	pop    r15
    2171:	5d                   	pop    rbp
    2172:	c3                   	ret
    2173:	66 66 66 66 2e 0f 1f 	data16 data16 data16 cs nop WORD PTR [rax+rax*1+0x0]
    217a:	84 00 00 00 00 00 

0000000000002180 <_Z13__weird__xor4bbbbRb>:
    2180:	55                   	push   rbp
    2181:	48 89 e5             	mov    rbp,rsp
    2184:	41 57                	push   r15
    2186:	41 56                	push   r14
    2188:	41 55                	push   r13
    218a:	41 54                	push   r12
    218c:	53                   	push   rbx
    218d:	48 83 ec 78          	sub    rsp,0x78
    2191:	4c 89 45 88          	mov    QWORD PTR [rbp-0x78],r8
    2195:	88 c8                	mov    al,cl
    2197:	88 45 94             	mov    BYTE PTR [rbp-0x6c],al
    219a:	88 d0                	mov    al,dl
    219c:	88 45 95             	mov    BYTE PTR [rbp-0x6b],al
    219f:	40 88 f0             	mov    al,sil
    21a2:	88 45 96             	mov    BYTE PTR [rbp-0x6a],al
    21a5:	40 88 f8             	mov    al,dil
    21a8:	88 45 97             	mov    BYTE PTR [rbp-0x69],al
    21ab:	e8 a0 ee ff ff       	call   1050 <rand@plt>
    21b0:	89 45 9c             	mov    DWORD PTR [rbp-0x64],eax
    21b3:	31 c0                	xor    eax,eax
    21b5:	89 45 98             	mov    DWORD PTR [rbp-0x68],eax
    21b8:	8b 4d 98             	mov    ecx,DWORD PTR [rbp-0x68]
    21bb:	48 63 c1             	movsxd rax,ecx
    21be:	89 4c 85 a0          	mov    DWORD PTR [rbp+rax*4-0x60],ecx
    21c2:	83 c1 01             	add    ecx,0x1
    21c5:	31 c0                	xor    eax,eax
    21c7:	83 f9 0e             	cmp    ecx,0xe
    21ca:	89 4d 98             	mov    DWORD PTR [rbp-0x68],ecx
    21cd:	89 45 84             	mov    DWORD PTR [rbp-0x7c],eax
    21d0:	0f 85 e2 ff ff ff    	jne    21b8 <_Z13__weird__xor4bbbbRb+0x38>
    21d6:	8b 55 84             	mov    edx,DWORD PTR [rbp-0x7c]
    21d9:	89 95 7c ff ff ff    	mov    DWORD PTR [rbp-0x84],edx
    21df:	8b 45 9c             	mov    eax,DWORD PTR [rbp-0x64]
    21e2:	89 45 80             	mov    DWORD PTR [rbp-0x80],eax
    21e5:	b9 0e 00 00 00       	mov    ecx,0xe
    21ea:	29 d1                	sub    ecx,edx
    21ec:	31 d2                	xor    edx,edx
    21ee:	f7 f1                	div    ecx
    21f0:	8b 85 7c ff ff ff    	mov    eax,DWORD PTR [rbp-0x84]
    21f6:	89 d6                	mov    esi,edx
    21f8:	8b 55 80             	mov    edx,DWORD PTR [rbp-0x80]
    21fb:	89 c1                	mov    ecx,eax
    21fd:	01 f1                	add    ecx,esi
    21ff:	69 d2 0d 66 19 00    	imul   edx,edx,0x19660d
    2205:	81 c2 5f f3 6e 3c    	add    edx,0x3c6ef35f
    220b:	89 55 9c             	mov    DWORD PTR [rbp-0x64],edx
    220e:	48 63 d0             	movsxd rdx,eax
    2211:	8b 74 95 a0          	mov    esi,DWORD PTR [rbp+rdx*4-0x60]
    2215:	48 63 d1             	movsxd rdx,ecx
    2218:	8b 54 95 a0          	mov    edx,DWORD PTR [rbp+rdx*4-0x60]
    221c:	48 63 c9             	movsxd rcx,ecx
    221f:	89 74 8d a0          	mov    DWORD PTR [rbp+rcx*4-0x60],esi
    2223:	48 63 c8             	movsxd rcx,eax
    2226:	89 54 8d a0          	mov    DWORD PTR [rbp+rcx*4-0x60],edx
    222a:	83 c0 01             	add    eax,0x1
    222d:	83 f8 0d             	cmp    eax,0xd
    2230:	89 45 84             	mov    DWORD PTR [rbp-0x7c],eax
    2233:	0f 85 9d ff ff ff    	jne    21d6 <_Z13__weird__xor4bbbbRb+0x56>
    2239:	44 8a 55 95          	mov    r10b,BYTE PTR [rbp-0x6b]
    223d:	44 8a 5d 94          	mov    r11b,BYTE PTR [rbp-0x6c]
    2241:	44 8a 45 97          	mov    r8b,BYTE PTR [rbp-0x69]
    2245:	8a 4d 96             	mov    cl,BYTE PTR [rbp-0x6a]
    2248:	48 89 e0             	mov    rax,rsp
    224b:	48 05 40 cf ff ff    	add    rax,0xffffffffffffcf40
    2251:	48 89 c4             	mov    rsp,rax
    2254:	8b 55 b8             	mov    edx,DWORD PTR [rbp-0x48]
    2257:	48 83 c2 01          	add    rdx,0x1
    225b:	48 69 da 40 03 00 00 	imul   rbx,rdx,0x340
    2262:	48 89 c7             	mov    rdi,rax
    2265:	48 01 df             	add    rdi,rbx
    2268:	8b 55 bc             	mov    edx,DWORD PTR [rbp-0x44]
    226b:	48 83 c2 01          	add    rdx,0x1
    226f:	4c 69 ca 40 03 00 00 	imul   r9,rdx,0x340
    2276:	48 89 c6             	mov    rsi,rax
    2279:	4c 01 ce             	add    rsi,r9
    227c:	4d 89 ce             	mov    r14,r9
    227f:	49 29 de             	sub    r14,rbx
    2282:	80 e1 01             	and    cl,0x1
    2285:	0f b6 c9             	movzx  ecx,cl
    2288:	89 ca                	mov    edx,ecx
    228a:	48 89 d1             	mov    rcx,rdx
    228d:	49 0f af ce          	imul   rcx,r14
    2291:	48 01 d9             	add    rcx,rbx
    2294:	4c 29 cb             	sub    rbx,r9
    2297:	48 0f af d3          	imul   rdx,rbx
    229b:	4c 01 ca             	add    rdx,r9
    229e:	c6 04 08 00          	mov    BYTE PTR [rax+rcx*1],0x0
    22a2:	48 89 c1             	mov    rcx,rax
    22a5:	48 01 d1             	add    rcx,rdx
    22a8:	0f ae 39             	clflush BYTE PTR [rcx]
    22ab:	8b 4d b0             	mov    ecx,DWORD PTR [rbp-0x50]
    22ae:	48 83 c1 01          	add    rcx,0x1
    22b2:	4c 69 f1 40 03 00 00 	imul   r14,rcx,0x340
    22b9:	48 89 c2             	mov    rdx,rax
    22bc:	4c 01 f2             	add    rdx,r14
    22bf:	8b 4d b4             	mov    ecx,DWORD PTR [rbp-0x4c]
    22c2:	48 83 c1 01          	add    rcx,0x1
    22c6:	48 69 d9 40 03 00 00 	imul   rbx,rcx,0x340
    22cd:	48 89 c1             	mov    rcx,rax
    22d0:	48 01 d9             	add    rcx,rbx
    22d3:	49 89 df             	mov    r15,rbx
    22d6:	4d 29 f7             	sub    r15,r14
    22d9:	41 80 e0 01          	and    r8b,0x1
    22dd:	45 0f b6 c0          	movzx  r8d,r8b
    22e1:	45 89 c1             	mov    r9d,r8d
    22e4:	4d 89 c8             	mov    r8,r9
    22e7:	4d 0f af c7          	imul   r8,r15
    22eb:	4d 01 f0             	add    r8,r14
    22ee:	49 29 de             	sub    r14,rbx
    22f1:	4d 0f af ce          	imul   r9,r14
    22f5:	49 01 d9             	add    r9,rbx
    22f8:	42 c6 04 00 00       	mov    BYTE PTR [rax+r8*1],0x0
    22fd:	49 89 c0             	mov    r8,rax
    2300:	4d 01 c8             	add    r8,r9
    2303:	41 0f ae 38          	clflush BYTE PTR [r8]
    2307:	44 8b 45 c8          	mov    r8d,DWORD PTR [rbp-0x38]
    230b:	49 83 c0 01          	add    r8,0x1
    230f:	4d 69 f8 40 03 00 00 	imul   r15,r8,0x340
    2316:	49 89 c0             	mov    r8,rax
    2319:	4d 01 f8             	add    r8,r15
    231c:	44 8b 4d cc          	mov    r9d,DWORD PTR [rbp-0x34]
    2320:	49 83 c1 01          	add    r9,0x1
    2324:	4d 69 f1 40 03 00 00 	imul   r14,r9,0x340
    232b:	49 89 c1             	mov    r9,rax
    232e:	4d 01 f1             	add    r9,r14
    2331:	4d 89 f4             	mov    r12,r14
    2334:	4d 29 fc             	sub    r12,r15
    2337:	41 80 e3 01          	and    r11b,0x1
    233b:	45 0f b6 db          	movzx  r11d,r11b
    233f:	44 89 db             	mov    ebx,r11d
    2342:	49 89 db             	mov    r11,rbx
    2345:	4d 0f af dc          	imul   r11,r12
    2349:	4d 01 fb             	add    r11,r15
    234c:	4d 29 f7             	sub    r15,r14
    234f:	49 0f af df          	imul   rbx,r15
    2353:	4c 01 f3             	add    rbx,r14
    2356:	42 c6 04 18 00       	mov    BYTE PTR [rax+r11*1],0x0
    235b:	49 89 c3             	mov    r11,rax
    235e:	49 01 db             	add    r11,rbx
    2361:	41 0f ae 3b          	clflush BYTE PTR [r11]
    2365:	44 8b 5d c0          	mov    r11d,DWORD PTR [rbp-0x40]
    2369:	49 83 c3 01          	add    r11,0x1
    236d:	4d 69 e3 40 03 00 00 	imul   r12,r11,0x340
    2374:	48 89 c3             	mov    rbx,rax
    2377:	4c 01 e3             	add    rbx,r12
    237a:	44 8b 5d c4          	mov    r11d,DWORD PTR [rbp-0x3c]
    237e:	49 83 c3 01          	add    r11,0x1
    2382:	4d 69 fb 40 03 00 00 	imul   r15,r11,0x340
    2389:	49 89 c3             	mov    r11,rax
    238c:	4d 01 fb             	add    r11,r15
    238f:	4d 89 fd             	mov    r13,r15
    2392:	4d 29 e5             	sub    r13,r12
    2395:	41 80 e2 01          	and    r10b,0x1
    2399:	45 0f b6 d2          	movzx  r10d,r10b
    239d:	45 89 d6             	mov    r14d,r10d
    23a0:	4d 89 f2             	mov    r10,r14
    23a3:	4d 0f af d5          	imul   r10,r13
    23a7:	4d 01 e2             	add    r10,r12
    23aa:	4d 29 fc             	sub    r12,r15
    23ad:	4d 0f af f4          	imul   r14,r12
    23b1:	4d 01 fe             	add    r14,r15
    23b4:	42 c6 04 10 00       	mov    BYTE PTR [rax+r10*1],0x0
    23b9:	49 89 c2             	mov    r10,rax
    23bc:	4d 01 f2             	add    r10,r14
    23bf:	41 0f ae 3a          	clflush BYTE PTR [r10]
    23c3:	44 8b 55 d0          	mov    r10d,DWORD PTR [rbp-0x30]
    23c7:	49 83 c2 01          	add    r10,0x1
    23cb:	4d 69 d2 40 03 00 00 	imul   r10,r10,0x340
    23d2:	4d 89 d7             	mov    r15,r10
    23d5:	49 81 ef 00 01 00 00 	sub    r15,0x100
    23dc:	49 89 c6             	mov    r14,rax
    23df:	4d 01 d6             	add    r14,r10
    23e2:	4c 89 b5 70 ff ff ff 	mov    QWORD PTR [rbp-0x90],r14
    23e9:	49 89 c2             	mov    r10,rax
    23ec:	4d 01 fa             	add    r10,r15
    23ef:	41 0f ae 3e          	clflush BYTE PTR [r14]
    23f3:	44 8b 75 d4          	mov    r14d,DWORD PTR [rbp-0x2c]
    23f7:	49 83 c6 01          	add    r14,0x1
    23fb:	4d 69 e6 40 03 00 00 	imul   r12,r14,0x340
    2402:	4d 89 e7             	mov    r15,r12
    2405:	49 81 ef 00 01 00 00 	sub    r15,0x100
    240c:	49 89 c6             	mov    r14,rax
    240f:	4d 01 e6             	add    r14,r12
    2412:	4c 89 b5 68 ff ff ff 	mov    QWORD PTR [rbp-0x98],r14
    2419:	4c 01 f8             	add    rax,r15
    241c:	41 0f ae 3e          	clflush BYTE PTR [r14]
    2420:	0f ae f0             	mfence
    2423:	48 83 ec 20          	sub    rsp,0x20
    2427:	48 89 1c 24          	mov    QWORD PTR [rsp],rbx
    242b:	4c 89 5c 24 08       	mov    QWORD PTR [rsp+0x8],r11
    2430:	4c 89 54 24 10       	mov    QWORD PTR [rsp+0x10],r10
    2435:	48 89 44 24 18       	mov    QWORD PTR [rsp+0x18],rax
    243a:	e8 41 19 00 00       	call   3d80 <__DualGate__4_1_27030>
    243f:	48 8b bd 68 ff ff ff 	mov    rdi,QWORD PTR [rbp-0x98]
    2446:	48 83 c4 20          	add    rsp,0x20
    244a:	0f ae f0             	mfence
    244d:	e8 7e 08 00 00       	call   2cd0 <timer>
    2452:	48 8b bd 70 ff ff ff 	mov    rdi,QWORD PTR [rbp-0x90]
    2459:	48 3d b5 00 00 00    	cmp    rax,0xb5
    245f:	0f 92 c0             	setb   al
    2462:	88 85 7b ff ff ff    	mov    BYTE PTR [rbp-0x85],al
    2468:	e8 63 08 00 00       	call   2cd0 <timer>
    246d:	8a 95 7b ff ff ff    	mov    dl,BYTE PTR [rbp-0x85]
    2473:	48 8b 4d 88          	mov    rcx,QWORD PTR [rbp-0x78]
    2477:	48 3d b5 00 00 00    	cmp    rax,0xb5
    247d:	0f 92 c0             	setb   al
    2480:	30 d0                	xor    al,dl
    2482:	34 ff                	xor    al,0xff
    2484:	0c 00                	or     al,0x0
    2486:	80 e2 01             	and    dl,0x1
    2489:	80 ca 00             	or     dl,0x0
    248c:	80 ca 00             	or     dl,0x0
    248f:	80 ca 00             	or     dl,0x0
    2492:	80 ca 00             	or     dl,0x0
    2495:	80 ca 00             	or     dl,0x0
    2498:	80 ca 00             	or     dl,0x0
    249b:	80 ca 00             	or     dl,0x0
    249e:	88 11                	mov    BYTE PTR [rcx],dl
    24a0:	24 01                	and    al,0x1
    24a2:	0f b6 c0             	movzx  eax,al
    24a5:	48 8d 65 d8          	lea    rsp,[rbp-0x28]
    24a9:	5b                   	pop    rbx
    24aa:	41 5c                	pop    r12
    24ac:	41 5d                	pop    r13
    24ae:	41 5e                	pop    r14
    24b0:	41 5f                	pop    r15
    24b2:	5d                   	pop    rbp
    24b3:	c3                   	ret
    24b4:	66 66 66 2e 0f 1f 84 	data16 data16 cs nop WORD PTR [rax+rax*1+0x0]
    24bb:	00 00 00 00 00 

00000000000024c0 <_Z8test_accPKcjPFjjE>:
    24c0:	48 81 ec 98 00 00 00 	sub    rsp,0x98
    24c7:	48 89 7c 24 58       	mov    QWORD PTR [rsp+0x58],rdi
    24cc:	48 89 54 24 60       	mov    QWORD PTR [rsp+0x60],rdx
    24d1:	bf 01 00 00 00       	mov    edi,0x1
    24d6:	48 8d b4 24 88 00 00 	lea    rsi,[rsp+0x88]
    24dd:	00 
    24de:	e8 7d eb ff ff       	call   1060 <clock_gettime@plt>
    24e3:	31 c0                	xor    eax,eax
    24e5:	83 3d 54 4b 00 00 00 	cmp    DWORD PTR [rip+0x4b54],0x0        # 7040 <tot_trials>
    24ec:	89 c1                	mov    ecx,eax
    24ee:	89 4c 24 68          	mov    DWORD PTR [rsp+0x68],ecx
    24f2:	89 c1                	mov    ecx,eax
    24f4:	89 4c 24 6c          	mov    DWORD PTR [rsp+0x6c],ecx
    24f8:	89 c1                	mov    ecx,eax
    24fa:	89 4c 24 70          	mov    DWORD PTR [rsp+0x70],ecx
    24fe:	89 44 24 74          	mov    DWORD PTR [rsp+0x74],eax
    2502:	0f 85 57 01 00 00    	jne    265f <_Z8test_accPKcjPFjjE+0x19f>
    2508:	8b 44 24 68          	mov    eax,DWORD PTR [rsp+0x68]
    250c:	8b 4c 24 6c          	mov    ecx,DWORD PTR [rsp+0x6c]
    2510:	8b 54 24 70          	mov    edx,DWORD PTR [rsp+0x70]
    2514:	89 54 24 30          	mov    DWORD PTR [rsp+0x30],edx
    2518:	89 4c 24 34          	mov    DWORD PTR [rsp+0x34],ecx
    251c:	89 44 24 44          	mov    DWORD PTR [rsp+0x44],eax
    2520:	bf 01 00 00 00       	mov    edi,0x1
    2525:	48 8d 74 24 78       	lea    rsi,[rsp+0x78]
    252a:	48 89 74 24 28       	mov    QWORD PTR [rsp+0x28],rsi
    252f:	e8 2c eb ff ff       	call   1060 <clock_gettime@plt>
    2534:	48 8b 74 24 28       	mov    rsi,QWORD PTR [rsp+0x28]
    2539:	48 8d bc 24 88 00 00 	lea    rdi,[rsp+0x88]
    2540:	00 
    2541:	e8 7a ec ff ff       	call   11c0 <_Z12time_elaspedP8timespecS0_>
    2546:	48 8b 74 24 58       	mov    rsi,QWORD PTR [rsp+0x58]
    254b:	48 89 44 24 48       	mov    QWORD PTR [rsp+0x48],rax
    2550:	48 8d 3d b9 2a 00 00 	lea    rdi,[rip+0x2ab9]        # 5010 <_IO_stdin_used+0x10>
    2557:	31 c0                	xor    eax,eax
    2559:	e8 d2 ea ff ff       	call   1030 <printf@plt>
    255e:	8b 44 24 30          	mov    eax,DWORD PTR [rsp+0x30]
    2562:	89 c0                	mov    eax,eax
    2564:	f2 48 0f 2a c0       	cvtsi2sd xmm0,rax
    2569:	8b 05 d1 4a 00 00    	mov    eax,DWORD PTR [rip+0x4ad1]        # 7040 <tot_trials>
    256f:	f2 48 0f 2a c8       	cvtsi2sd xmm1,rax
    2574:	f2 0f 5e c1          	divsd  xmm0,xmm1
    2578:	f2 0f 10 0d 88 2a 00 	movsd  xmm1,QWORD PTR [rip+0x2a88]        # 5008 <_IO_stdin_used+0x8>
    257f:	00 
    2580:	f2 0f 11 4c 24 38    	movsd  QWORD PTR [rsp+0x38],xmm1
    2586:	f2 0f 59 c1          	mulsd  xmm0,xmm1
    258a:	48 8d 3d 90 2a 00 00 	lea    rdi,[rip+0x2a90]        # 5021 <_IO_stdin_used+0x21>
    2591:	b0 01                	mov    al,0x1
    2593:	88 44 24 43          	mov    BYTE PTR [rsp+0x43],al
    2597:	e8 94 ea ff ff       	call   1030 <printf@plt>
    259c:	8b 4c 24 34          	mov    ecx,DWORD PTR [rsp+0x34]
    25a0:	f2 0f 10 4c 24 38    	movsd  xmm1,QWORD PTR [rsp+0x38]
    25a6:	8a 44 24 43          	mov    al,BYTE PTR [rsp+0x43]
    25aa:	89 c9                	mov    ecx,ecx
    25ac:	f2 48 0f 2a c1       	cvtsi2sd xmm0,rcx
    25b1:	8b 0d 89 4a 00 00    	mov    ecx,DWORD PTR [rip+0x4a89]        # 7040 <tot_trials>
    25b7:	f2 48 0f 2a d1       	cvtsi2sd xmm2,rcx
    25bc:	f2 0f 5e c2          	divsd  xmm0,xmm2
    25c0:	f2 0f 59 c1          	mulsd  xmm0,xmm1
    25c4:	48 8d 3d 69 2a 00 00 	lea    rdi,[rip+0x2a69]        # 5034 <_IO_stdin_used+0x34>
    25cb:	e8 60 ea ff ff       	call   1030 <printf@plt>
    25d0:	8b 44 24 44          	mov    eax,DWORD PTR [rsp+0x44]
    25d4:	89 c0                	mov    eax,eax
    25d6:	f2 48 0f 2a c0       	cvtsi2sd xmm0,rax
    25db:	8b 05 5f 4a 00 00    	mov    eax,DWORD PTR [rip+0x4a5f]        # 7040 <tot_trials>
    25e1:	f2 48 0f 2a c8       	cvtsi2sd xmm1,rax
    25e6:	f2 0f 5e c1          	divsd  xmm0,xmm1
    25ea:	f2 0f 10 0d 16 2a 00 	movsd  xmm1,QWORD PTR [rip+0x2a16]        # 5008 <_IO_stdin_used+0x8>
    25f1:	00 
    25f2:	f2 0f 59 c1          	mulsd  xmm0,xmm1
    25f6:	48 8d 3d 50 2a 00 00 	lea    rdi,[rip+0x2a50]        # 504d <_IO_stdin_used+0x4d>
    25fd:	b0 01                	mov    al,0x1
    25ff:	e8 2c ea ff ff       	call   1030 <printf@plt>
    2604:	48 8b 44 24 48       	mov    rax,QWORD PTR [rsp+0x48]
    2609:	8b 0d 31 4a 00 00    	mov    ecx,DWORD PTR [rip+0x4a31]        # 7040 <tot_trials>
    260f:	31 d2                	xor    edx,edx
    2611:	48 f7 f1             	div    rcx
    2614:	48 89 44 24 50       	mov    QWORD PTR [rsp+0x50],rax
    2619:	b9 e8 03 00 00       	mov    ecx,0x3e8
    261e:	31 d2                	xor    edx,edx
    2620:	48 f7 f1             	div    rcx
    2623:	48 89 c6             	mov    rsi,rax
    2626:	48 8b 44 24 50       	mov    rax,QWORD PTR [rsp+0x50]
    262b:	b9 e8 03 00 00       	mov    ecx,0x3e8
    2630:	31 d2                	xor    edx,edx
    2632:	48 f7 f1             	div    rcx
    2635:	48 8d 3d 2b 2a 00 00 	lea    rdi,[rip+0x2a2b]        # 5067 <_IO_stdin_used+0x67>
    263c:	b0 00                	mov    al,0x0
    263e:	e8 ed e9 ff ff       	call   1030 <printf@plt>
    2643:	8b 35 f7 49 00 00    	mov    esi,DWORD PTR [rip+0x49f7]        # 7040 <tot_trials>
    2649:	48 8d 3d 31 2a 00 00 	lea    rdi,[rip+0x2a31]        # 5081 <_IO_stdin_used+0x81>
    2650:	b0 00                	mov    al,0x0
    2652:	e8 d9 e9 ff ff       	call   1030 <printf@plt>
    2657:	48 81 c4 98 00 00 00 	add    rsp,0x98
    265e:	c3                   	ret
    265f:	48 8b 44 24 60       	mov    rax,QWORD PTR [rsp+0x60]
    2664:	8b 4c 24 70          	mov    ecx,DWORD PTR [rsp+0x70]
    2668:	8b 54 24 6c          	mov    edx,DWORD PTR [rsp+0x6c]
    266c:	8b 74 24 68          	mov    esi,DWORD PTR [rsp+0x68]
    2670:	8b 7c 24 74          	mov    edi,DWORD PTR [rsp+0x74]
    2674:	89 7c 24 14          	mov    DWORD PTR [rsp+0x14],edi
    2678:	89 74 24 18          	mov    DWORD PTR [rsp+0x18],esi
    267c:	89 54 24 1c          	mov    DWORD PTR [rsp+0x1c],edx
    2680:	89 4c 24 20          	mov    DWORD PTR [rsp+0x20],ecx
    2684:	ff d0                	call   rax
    2686:	89 44 24 24          	mov    DWORD PTR [rsp+0x24],eax
    268a:	83 f8 00             	cmp    eax,0x0
    268d:	0f 85 20 00 00 00    	jne    26b3 <_Z8test_accPKcjPFjjE+0x1f3>
    2693:	8b 4c 24 1c          	mov    ecx,DWORD PTR [rsp+0x1c]
    2697:	8b 54 24 18          	mov    edx,DWORD PTR [rsp+0x18]
    269b:	8b 44 24 20          	mov    eax,DWORD PTR [rsp+0x20]
    269f:	83 c0 01             	add    eax,0x1
    26a2:	89 54 24 08          	mov    DWORD PTR [rsp+0x8],edx
    26a6:	89 4c 24 0c          	mov    DWORD PTR [rsp+0xc],ecx
    26aa:	89 44 24 10          	mov    DWORD PTR [rsp+0x10],eax
    26ae:	e9 4b 00 00 00       	jmp    26fe <_Z8test_accPKcjPFjjE+0x23e>
    26b3:	8b 44 24 24          	mov    eax,DWORD PTR [rsp+0x24]
    26b7:	83 e0 02             	and    eax,0x2
    26ba:	83 f8 00             	cmp    eax,0x0
    26bd:	0f 84 20 00 00 00    	je     26e3 <_Z8test_accPKcjPFjjE+0x223>
    26c3:	8b 44 24 20          	mov    eax,DWORD PTR [rsp+0x20]
    26c7:	8b 54 24 18          	mov    edx,DWORD PTR [rsp+0x18]
    26cb:	8b 4c 24 1c          	mov    ecx,DWORD PTR [rsp+0x1c]
    26cf:	83 c1 01             	add    ecx,0x1
    26d2:	89 54 24 08          	mov    DWORD PTR [rsp+0x8],edx
    26d6:	89 4c 24 0c          	mov    DWORD PTR [rsp+0xc],ecx
    26da:	89 44 24 10          	mov    DWORD PTR [rsp+0x10],eax
    26de:	e9 1b 00 00 00       	jmp    26fe <_Z8test_accPKcjPFjjE+0x23e>
    26e3:	8b 44 24 20          	mov    eax,DWORD PTR [rsp+0x20]
    26e7:	8b 4c 24 1c          	mov    ecx,DWORD PTR [rsp+0x1c]
    26eb:	8b 54 24 18          	mov    edx,DWORD PTR [rsp+0x18]
    26ef:	83 c2 01             	add    edx,0x1
    26f2:	89 54 24 08          	mov    DWORD PTR [rsp+0x8],edx
    26f6:	89 4c 24 0c          	mov    DWORD PTR [rsp+0xc],ecx
    26fa:	89 44 24 10          	mov    DWORD PTR [rsp+0x10],eax
    26fe:	8b 44 24 14          	mov    eax,DWORD PTR [rsp+0x14]
    2702:	8b 74 24 08          	mov    esi,DWORD PTR [rsp+0x8]
    2706:	8b 54 24 0c          	mov    edx,DWORD PTR [rsp+0xc]
    270a:	8b 4c 24 10          	mov    ecx,DWORD PTR [rsp+0x10]
    270e:	83 c0 01             	add    eax,0x1
    2711:	3b 05 29 49 00 00    	cmp    eax,DWORD PTR [rip+0x4929]        # 7040 <tot_trials>
    2717:	89 74 24 68          	mov    DWORD PTR [rsp+0x68],esi
    271b:	89 54 24 6c          	mov    DWORD PTR [rsp+0x6c],edx
    271f:	89 4c 24 70          	mov    DWORD PTR [rsp+0x70],ecx
    2723:	89 44 24 74          	mov    DWORD PTR [rsp+0x74],eax
    2727:	0f 82 32 ff ff ff    	jb     265f <_Z8test_accPKcjPFjjE+0x19f>
    272d:	e9 d6 fd ff ff       	jmp    2508 <_Z8test_accPKcjPFjjE+0x48>
    2732:	66 66 66 66 66 2e 0f 	data16 data16 data16 data16 cs nop WORD PTR [rax+rax*1+0x0]
    2739:	1f 84 00 00 00 00 00 

0000000000002740 <main>:
    2740:	50                   	push   rax
    2741:	48 89 f2             	mov    rdx,rsi
    2744:	89 fe                	mov    esi,edi
    2746:	48 8d 3d fb 48 00 00 	lea    rdi,[rip+0x48fb]        # 7048 <_ZL4argp>
    274d:	31 c9                	xor    ecx,ecx
    274f:	31 c0                	xor    eax,eax
    2751:	41 89 c1             	mov    r9d,eax
    2754:	4d 89 c8             	mov    r8,r9
    2757:	e8 e4 e8 ff ff       	call   1040 <argp_parse@plt>
    275c:	48 8d 3d 38 29 00 00 	lea    rdi,[rip+0x2938]        # 509b <_IO_stdin_used+0x9b>
    2763:	48 8d 15 06 01 00 00 	lea    rdx,[rip+0x106]        # 2870 <_ZZ4mainEN3$_08__invokeEj>
    276a:	e8 51 fd ff ff       	call   24c0 <_Z8test_accPKcjPFjjE>
    276f:	48 8d 3d 2a 29 00 00 	lea    rdi,[rip+0x292a]        # 50a0 <_IO_stdin_used+0xa0>
    2776:	48 8d 15 63 01 00 00 	lea    rdx,[rip+0x163]        # 28e0 <_ZZ4mainEN3$_18__invokeEj>
    277d:	e8 3e fd ff ff       	call   24c0 <_Z8test_accPKcjPFjjE>
    2782:	48 8d 3d 0d 29 00 00 	lea    rdi,[rip+0x290d]        # 5096 <_IO_stdin_used+0x96>
    2789:	48 8d 15 c0 01 00 00 	lea    rdx,[rip+0x1c0]        # 2950 <_ZZ4mainEN3$_28__invokeEj>
    2790:	e8 2b fd ff ff       	call   24c0 <_Z8test_accPKcjPFjjE>
    2795:	48 8d 3d fe 28 00 00 	lea    rdi,[rip+0x28fe]        # 509a <_IO_stdin_used+0x9a>
    279c:	48 8d 15 0d 02 00 00 	lea    rdx,[rip+0x20d]        # 29b0 <_ZZ4mainEN3$_38__invokeEj>
    27a3:	e8 18 fd ff ff       	call   24c0 <_Z8test_accPKcjPFjjE>
    27a8:	48 8d 3d f0 28 00 00 	lea    rdi,[rip+0x28f0]        # 509f <_IO_stdin_used+0x9f>
    27af:	48 8d 15 6a 02 00 00 	lea    rdx,[rip+0x26a]        # 2a20 <_ZZ4mainEN3$_48__invokeEj>
    27b6:	e8 05 fd ff ff       	call   24c0 <_Z8test_accPKcjPFjjE>
    27bb:	48 8d 3d e1 28 00 00 	lea    rdi,[rip+0x28e1]        # 50a3 <_IO_stdin_used+0xa3>
    27c2:	48 8d 15 d7 02 00 00 	lea    rdx,[rip+0x2d7]        # 2aa0 <_ZZ4mainEN3$_58__invokeEj>
    27c9:	e8 f2 fc ff ff       	call   24c0 <_Z8test_accPKcjPFjjE>
    27ce:	48 8d 3d d2 28 00 00 	lea    rdi,[rip+0x28d2]        # 50a7 <_IO_stdin_used+0xa7>
    27d5:	48 8d 15 74 03 00 00 	lea    rdx,[rip+0x374]        # 2b50 <_ZZ4mainEN3$_68__invokeEj>
    27dc:	e8 df fc ff ff       	call   24c0 <_Z8test_accPKcjPFjjE>
    27e1:	48 8d 3d c4 28 00 00 	lea    rdi,[rip+0x28c4]        # 50ac <_IO_stdin_used+0xac>
    27e8:	48 8d 15 01 04 00 00 	lea    rdx,[rip+0x401]        # 2bf0 <_ZZ4mainEN3$_78__invokeEj>
    27ef:	e8 cc fc ff ff       	call   24c0 <_Z8test_accPKcjPFjjE>
    27f4:	31 c0                	xor    eax,eax
    27f6:	59                   	pop    rcx
    27f7:	c3                   	ret
    27f8:	0f 1f 84 00 00 00 00 	nop    DWORD PTR [rax+rax*1+0x0]
    27ff:	00 

0000000000002800 <_ZL9parse_optiPcP10argp_state>:
    2800:	48 83 ec 18          	sub    rsp,0x18
    2804:	89 7c 24 04          	mov    DWORD PTR [rsp+0x4],edi
    2808:	48 89 74 24 08       	mov    QWORD PTR [rsp+0x8],rsi
    280d:	85 ff                	test   edi,edi
    280f:	89 7c 24 14          	mov    DWORD PTR [rsp+0x14],edi
    2813:	0f 84 40 00 00 00    	je     2859 <_ZL9parse_optiPcP10argp_state+0x59>
    2819:	e9 00 00 00 00       	jmp    281e <_ZL9parse_optiPcP10argp_state+0x1e>
    281e:	8b 44 24 04          	mov    eax,DWORD PTR [rsp+0x4]
    2822:	83 e8 74             	sub    eax,0x74
    2825:	0f 85 20 00 00 00    	jne    284b <_ZL9parse_optiPcP10argp_state+0x4b>
    282b:	e9 00 00 00 00       	jmp    2830 <_ZL9parse_optiPcP10argp_state+0x30>
    2830:	48 8b 7c 24 08       	mov    rdi,QWORD PTR [rsp+0x8]
    2835:	e8 36 e8 ff ff       	call   1070 <atoi@plt>
    283a:	89 05 00 48 00 00    	mov    DWORD PTR [rip+0x4800],eax        # 7040 <tot_trials>
    2840:	31 c0                	xor    eax,eax
    2842:	89 44 24 14          	mov    DWORD PTR [rsp+0x14],eax
    2846:	e9 0e 00 00 00       	jmp    2859 <_ZL9parse_optiPcP10argp_state+0x59>
    284b:	b8 07 00 00 00       	mov    eax,0x7
    2850:	89 44 24 14          	mov    DWORD PTR [rsp+0x14],eax
    2854:	e9 00 00 00 00       	jmp    2859 <_ZL9parse_optiPcP10argp_state+0x59>
    2859:	8b 44 24 14          	mov    eax,DWORD PTR [rsp+0x14]
    285d:	48 83 c4 18          	add    rsp,0x18
    2861:	c3                   	ret
    2862:	66 66 66 66 66 2e 0f 	data16 data16 data16 data16 cs nop WORD PTR [rax+rax*1+0x0]
    2869:	1f 84 00 00 00 00 00 

0000000000002870 <_ZZ4mainEN3$_08__invokeEj>:
    2870:	e9 0b 00 00 00       	jmp    2880 <_ZZ4mainENK3$_0clEj>
    2875:	66 66 2e 0f 1f 84 00 	data16 cs nop WORD PTR [rax+rax*1+0x0]
    287c:	00 00 00 00 

0000000000002880 <_ZZ4mainENK3$_0clEj>:
    2880:	50                   	push   rax
    2881:	89 3c 24             	mov    DWORD PTR [rsp],edi
    2884:	89 f8                	mov    eax,edi
    2886:	83 e0 01             	and    eax,0x1
    2889:	83 f8 00             	cmp    eax,0x0
    288c:	0f 95 c1             	setne  cl
    288f:	83 e7 02             	and    edi,0x2
    2892:	83 ff 00             	cmp    edi,0x0
    2895:	0f 95 c0             	setne  al
    2898:	0f b6 f9             	movzx  edi,cl
    289b:	83 e7 01             	and    edi,0x1
    289e:	0f b6 f0             	movzx  esi,al
    28a1:	83 e6 01             	and    esi,0x1
    28a4:	48 8d 54 24 07       	lea    rdx,[rsp+0x7]
    28a9:	e8 32 e9 ff ff       	call   11e0 <_Z12__weird__andbbRb>
    28ae:	8b 3c 24             	mov    edi,DWORD PTR [rsp]
    28b1:	88 c2                	mov    dl,al
    28b3:	31 c0                	xor    eax,eax
    28b5:	b9 02 00 00 00       	mov    ecx,0x2
    28ba:	f6 c2 01             	test   dl,0x1
    28bd:	0f 45 c1             	cmovne eax,ecx
    28c0:	83 e7 03             	and    edi,0x3
    28c3:	83 ff 03             	cmp    edi,0x3
    28c6:	0f 94 c2             	sete   dl
    28c9:	8a 4c 24 07          	mov    cl,BYTE PTR [rsp+0x7]
    28cd:	80 e2 01             	and    dl,0x1
    28d0:	38 d1                	cmp    cl,dl
    28d2:	0f 95 c1             	setne  cl
    28d5:	80 e1 01             	and    cl,0x1
    28d8:	0f b6 c9             	movzx  ecx,cl
    28db:	09 c8                	or     eax,ecx
    28dd:	59                   	pop    rcx
    28de:	c3                   	ret
    28df:	90                   	nop

00000000000028e0 <_ZZ4mainEN3$_18__invokeEj>:
    28e0:	e9 0b 00 00 00       	jmp    28f0 <_ZZ4mainENK3$_1clEj>
    28e5:	66 66 2e 0f 1f 84 00 	data16 cs nop WORD PTR [rax+rax*1+0x0]
    28ec:	00 00 00 00 

00000000000028f0 <_ZZ4mainENK3$_1clEj>:
    28f0:	50                   	push   rax
    28f1:	89 3c 24             	mov    DWORD PTR [rsp],edi
    28f4:	89 f8                	mov    eax,edi
    28f6:	83 e0 01             	and    eax,0x1
    28f9:	83 f8 00             	cmp    eax,0x0
    28fc:	0f 95 c1             	setne  cl
    28ff:	83 e7 02             	and    edi,0x2
    2902:	83 ff 00             	cmp    edi,0x0
    2905:	0f 95 c0             	setne  al
    2908:	0f b6 f9             	movzx  edi,cl
    290b:	83 e7 01             	and    edi,0x1
    290e:	0f b6 f0             	movzx  esi,al
    2911:	83 e6 01             	and    esi,0x1
    2914:	48 8d 54 24 07       	lea    rdx,[rsp+0x7]
    2919:	e8 e2 ea ff ff       	call   1400 <_Z11__weird__orbbRb>
    291e:	8b 3c 24             	mov    edi,DWORD PTR [rsp]
    2921:	88 c2                	mov    dl,al
    2923:	31 c0                	xor    eax,eax
    2925:	b9 02 00 00 00       	mov    ecx,0x2
    292a:	f6 c2 01             	test   dl,0x1
    292d:	0f 45 c1             	cmovne eax,ecx
    2930:	83 e7 03             	and    edi,0x3
    2933:	83 ff 00             	cmp    edi,0x0
    2936:	0f 95 c2             	setne  dl
    2939:	8a 4c 24 07          	mov    cl,BYTE PTR [rsp+0x7]
    293d:	80 e2 01             	and    dl,0x1
    2940:	38 d1                	cmp    cl,dl
    2942:	0f 95 c1             	setne  cl
    2945:	80 e1 01             	and    cl,0x1
    2948:	0f b6 c9             	movzx  ecx,cl
    294b:	09 c8                	or     eax,ecx
    294d:	59                   	pop    rcx
    294e:	c3                   	ret
    294f:	90                   	nop

0000000000002950 <_ZZ4mainEN3$_28__invokeEj>:
    2950:	e9 0b 00 00 00       	jmp    2960 <_ZZ4mainENK3$_2clEj>
    2955:	66 66 2e 0f 1f 84 00 	data16 cs nop WORD PTR [rax+rax*1+0x0]
    295c:	00 00 00 00 

0000000000002960 <_ZZ4mainENK3$_2clEj>:
    2960:	50                   	push   rax
    2961:	83 e7 01             	and    edi,0x1
    2964:	89 3c 24             	mov    DWORD PTR [rsp],edi
    2967:	83 ff 00             	cmp    edi,0x0
    296a:	0f 95 c0             	setne  al
    296d:	0f b6 f8             	movzx  edi,al
    2970:	83 e7 01             	and    edi,0x1
    2973:	48 8d 74 24 07       	lea    rsi,[rsp+0x7]
    2978:	e8 a3 ec ff ff       	call   1620 <_Z12__weird__notbRb>
    297d:	8b 0c 24             	mov    ecx,DWORD PTR [rsp]
    2980:	40 88 c6             	mov    sil,al
    2983:	31 c0                	xor    eax,eax
    2985:	ba 02 00 00 00       	mov    edx,0x2
    298a:	40 f6 c6 01          	test   sil,0x1
    298e:	0f 45 c2             	cmovne eax,edx
    2991:	83 f1 01             	xor    ecx,0x1
    2994:	0f b6 54 24 07       	movzx  edx,BYTE PTR [rsp+0x7]
    2999:	39 d1                	cmp    ecx,edx
    299b:	0f 95 c1             	setne  cl
    299e:	80 e1 01             	and    cl,0x1
    29a1:	0f b6 c9             	movzx  ecx,cl
    29a4:	09 c8                	or     eax,ecx
    29a6:	59                   	pop    rcx
    29a7:	c3                   	ret
    29a8:	0f 1f 84 00 00 00 00 	nop    DWORD PTR [rax+rax*1+0x0]
    29af:	00 

00000000000029b0 <_ZZ4mainEN3$_38__invokeEj>:
    29b0:	e9 0b 00 00 00       	jmp    29c0 <_ZZ4mainENK3$_3clEj>
    29b5:	66 66 2e 0f 1f 84 00 	data16 cs nop WORD PTR [rax+rax*1+0x0]
    29bc:	00 00 00 00 

00000000000029c0 <_ZZ4mainENK3$_3clEj>:
    29c0:	50                   	push   rax
    29c1:	89 3c 24             	mov    DWORD PTR [rsp],edi
    29c4:	89 f8                	mov    eax,edi
    29c6:	83 e0 01             	and    eax,0x1
    29c9:	83 f8 00             	cmp    eax,0x0
    29cc:	0f 95 c1             	setne  cl
    29cf:	83 e7 02             	and    edi,0x2
    29d2:	83 ff 00             	cmp    edi,0x0
    29d5:	0f 95 c0             	setne  al
    29d8:	0f b6 f9             	movzx  edi,cl
    29db:	83 e7 01             	and    edi,0x1
    29de:	0f b6 f0             	movzx  esi,al
    29e1:	83 e6 01             	and    esi,0x1
    29e4:	48 8d 54 24 07       	lea    rdx,[rsp+0x7]
    29e9:	e8 f2 ed ff ff       	call   17e0 <_Z13__weird__nandbbRb>
    29ee:	8b 3c 24             	mov    edi,DWORD PTR [rsp]
    29f1:	88 c2                	mov    dl,al
    29f3:	31 c0                	xor    eax,eax
    29f5:	b9 02 00 00 00       	mov    ecx,0x2
    29fa:	f6 c2 01             	test   dl,0x1
    29fd:	0f 45 c1             	cmovne eax,ecx
    2a00:	83 e7 03             	and    edi,0x3
    2a03:	83 ff 03             	cmp    edi,0x3
    2a06:	0f 95 c2             	setne  dl
    2a09:	8a 4c 24 07          	mov    cl,BYTE PTR [rsp+0x7]
    2a0d:	80 e2 01             	and    dl,0x1
    2a10:	38 d1                	cmp    cl,dl
    2a12:	0f 95 c1             	setne  cl
    2a15:	80 e1 01             	and    cl,0x1
    2a18:	0f b6 c9             	movzx  ecx,cl
    2a1b:	09 c8                	or     eax,ecx
    2a1d:	59                   	pop    rcx
    2a1e:	c3                   	ret
    2a1f:	90                   	nop

0000000000002a20 <_ZZ4mainEN3$_48__invokeEj>:
    2a20:	e9 0b 00 00 00       	jmp    2a30 <_ZZ4mainENK3$_4clEj>
    2a25:	66 66 2e 0f 1f 84 00 	data16 cs nop WORD PTR [rax+rax*1+0x0]
    2a2c:	00 00 00 00 

0000000000002a30 <_ZZ4mainENK3$_4clEj>:
    2a30:	50                   	push   rax
    2a31:	89 3c 24             	mov    DWORD PTR [rsp],edi
    2a34:	89 f8                	mov    eax,edi
    2a36:	83 e0 01             	and    eax,0x1
    2a39:	83 f8 00             	cmp    eax,0x0
    2a3c:	0f 95 c1             	setne  cl
    2a3f:	83 e7 02             	and    edi,0x2
    2a42:	83 ff 00             	cmp    edi,0x0
    2a45:	0f 95 c0             	setne  al
    2a48:	0f b6 f9             	movzx  edi,cl
    2a4b:	83 e7 01             	and    edi,0x1
    2a4e:	0f b6 f0             	movzx  esi,al
    2a51:	83 e6 01             	and    esi,0x1
    2a54:	48 8d 54 24 07       	lea    rdx,[rsp+0x7]
    2a59:	e8 a2 ef ff ff       	call   1a00 <_Z12__weird__xorbbRb>
    2a5e:	8b 0c 24             	mov    ecx,DWORD PTR [rsp]
    2a61:	40 88 c6             	mov    sil,al
    2a64:	31 c0                	xor    eax,eax
    2a66:	ba 02 00 00 00       	mov    edx,0x2
    2a6b:	40 f6 c6 01          	test   sil,0x1
    2a6f:	0f 45 c2             	cmovne eax,edx
    2a72:	83 e1 03             	and    ecx,0x3
    2a75:	83 c1 ff             	add    ecx,0xffffffff
    2a78:	83 f9 02             	cmp    ecx,0x2
    2a7b:	0f 92 c2             	setb   dl
    2a7e:	8a 4c 24 07          	mov    cl,BYTE PTR [rsp+0x7]
    2a82:	80 e2 01             	and    dl,0x1
    2a85:	38 d1                	cmp    cl,dl
    2a87:	0f 95 c1             	setne  cl
    2a8a:	80 e1 01             	and    cl,0x1
    2a8d:	0f b6 c9             	movzx  ecx,cl
    2a90:	09 c8                	or     eax,ecx
    2a92:	59                   	pop    rcx
    2a93:	c3                   	ret
    2a94:	66 66 66 2e 0f 1f 84 	data16 data16 cs nop WORD PTR [rax+rax*1+0x0]
    2a9b:	00 00 00 00 00 

0000000000002aa0 <_ZZ4mainEN3$_58__invokeEj>:
    2aa0:	e9 0b 00 00 00       	jmp    2ab0 <_ZZ4mainENK3$_5clEj>
    2aa5:	66 66 2e 0f 1f 84 00 	data16 cs nop WORD PTR [rax+rax*1+0x0]
    2aac:	00 00 00 00 

0000000000002ab0 <_ZZ4mainENK3$_5clEj>:
    2ab0:	48 83 ec 18          	sub    rsp,0x18
    2ab4:	89 7c 24 08          	mov    DWORD PTR [rsp+0x8],edi
    2ab8:	89 f8                	mov    eax,edi
    2aba:	83 e0 01             	and    eax,0x1
    2abd:	83 f8 00             	cmp    eax,0x0
    2ac0:	0f 95 c2             	setne  dl
    2ac3:	89 f8                	mov    eax,edi
    2ac5:	83 e0 02             	and    eax,0x2
    2ac8:	89 44 24 0c          	mov    DWORD PTR [rsp+0xc],eax
    2acc:	83 f8 00             	cmp    eax,0x0
    2acf:	0f 95 c1             	setne  cl
    2ad2:	83 e7 04             	and    edi,0x4
    2ad5:	89 7c 24 10          	mov    DWORD PTR [rsp+0x10],edi
    2ad9:	83 ff 00             	cmp    edi,0x0
    2adc:	0f 95 c0             	setne  al
    2adf:	88 44 24 07          	mov    BYTE PTR [rsp+0x7],al
    2ae3:	0f b6 fa             	movzx  edi,dl
    2ae6:	83 e7 01             	and    edi,0x1
    2ae9:	0f b6 f1             	movzx  esi,cl
    2aec:	83 e6 01             	and    esi,0x1
    2aef:	0f b6 d0             	movzx  edx,al
    2af2:	83 e2 01             	and    edx,0x1
    2af5:	48 8d 4c 24 17       	lea    rcx,[rsp+0x17]
    2afa:	e8 21 f1 ff ff       	call   1c20 <_Z12__weird__muxbbbRb>
    2aff:	8a 4c 24 07          	mov    cl,BYTE PTR [rsp+0x7]
    2b03:	8b 7c 24 08          	mov    edi,DWORD PTR [rsp+0x8]
    2b07:	8b 54 24 0c          	mov    edx,DWORD PTR [rsp+0xc]
    2b0b:	8b 74 24 10          	mov    esi,DWORD PTR [rsp+0x10]
    2b0f:	41 88 c1             	mov    r9b,al
    2b12:	31 c0                	xor    eax,eax
    2b14:	41 b8 02 00 00 00    	mov    r8d,0x2
    2b1a:	41 f6 c1 01          	test   r9b,0x1
    2b1e:	41 0f 45 c0          	cmovne eax,r8d
    2b22:	80 f1 ff             	xor    cl,0xff
    2b25:	80 e1 01             	and    cl,0x1
    2b28:	0f b6 c9             	movzx  ecx,cl
    2b2b:	21 f9                	and    ecx,edi
    2b2d:	d1 ea                	shr    edx,1
    2b2f:	c1 ee 02             	shr    esi,0x2
    2b32:	21 f2                	and    edx,esi
    2b34:	09 d1                	or     ecx,edx
    2b36:	0f b6 54 24 17       	movzx  edx,BYTE PTR [rsp+0x17]
    2b3b:	39 d1                	cmp    ecx,edx
    2b3d:	0f 95 c1             	setne  cl
    2b40:	80 e1 01             	and    cl,0x1
    2b43:	0f b6 c9             	movzx  ecx,cl
    2b46:	09 c8                	or     eax,ecx
    2b48:	48 83 c4 18          	add    rsp,0x18
    2b4c:	c3                   	ret
    2b4d:	0f 1f 00             	nop    DWORD PTR [rax]

0000000000002b50 <_ZZ4mainEN3$_68__invokeEj>:
    2b50:	e9 0b 00 00 00       	jmp    2b60 <_ZZ4mainENK3$_6clEj>
    2b55:	66 66 2e 0f 1f 84 00 	data16 cs nop WORD PTR [rax+rax*1+0x0]
    2b5c:	00 00 00 00 

0000000000002b60 <_ZZ4mainENK3$_6clEj>:
    2b60:	48 83 ec 18          	sub    rsp,0x18
    2b64:	89 f8                	mov    eax,edi
    2b66:	83 e0 01             	and    eax,0x1
    2b69:	89 44 24 10          	mov    DWORD PTR [rsp+0x10],eax
    2b6d:	83 f8 00             	cmp    eax,0x0
    2b70:	0f 95 c2             	setne  dl
    2b73:	89 f8                	mov    eax,edi
    2b75:	83 e0 02             	and    eax,0x2
    2b78:	89 44 24 08          	mov    DWORD PTR [rsp+0x8],eax
    2b7c:	83 f8 00             	cmp    eax,0x0
    2b7f:	0f 95 c1             	setne  cl
    2b82:	83 e7 04             	and    edi,0x4
    2b85:	89 7c 24 0c          	mov    DWORD PTR [rsp+0xc],edi
    2b89:	83 ff 00             	cmp    edi,0x0
    2b8c:	0f 95 c0             	setne  al
    2b8f:	0f b6 fa             	movzx  edi,dl
    2b92:	83 e7 01             	and    edi,0x1
    2b95:	0f b6 f1             	movzx  esi,cl
    2b98:	83 e6 01             	and    esi,0x1
    2b9b:	0f b6 d0             	movzx  edx,al
    2b9e:	83 e2 01             	and    edx,0x1
    2ba1:	48 8d 4c 24 17       	lea    rcx,[rsp+0x17]
    2ba6:	e8 25 f3 ff ff       	call   1ed0 <_Z13__weird__xor3bbbRb>
    2bab:	8b 54 24 08          	mov    edx,DWORD PTR [rsp+0x8]
    2baf:	8b 4c 24 0c          	mov    ecx,DWORD PTR [rsp+0xc]
    2bb3:	8b 7c 24 10          	mov    edi,DWORD PTR [rsp+0x10]
    2bb7:	41 88 c0             	mov    r8b,al
    2bba:	31 c0                	xor    eax,eax
    2bbc:	be 02 00 00 00       	mov    esi,0x2
    2bc1:	41 f6 c0 01          	test   r8b,0x1
    2bc5:	0f 45 c6             	cmovne eax,esi
    2bc8:	d1 ea                	shr    edx,1
    2bca:	c1 e9 02             	shr    ecx,0x2
    2bcd:	31 d1                	xor    ecx,edx
    2bcf:	31 f9                	xor    ecx,edi
    2bd1:	0f b6 54 24 17       	movzx  edx,BYTE PTR [rsp+0x17]
    2bd6:	39 d1                	cmp    ecx,edx
    2bd8:	0f 95 c1             	setne  cl
    2bdb:	80 e1 01             	and    cl,0x1
    2bde:	0f b6 c9             	movzx  ecx,cl
    2be1:	09 c8                	or     eax,ecx
    2be3:	48 83 c4 18          	add    rsp,0x18
    2be7:	c3                   	ret
    2be8:	0f 1f 84 00 00 00 00 	nop    DWORD PTR [rax+rax*1+0x0]
    2bef:	00 

0000000000002bf0 <_ZZ4mainEN3$_78__invokeEj>:
    2bf0:	e9 0b 00 00 00       	jmp    2c00 <_ZZ4mainENK3$_7clEj>
    2bf5:	66 66 2e 0f 1f 84 00 	data16 cs nop WORD PTR [rax+rax*1+0x0]
    2bfc:	00 00 00 00 

0000000000002c00 <_ZZ4mainENK3$_7clEj>:
    2c00:	48 83 ec 18          	sub    rsp,0x18
    2c04:	89 f8                	mov    eax,edi
    2c06:	83 e0 01             	and    eax,0x1
    2c09:	89 44 24 10          	mov    DWORD PTR [rsp+0x10],eax
    2c0d:	83 f8 00             	cmp    eax,0x0
    2c10:	40 0f 95 c6          	setne  sil
    2c14:	89 f8                	mov    eax,edi
    2c16:	83 e0 02             	and    eax,0x2
    2c19:	89 44 24 04          	mov    DWORD PTR [rsp+0x4],eax
    2c1d:	83 f8 00             	cmp    eax,0x0
    2c20:	0f 95 c2             	setne  dl
    2c23:	89 f8                	mov    eax,edi
    2c25:	83 e0 04             	and    eax,0x4
    2c28:	89 44 24 08          	mov    DWORD PTR [rsp+0x8],eax
    2c2c:	83 f8 00             	cmp    eax,0x0
    2c2f:	0f 95 c1             	setne  cl
    2c32:	83 e7 08             	and    edi,0x8
    2c35:	89 7c 24 0c          	mov    DWORD PTR [rsp+0xc],edi
    2c39:	83 ff 00             	cmp    edi,0x0
    2c3c:	0f 95 c0             	setne  al
    2c3f:	40 0f b6 fe          	movzx  edi,sil
    2c43:	83 e7 01             	and    edi,0x1
    2c46:	0f b6 f2             	movzx  esi,dl
    2c49:	83 e6 01             	and    esi,0x1
    2c4c:	0f b6 d1             	movzx  edx,cl
    2c4f:	83 e2 01             	and    edx,0x1
    2c52:	0f b6 c8             	movzx  ecx,al
    2c55:	83 e1 01             	and    ecx,0x1
    2c58:	4c 8d 44 24 17       	lea    r8,[rsp+0x17]
    2c5d:	e8 1e f5 ff ff       	call   2180 <_Z13__weird__xor4bbbbRb>
    2c62:	8b 74 24 04          	mov    esi,DWORD PTR [rsp+0x4]
    2c66:	8b 4c 24 08          	mov    ecx,DWORD PTR [rsp+0x8]
    2c6a:	8b 54 24 0c          	mov    edx,DWORD PTR [rsp+0xc]
    2c6e:	8b 7c 24 10          	mov    edi,DWORD PTR [rsp+0x10]
    2c72:	41 88 c1             	mov    r9b,al
    2c75:	31 c0                	xor    eax,eax
    2c77:	41 b8 02 00 00 00    	mov    r8d,0x2
    2c7d:	41 f6 c1 01          	test   r9b,0x1
    2c81:	41 0f 45 c0          	cmovne eax,r8d
    2c85:	d1 ee                	shr    esi,1
    2c87:	c1 e9 02             	shr    ecx,0x2
    2c8a:	c1 ea 03             	shr    edx,0x3
    2c8d:	31 f1                	xor    ecx,esi
    2c8f:	31 d1                	xor    ecx,edx
    2c91:	31 f9                	xor    ecx,edi
    2c93:	0f b6 54 24 17       	movzx  edx,BYTE PTR [rsp+0x17]
    2c98:	39 d1                	cmp    ecx,edx
    2c9a:	0f 95 c1             	setne  cl
    2c9d:	80 e1 01             	and    cl,0x1
    2ca0:	0f b6 c9             	movzx  ecx,cl
    2ca3:	09 c8                	or     eax,ecx
    2ca5:	48 83 c4 18          	add    rsp,0x18
    2ca9:	c3                   	ret
    2caa:	66 0f 1f 44 00 00    	nop    WORD PTR [rax+rax*1+0x0]

0000000000002cb0 <delay>:
    2cb0:	c7 44 24 fc 00 00 00 	mov    DWORD PTR [rsp-0x4],0x0
    2cb7:	00 
    2cb8:	8b 44 24 fc          	mov    eax,DWORD PTR [rsp-0x4]
    2cbc:	83 c0 01             	add    eax,0x1
    2cbf:	89 44 24 fc          	mov    DWORD PTR [rsp-0x4],eax
    2cc3:	3d c0 00 00 00       	cmp    eax,0xc0
    2cc8:	0f 8c ea ff ff ff    	jl     2cb8 <delay+0x8>
    2cce:	c3                   	ret
    2ccf:	90                   	nop

0000000000002cd0 <timer>:
    2cd0:	0f 01 f9             	rdtscp
    2cd3:	48 c1 e2 20          	shl    rdx,0x20
    2cd7:	48 89 d6             	mov    rsi,rdx
    2cda:	09 c6                	or     esi,eax
    2cdc:	8a 07                	mov    al,BYTE PTR [rdi]
    2cde:	0f 01 f9             	rdtscp
    2ce1:	48 c1 e2 20          	shl    rdx,0x20
    2ce5:	09 c2                	or     edx,eax
    2ce7:	48 29 f2             	sub    rdx,rsi
    2cea:	48 89 d7             	mov    rdi,rdx
    2ced:	48 89 7c 24 f8       	mov    QWORD PTR [rsp-0x8],rdi
    2cf2:	48 8b 44 24 f8       	mov    rax,QWORD PTR [rsp-0x8]
    2cf7:	c3                   	ret
    2cf8:	0f 1f 84 00 00 00 00 	nop    DWORD PTR [rax+rax*1+0x0]
    2cff:	00 

0000000000002d00 <__DualGate__2_1_8>:
    2d00:	53                   	push   rbx
    2d01:	4c 89 cb             	mov    rbx,r9
    2d04:	4d 89 c3             	mov    r11,r8
    2d07:	49 89 c9             	mov    r9,rcx
    2d0a:	49 89 d0             	mov    r8,rdx
    2d0d:	e8 6e e4 ff ff       	call   1180 <mod_ret_addr>
    2d12:	48 0f b6 3f          	movzx  rdi,BYTE PTR [rdi]
    2d16:	48 0f b6 36          	movzx  rsi,BYTE PTR [rsi]
    2d1a:	4d 0f b6 00          	movzx  r8,BYTE PTR [r8]
    2d1e:	4d 0f b6 09          	movzx  r9,BYTE PTR [r9]
    2d22:	4c 8d 14 33          	lea    r10,[rbx+rsi*1]
    2d26:	47 8a 94 0a 00 01 00 	mov    r10b,BYTE PTR [r10+r9*1+0x100]
    2d2d:	00 
    2d2e:	47 8a 94 03 00 01 00 	mov    r10b,BYTE PTR [r11+r8*1+0x100]
    2d35:	00 
    2d36:	45 8a 94 3b 00 01 00 	mov    r10b,BYTE PTR [r11+rdi*1+0x100]
    2d3d:	00 
    2d3e:	90                   	nop
    2d3f:	90                   	nop
    2d40:	90                   	nop
    2d41:	90                   	nop
    2d42:	90                   	nop
    2d43:	90                   	nop
    2d44:	90                   	nop
    2d45:	90                   	nop
    2d46:	90                   	nop
    2d47:	90                   	nop
    2d48:	90                   	nop
    2d49:	90                   	nop
    2d4a:	90                   	nop
    2d4b:	90                   	nop
    2d4c:	90                   	nop
    2d4d:	90                   	nop
    2d4e:	90                   	nop
    2d4f:	90                   	nop
    2d50:	90                   	nop
    2d51:	90                   	nop
    2d52:	90                   	nop
    2d53:	90                   	nop
    2d54:	90                   	nop
    2d55:	90                   	nop
    2d56:	90                   	nop
    2d57:	90                   	nop
    2d58:	90                   	nop
    2d59:	90                   	nop
    2d5a:	90                   	nop
    2d5b:	90                   	nop
    2d5c:	90                   	nop
    2d5d:	90                   	nop
    2d5e:	90                   	nop
    2d5f:	90                   	nop
    2d60:	90                   	nop
    2d61:	90                   	nop
    2d62:	90                   	nop
    2d63:	90                   	nop
    2d64:	90                   	nop
    2d65:	90                   	nop
    2d66:	90                   	nop
    2d67:	90                   	nop
    2d68:	90                   	nop
    2d69:	90                   	nop
    2d6a:	90                   	nop
    2d6b:	90                   	nop
    2d6c:	90                   	nop
    2d6d:	90                   	nop
    2d6e:	90                   	nop
    2d6f:	90                   	nop
    2d70:	90                   	nop
    2d71:	90                   	nop
    2d72:	90                   	nop
    2d73:	90                   	nop
    2d74:	90                   	nop
    2d75:	90                   	nop
    2d76:	90                   	nop
    2d77:	90                   	nop
    2d78:	90                   	nop
    2d79:	90                   	nop
    2d7a:	90                   	nop
    2d7b:	90                   	nop
    2d7c:	90                   	nop
    2d7d:	90                   	nop
    2d7e:	90                   	nop
    2d7f:	90                   	nop
    2d80:	90                   	nop
    2d81:	90                   	nop
    2d82:	90                   	nop
    2d83:	90                   	nop
    2d84:	90                   	nop
    2d85:	90                   	nop
    2d86:	90                   	nop
    2d87:	90                   	nop
    2d88:	90                   	nop
    2d89:	90                   	nop
    2d8a:	90                   	nop
    2d8b:	90                   	nop
    2d8c:	90                   	nop
    2d8d:	90                   	nop
    2d8e:	90                   	nop
    2d8f:	90                   	nop
    2d90:	90                   	nop
    2d91:	90                   	nop
    2d92:	90                   	nop
    2d93:	90                   	nop
    2d94:	90                   	nop
    2d95:	90                   	nop
    2d96:	90                   	nop
    2d97:	90                   	nop
    2d98:	90                   	nop
    2d99:	90                   	nop
    2d9a:	90                   	nop
    2d9b:	90                   	nop
    2d9c:	90                   	nop
    2d9d:	90                   	nop
    2d9e:	90                   	nop
    2d9f:	90                   	nop
    2da0:	90                   	nop
    2da1:	90                   	nop
    2da2:	90                   	nop
    2da3:	90                   	nop
    2da4:	90                   	nop
    2da5:	90                   	nop
    2da6:	90                   	nop
    2da7:	90                   	nop
    2da8:	90                   	nop
    2da9:	90                   	nop
    2daa:	90                   	nop
    2dab:	90                   	nop
    2dac:	90                   	nop
    2dad:	90                   	nop
    2dae:	90                   	nop
    2daf:	90                   	nop
    2db0:	90                   	nop
    2db1:	90                   	nop
    2db2:	90                   	nop
    2db3:	90                   	nop
    2db4:	90                   	nop
    2db5:	90                   	nop
    2db6:	90                   	nop
    2db7:	90                   	nop
    2db8:	90                   	nop
    2db9:	90                   	nop
    2dba:	90                   	nop
    2dbb:	90                   	nop
    2dbc:	90                   	nop
    2dbd:	90                   	nop
    2dbe:	90                   	nop
    2dbf:	90                   	nop
    2dc0:	90                   	nop
    2dc1:	90                   	nop
    2dc2:	90                   	nop
    2dc3:	90                   	nop
    2dc4:	90                   	nop
    2dc5:	90                   	nop
    2dc6:	90                   	nop
    2dc7:	90                   	nop
    2dc8:	90                   	nop
    2dc9:	90                   	nop
    2dca:	90                   	nop
    2dcb:	90                   	nop
    2dcc:	90                   	nop
    2dcd:	90                   	nop
    2dce:	90                   	nop
    2dcf:	90                   	nop
    2dd0:	90                   	nop
    2dd1:	90                   	nop
    2dd2:	90                   	nop
    2dd3:	90                   	nop
    2dd4:	90                   	nop
    2dd5:	90                   	nop
    2dd6:	90                   	nop
    2dd7:	90                   	nop
    2dd8:	90                   	nop
    2dd9:	90                   	nop
    2dda:	90                   	nop
    2ddb:	90                   	nop
    2ddc:	90                   	nop
    2ddd:	90                   	nop
    2dde:	90                   	nop
    2ddf:	90                   	nop
    2de0:	90                   	nop
    2de1:	90                   	nop
    2de2:	90                   	nop
    2de3:	90                   	nop
    2de4:	90                   	nop
    2de5:	90                   	nop
    2de6:	90                   	nop
    2de7:	90                   	nop
    2de8:	90                   	nop
    2de9:	90                   	nop
    2dea:	90                   	nop
    2deb:	90                   	nop
    2dec:	90                   	nop
    2ded:	90                   	nop
    2dee:	90                   	nop
    2def:	90                   	nop
    2df0:	90                   	nop
    2df1:	90                   	nop
    2df2:	90                   	nop
    2df3:	90                   	nop
    2df4:	90                   	nop
    2df5:	90                   	nop
    2df6:	90                   	nop
    2df7:	90                   	nop
    2df8:	90                   	nop
    2df9:	90                   	nop
    2dfa:	90                   	nop
    2dfb:	90                   	nop
    2dfc:	90                   	nop
    2dfd:	90                   	nop
    2dfe:	90                   	nop
    2dff:	90                   	nop
    2e00:	90                   	nop
    2e01:	90                   	nop
    2e02:	90                   	nop
    2e03:	90                   	nop
    2e04:	90                   	nop
    2e05:	90                   	nop
    2e06:	90                   	nop
    2e07:	90                   	nop
    2e08:	90                   	nop
    2e09:	90                   	nop
    2e0a:	90                   	nop
    2e0b:	90                   	nop
    2e0c:	90                   	nop
    2e0d:	90                   	nop
    2e0e:	90                   	nop
    2e0f:	90                   	nop
    2e10:	90                   	nop
    2e11:	90                   	nop
    2e12:	90                   	nop
    2e13:	90                   	nop
    2e14:	90                   	nop
    2e15:	90                   	nop
    2e16:	90                   	nop
    2e17:	90                   	nop
    2e18:	90                   	nop
    2e19:	90                   	nop
    2e1a:	90                   	nop
    2e1b:	90                   	nop
    2e1c:	90                   	nop
    2e1d:	90                   	nop
    2e1e:	90                   	nop
    2e1f:	90                   	nop
    2e20:	90                   	nop
    2e21:	90                   	nop
    2e22:	90                   	nop
    2e23:	90                   	nop
    2e24:	90                   	nop
    2e25:	90                   	nop
    2e26:	90                   	nop
    2e27:	90                   	nop
    2e28:	90                   	nop
    2e29:	90                   	nop
    2e2a:	90                   	nop
    2e2b:	90                   	nop
    2e2c:	90                   	nop
    2e2d:	90                   	nop
    2e2e:	90                   	nop
    2e2f:	90                   	nop
    2e30:	90                   	nop
    2e31:	90                   	nop
    2e32:	90                   	nop
    2e33:	90                   	nop
    2e34:	90                   	nop
    2e35:	90                   	nop
    2e36:	90                   	nop
    2e37:	90                   	nop
    2e38:	90                   	nop
    2e39:	90                   	nop
    2e3a:	90                   	nop
    2e3b:	90                   	nop
    2e3c:	90                   	nop
    2e3d:	90                   	nop
    2e3e:	90                   	nop
    2e3f:	90                   	nop
    2e40:	90                   	nop
    2e41:	90                   	nop
    2e42:	90                   	nop
    2e43:	90                   	nop
    2e44:	90                   	nop
    2e45:	90                   	nop
    2e46:	90                   	nop
    2e47:	90                   	nop
    2e48:	90                   	nop
    2e49:	90                   	nop
    2e4a:	90                   	nop
    2e4b:	90                   	nop
    2e4c:	90                   	nop
    2e4d:	90                   	nop
    2e4e:	90                   	nop
    2e4f:	90                   	nop
    2e50:	90                   	nop
    2e51:	90                   	nop
    2e52:	90                   	nop
    2e53:	90                   	nop
    2e54:	90                   	nop
    2e55:	90                   	nop
    2e56:	90                   	nop
    2e57:	90                   	nop
    2e58:	90                   	nop
    2e59:	90                   	nop
    2e5a:	90                   	nop
    2e5b:	90                   	nop
    2e5c:	90                   	nop
    2e5d:	90                   	nop
    2e5e:	90                   	nop
    2e5f:	90                   	nop
    2e60:	90                   	nop
    2e61:	90                   	nop
    2e62:	90                   	nop
    2e63:	90                   	nop
    2e64:	90                   	nop
    2e65:	90                   	nop
    2e66:	90                   	nop
    2e67:	90                   	nop
    2e68:	90                   	nop
    2e69:	90                   	nop
    2e6a:	90                   	nop
    2e6b:	90                   	nop
    2e6c:	90                   	nop
    2e6d:	90                   	nop
    2e6e:	90                   	nop
    2e6f:	90                   	nop
    2e70:	90                   	nop
    2e71:	90                   	nop
    2e72:	90                   	nop
    2e73:	90                   	nop
    2e74:	90                   	nop
    2e75:	90                   	nop
    2e76:	90                   	nop
    2e77:	90                   	nop
    2e78:	90                   	nop
    2e79:	90                   	nop
    2e7a:	90                   	nop
    2e7b:	90                   	nop
    2e7c:	90                   	nop
    2e7d:	90                   	nop
    2e7e:	90                   	nop
    2e7f:	90                   	nop
    2e80:	90                   	nop
    2e81:	90                   	nop
    2e82:	90                   	nop
    2e83:	90                   	nop
    2e84:	90                   	nop
    2e85:	90                   	nop
    2e86:	90                   	nop
    2e87:	90                   	nop
    2e88:	90                   	nop
    2e89:	90                   	nop
    2e8a:	90                   	nop
    2e8b:	90                   	nop
    2e8c:	90                   	nop
    2e8d:	90                   	nop
    2e8e:	90                   	nop
    2e8f:	90                   	nop
    2e90:	90                   	nop
    2e91:	90                   	nop
    2e92:	90                   	nop
    2e93:	90                   	nop
    2e94:	90                   	nop
    2e95:	90                   	nop
    2e96:	90                   	nop
    2e97:	90                   	nop
    2e98:	90                   	nop
    2e99:	90                   	nop
    2e9a:	90                   	nop
    2e9b:	90                   	nop
    2e9c:	90                   	nop
    2e9d:	90                   	nop
    2e9e:	90                   	nop
    2e9f:	90                   	nop
    2ea0:	90                   	nop
    2ea1:	90                   	nop
    2ea2:	90                   	nop
    2ea3:	90                   	nop
    2ea4:	90                   	nop
    2ea5:	90                   	nop
    2ea6:	90                   	nop
    2ea7:	90                   	nop
    2ea8:	90                   	nop
    2ea9:	90                   	nop
    2eaa:	90                   	nop
    2eab:	90                   	nop
    2eac:	90                   	nop
    2ead:	90                   	nop
    2eae:	90                   	nop
    2eaf:	90                   	nop
    2eb0:	90                   	nop
    2eb1:	90                   	nop
    2eb2:	90                   	nop
    2eb3:	90                   	nop
    2eb4:	90                   	nop
    2eb5:	90                   	nop
    2eb6:	90                   	nop
    2eb7:	90                   	nop
    2eb8:	90                   	nop
    2eb9:	90                   	nop
    2eba:	90                   	nop
    2ebb:	90                   	nop
    2ebc:	90                   	nop
    2ebd:	90                   	nop
    2ebe:	90                   	nop
    2ebf:	90                   	nop
    2ec0:	90                   	nop
    2ec1:	90                   	nop
    2ec2:	90                   	nop
    2ec3:	90                   	nop
    2ec4:	90                   	nop
    2ec5:	90                   	nop
    2ec6:	90                   	nop
    2ec7:	90                   	nop
    2ec8:	90                   	nop
    2ec9:	90                   	nop
    2eca:	90                   	nop
    2ecb:	90                   	nop
    2ecc:	90                   	nop
    2ecd:	90                   	nop
    2ece:	90                   	nop
    2ecf:	90                   	nop
    2ed0:	90                   	nop
    2ed1:	90                   	nop
    2ed2:	90                   	nop
    2ed3:	90                   	nop
    2ed4:	90                   	nop
    2ed5:	90                   	nop
    2ed6:	90                   	nop
    2ed7:	90                   	nop
    2ed8:	90                   	nop
    2ed9:	90                   	nop
    2eda:	90                   	nop
    2edb:	90                   	nop
    2edc:	90                   	nop
    2edd:	90                   	nop
    2ede:	90                   	nop
    2edf:	90                   	nop
    2ee0:	90                   	nop
    2ee1:	90                   	nop
    2ee2:	90                   	nop
    2ee3:	90                   	nop
    2ee4:	90                   	nop
    2ee5:	90                   	nop
    2ee6:	90                   	nop
    2ee7:	90                   	nop
    2ee8:	90                   	nop
    2ee9:	90                   	nop
    2eea:	90                   	nop
    2eeb:	90                   	nop
    2eec:	90                   	nop
    2eed:	90                   	nop
    2eee:	90                   	nop
    2eef:	90                   	nop
    2ef0:	90                   	nop
    2ef1:	90                   	nop
    2ef2:	90                   	nop
    2ef3:	90                   	nop
    2ef4:	90                   	nop
    2ef5:	90                   	nop
    2ef6:	90                   	nop
    2ef7:	90                   	nop
    2ef8:	90                   	nop
    2ef9:	90                   	nop
    2efa:	90                   	nop
    2efb:	90                   	nop
    2efc:	90                   	nop
    2efd:	90                   	nop
    2efe:	90                   	nop
    2eff:	90                   	nop
    2f00:	90                   	nop
    2f01:	90                   	nop
    2f02:	90                   	nop
    2f03:	90                   	nop
    2f04:	90                   	nop
    2f05:	90                   	nop
    2f06:	90                   	nop
    2f07:	90                   	nop
    2f08:	90                   	nop
    2f09:	90                   	nop
    2f0a:	90                   	nop
    2f0b:	90                   	nop
    2f0c:	90                   	nop
    2f0d:	90                   	nop
    2f0e:	90                   	nop
    2f0f:	90                   	nop
    2f10:	90                   	nop
    2f11:	90                   	nop
    2f12:	90                   	nop
    2f13:	90                   	nop
    2f14:	90                   	nop
    2f15:	90                   	nop
    2f16:	90                   	nop
    2f17:	90                   	nop
    2f18:	90                   	nop
    2f19:	90                   	nop
    2f1a:	90                   	nop
    2f1b:	90                   	nop
    2f1c:	90                   	nop
    2f1d:	90                   	nop
    2f1e:	90                   	nop
    2f1f:	90                   	nop
    2f20:	90                   	nop
    2f21:	90                   	nop
    2f22:	90                   	nop
    2f23:	90                   	nop
    2f24:	90                   	nop
    2f25:	90                   	nop
    2f26:	90                   	nop
    2f27:	90                   	nop
    2f28:	90                   	nop
    2f29:	90                   	nop
    2f2a:	90                   	nop
    2f2b:	90                   	nop
    2f2c:	90                   	nop
    2f2d:	90                   	nop
    2f2e:	90                   	nop
    2f2f:	90                   	nop
    2f30:	90                   	nop
    2f31:	90                   	nop
    2f32:	90                   	nop
    2f33:	90                   	nop
    2f34:	90                   	nop
    2f35:	90                   	nop
    2f36:	90                   	nop
    2f37:	90                   	nop
    2f38:	90                   	nop
    2f39:	90                   	nop
    2f3a:	90                   	nop
    2f3b:	90                   	nop
    2f3c:	90                   	nop
    2f3d:	90                   	nop
    2f3e:	5b                   	pop    rbx
    2f3f:	c3                   	ret

0000000000002f40 <__DualGate__2_1_14>:
    2f40:	53                   	push   rbx
    2f41:	4c 89 cb             	mov    rbx,r9
    2f44:	4d 89 c3             	mov    r11,r8
    2f47:	49 89 c9             	mov    r9,rcx
    2f4a:	49 89 d0             	mov    r8,rdx
    2f4d:	e8 2e e2 ff ff       	call   1180 <mod_ret_addr>
    2f52:	48 0f b6 3f          	movzx  rdi,BYTE PTR [rdi]
    2f56:	48 0f b6 36          	movzx  rsi,BYTE PTR [rsi]
    2f5a:	4d 0f b6 00          	movzx  r8,BYTE PTR [r8]
    2f5e:	4d 0f b6 09          	movzx  r9,BYTE PTR [r9]
    2f62:	46 8a 94 0b 00 01 00 	mov    r10b,BYTE PTR [rbx+r9*1+0x100]
    2f69:	00 
    2f6a:	44 8a 94 33 00 01 00 	mov    r10b,BYTE PTR [rbx+rsi*1+0x100]
    2f71:	00 
    2f72:	4d 8d 14 3b          	lea    r10,[r11+rdi*1]
    2f76:	47 8a 94 02 00 01 00 	mov    r10b,BYTE PTR [r10+r8*1+0x100]
    2f7d:	00 
    2f7e:	90                   	nop
    2f7f:	90                   	nop
    2f80:	90                   	nop
    2f81:	90                   	nop
    2f82:	90                   	nop
    2f83:	90                   	nop
    2f84:	90                   	nop
    2f85:	90                   	nop
    2f86:	90                   	nop
    2f87:	90                   	nop
    2f88:	90                   	nop
    2f89:	90                   	nop
    2f8a:	90                   	nop
    2f8b:	90                   	nop
    2f8c:	90                   	nop
    2f8d:	90                   	nop
    2f8e:	90                   	nop
    2f8f:	90                   	nop
    2f90:	90                   	nop
    2f91:	90                   	nop
    2f92:	90                   	nop
    2f93:	90                   	nop
    2f94:	90                   	nop
    2f95:	90                   	nop
    2f96:	90                   	nop
    2f97:	90                   	nop
    2f98:	90                   	nop
    2f99:	90                   	nop
    2f9a:	90                   	nop
    2f9b:	90                   	nop
    2f9c:	90                   	nop
    2f9d:	90                   	nop
    2f9e:	90                   	nop
    2f9f:	90                   	nop
    2fa0:	90                   	nop
    2fa1:	90                   	nop
    2fa2:	90                   	nop
    2fa3:	90                   	nop
    2fa4:	90                   	nop
    2fa5:	90                   	nop
    2fa6:	90                   	nop
    2fa7:	90                   	nop
    2fa8:	90                   	nop
    2fa9:	90                   	nop
    2faa:	90                   	nop
    2fab:	90                   	nop
    2fac:	90                   	nop
    2fad:	90                   	nop
    2fae:	90                   	nop
    2faf:	90                   	nop
    2fb0:	90                   	nop
    2fb1:	90                   	nop
    2fb2:	90                   	nop
    2fb3:	90                   	nop
    2fb4:	90                   	nop
    2fb5:	90                   	nop
    2fb6:	90                   	nop
    2fb7:	90                   	nop
    2fb8:	90                   	nop
    2fb9:	90                   	nop
    2fba:	90                   	nop
    2fbb:	90                   	nop
    2fbc:	90                   	nop
    2fbd:	90                   	nop
    2fbe:	90                   	nop
    2fbf:	90                   	nop
    2fc0:	90                   	nop
    2fc1:	90                   	nop
    2fc2:	90                   	nop
    2fc3:	90                   	nop
    2fc4:	90                   	nop
    2fc5:	90                   	nop
    2fc6:	90                   	nop
    2fc7:	90                   	nop
    2fc8:	90                   	nop
    2fc9:	90                   	nop
    2fca:	90                   	nop
    2fcb:	90                   	nop
    2fcc:	90                   	nop
    2fcd:	90                   	nop
    2fce:	90                   	nop
    2fcf:	90                   	nop
    2fd0:	90                   	nop
    2fd1:	90                   	nop
    2fd2:	90                   	nop
    2fd3:	90                   	nop
    2fd4:	90                   	nop
    2fd5:	90                   	nop
    2fd6:	90                   	nop
    2fd7:	90                   	nop
    2fd8:	90                   	nop
    2fd9:	90                   	nop
    2fda:	90                   	nop
    2fdb:	90                   	nop
    2fdc:	90                   	nop
    2fdd:	90                   	nop
    2fde:	90                   	nop
    2fdf:	90                   	nop
    2fe0:	90                   	nop
    2fe1:	90                   	nop
    2fe2:	90                   	nop
    2fe3:	90                   	nop
    2fe4:	90                   	nop
    2fe5:	90                   	nop
    2fe6:	90                   	nop
    2fe7:	90                   	nop
    2fe8:	90                   	nop
    2fe9:	90                   	nop
    2fea:	90                   	nop
    2feb:	90                   	nop
    2fec:	90                   	nop
    2fed:	90                   	nop
    2fee:	90                   	nop
    2fef:	90                   	nop
    2ff0:	90                   	nop
    2ff1:	90                   	nop
    2ff2:	90                   	nop
    2ff3:	90                   	nop
    2ff4:	90                   	nop
    2ff5:	90                   	nop
    2ff6:	90                   	nop
    2ff7:	90                   	nop
    2ff8:	90                   	nop
    2ff9:	90                   	nop
    2ffa:	90                   	nop
    2ffb:	90                   	nop
    2ffc:	90                   	nop
    2ffd:	90                   	nop
    2ffe:	90                   	nop
    2fff:	90                   	nop
    3000:	90                   	nop
    3001:	90                   	nop
    3002:	90                   	nop
    3003:	90                   	nop
    3004:	90                   	nop
    3005:	90                   	nop
    3006:	90                   	nop
    3007:	90                   	nop
    3008:	90                   	nop
    3009:	90                   	nop
    300a:	90                   	nop
    300b:	90                   	nop
    300c:	90                   	nop
    300d:	90                   	nop
    300e:	90                   	nop
    300f:	90                   	nop
    3010:	90                   	nop
    3011:	90                   	nop
    3012:	90                   	nop
    3013:	90                   	nop
    3014:	90                   	nop
    3015:	90                   	nop
    3016:	90                   	nop
    3017:	90                   	nop
    3018:	90                   	nop
    3019:	90                   	nop
    301a:	90                   	nop
    301b:	90                   	nop
    301c:	90                   	nop
    301d:	90                   	nop
    301e:	90                   	nop
    301f:	90                   	nop
    3020:	90                   	nop
    3021:	90                   	nop
    3022:	90                   	nop
    3023:	90                   	nop
    3024:	90                   	nop
    3025:	90                   	nop
    3026:	90                   	nop
    3027:	90                   	nop
    3028:	90                   	nop
    3029:	90                   	nop
    302a:	90                   	nop
    302b:	90                   	nop
    302c:	90                   	nop
    302d:	90                   	nop
    302e:	90                   	nop
    302f:	90                   	nop
    3030:	90                   	nop
    3031:	90                   	nop
    3032:	90                   	nop
    3033:	90                   	nop
    3034:	90                   	nop
    3035:	90                   	nop
    3036:	90                   	nop
    3037:	90                   	nop
    3038:	90                   	nop
    3039:	90                   	nop
    303a:	90                   	nop
    303b:	90                   	nop
    303c:	90                   	nop
    303d:	90                   	nop
    303e:	90                   	nop
    303f:	90                   	nop
    3040:	90                   	nop
    3041:	90                   	nop
    3042:	90                   	nop
    3043:	90                   	nop
    3044:	90                   	nop
    3045:	90                   	nop
    3046:	90                   	nop
    3047:	90                   	nop
    3048:	90                   	nop
    3049:	90                   	nop
    304a:	90                   	nop
    304b:	90                   	nop
    304c:	90                   	nop
    304d:	90                   	nop
    304e:	90                   	nop
    304f:	90                   	nop
    3050:	90                   	nop
    3051:	90                   	nop
    3052:	90                   	nop
    3053:	90                   	nop
    3054:	90                   	nop
    3055:	90                   	nop
    3056:	90                   	nop
    3057:	90                   	nop
    3058:	90                   	nop
    3059:	90                   	nop
    305a:	90                   	nop
    305b:	90                   	nop
    305c:	90                   	nop
    305d:	90                   	nop
    305e:	90                   	nop
    305f:	90                   	nop
    3060:	90                   	nop
    3061:	90                   	nop
    3062:	90                   	nop
    3063:	90                   	nop
    3064:	90                   	nop
    3065:	90                   	nop
    3066:	90                   	nop
    3067:	90                   	nop
    3068:	90                   	nop
    3069:	90                   	nop
    306a:	90                   	nop
    306b:	90                   	nop
    306c:	90                   	nop
    306d:	90                   	nop
    306e:	90                   	nop
    306f:	90                   	nop
    3070:	90                   	nop
    3071:	90                   	nop
    3072:	90                   	nop
    3073:	90                   	nop
    3074:	90                   	nop
    3075:	90                   	nop
    3076:	90                   	nop
    3077:	90                   	nop
    3078:	90                   	nop
    3079:	90                   	nop
    307a:	90                   	nop
    307b:	90                   	nop
    307c:	90                   	nop
    307d:	90                   	nop
    307e:	90                   	nop
    307f:	90                   	nop
    3080:	90                   	nop
    3081:	90                   	nop
    3082:	90                   	nop
    3083:	90                   	nop
    3084:	90                   	nop
    3085:	90                   	nop
    3086:	90                   	nop
    3087:	90                   	nop
    3088:	90                   	nop
    3089:	90                   	nop
    308a:	90                   	nop
    308b:	90                   	nop
    308c:	90                   	nop
    308d:	90                   	nop
    308e:	90                   	nop
    308f:	90                   	nop
    3090:	90                   	nop
    3091:	90                   	nop
    3092:	90                   	nop
    3093:	90                   	nop
    3094:	90                   	nop
    3095:	90                   	nop
    3096:	90                   	nop
    3097:	90                   	nop
    3098:	90                   	nop
    3099:	90                   	nop
    309a:	90                   	nop
    309b:	90                   	nop
    309c:	90                   	nop
    309d:	90                   	nop
    309e:	90                   	nop
    309f:	90                   	nop
    30a0:	90                   	nop
    30a1:	90                   	nop
    30a2:	90                   	nop
    30a3:	90                   	nop
    30a4:	90                   	nop
    30a5:	90                   	nop
    30a6:	90                   	nop
    30a7:	90                   	nop
    30a8:	90                   	nop
    30a9:	90                   	nop
    30aa:	90                   	nop
    30ab:	90                   	nop
    30ac:	90                   	nop
    30ad:	90                   	nop
    30ae:	90                   	nop
    30af:	90                   	nop
    30b0:	90                   	nop
    30b1:	90                   	nop
    30b2:	90                   	nop
    30b3:	90                   	nop
    30b4:	90                   	nop
    30b5:	90                   	nop
    30b6:	90                   	nop
    30b7:	90                   	nop
    30b8:	90                   	nop
    30b9:	90                   	nop
    30ba:	90                   	nop
    30bb:	90                   	nop
    30bc:	90                   	nop
    30bd:	90                   	nop
    30be:	90                   	nop
    30bf:	90                   	nop
    30c0:	90                   	nop
    30c1:	90                   	nop
    30c2:	90                   	nop
    30c3:	90                   	nop
    30c4:	90                   	nop
    30c5:	90                   	nop
    30c6:	90                   	nop
    30c7:	90                   	nop
    30c8:	90                   	nop
    30c9:	90                   	nop
    30ca:	90                   	nop
    30cb:	90                   	nop
    30cc:	90                   	nop
    30cd:	90                   	nop
    30ce:	90                   	nop
    30cf:	90                   	nop
    30d0:	90                   	nop
    30d1:	90                   	nop
    30d2:	90                   	nop
    30d3:	90                   	nop
    30d4:	90                   	nop
    30d5:	90                   	nop
    30d6:	90                   	nop
    30d7:	90                   	nop
    30d8:	90                   	nop
    30d9:	90                   	nop
    30da:	90                   	nop
    30db:	90                   	nop
    30dc:	90                   	nop
    30dd:	90                   	nop
    30de:	90                   	nop
    30df:	90                   	nop
    30e0:	90                   	nop
    30e1:	90                   	nop
    30e2:	90                   	nop
    30e3:	90                   	nop
    30e4:	90                   	nop
    30e5:	90                   	nop
    30e6:	90                   	nop
    30e7:	90                   	nop
    30e8:	90                   	nop
    30e9:	90                   	nop
    30ea:	90                   	nop
    30eb:	90                   	nop
    30ec:	90                   	nop
    30ed:	90                   	nop
    30ee:	90                   	nop
    30ef:	90                   	nop
    30f0:	90                   	nop
    30f1:	90                   	nop
    30f2:	90                   	nop
    30f3:	90                   	nop
    30f4:	90                   	nop
    30f5:	90                   	nop
    30f6:	90                   	nop
    30f7:	90                   	nop
    30f8:	90                   	nop
    30f9:	90                   	nop
    30fa:	90                   	nop
    30fb:	90                   	nop
    30fc:	90                   	nop
    30fd:	90                   	nop
    30fe:	90                   	nop
    30ff:	90                   	nop
    3100:	90                   	nop
    3101:	90                   	nop
    3102:	90                   	nop
    3103:	90                   	nop
    3104:	90                   	nop
    3105:	90                   	nop
    3106:	90                   	nop
    3107:	90                   	nop
    3108:	90                   	nop
    3109:	90                   	nop
    310a:	90                   	nop
    310b:	90                   	nop
    310c:	90                   	nop
    310d:	90                   	nop
    310e:	90                   	nop
    310f:	90                   	nop
    3110:	90                   	nop
    3111:	90                   	nop
    3112:	90                   	nop
    3113:	90                   	nop
    3114:	90                   	nop
    3115:	90                   	nop
    3116:	90                   	nop
    3117:	90                   	nop
    3118:	90                   	nop
    3119:	90                   	nop
    311a:	90                   	nop
    311b:	90                   	nop
    311c:	90                   	nop
    311d:	90                   	nop
    311e:	90                   	nop
    311f:	90                   	nop
    3120:	90                   	nop
    3121:	90                   	nop
    3122:	90                   	nop
    3123:	90                   	nop
    3124:	90                   	nop
    3125:	90                   	nop
    3126:	90                   	nop
    3127:	90                   	nop
    3128:	90                   	nop
    3129:	90                   	nop
    312a:	90                   	nop
    312b:	90                   	nop
    312c:	90                   	nop
    312d:	90                   	nop
    312e:	90                   	nop
    312f:	90                   	nop
    3130:	90                   	nop
    3131:	90                   	nop
    3132:	90                   	nop
    3133:	90                   	nop
    3134:	90                   	nop
    3135:	90                   	nop
    3136:	90                   	nop
    3137:	90                   	nop
    3138:	90                   	nop
    3139:	90                   	nop
    313a:	90                   	nop
    313b:	90                   	nop
    313c:	90                   	nop
    313d:	90                   	nop
    313e:	90                   	nop
    313f:	90                   	nop
    3140:	90                   	nop
    3141:	90                   	nop
    3142:	90                   	nop
    3143:	90                   	nop
    3144:	90                   	nop
    3145:	90                   	nop
    3146:	90                   	nop
    3147:	90                   	nop
    3148:	90                   	nop
    3149:	90                   	nop
    314a:	90                   	nop
    314b:	90                   	nop
    314c:	90                   	nop
    314d:	90                   	nop
    314e:	90                   	nop
    314f:	90                   	nop
    3150:	90                   	nop
    3151:	90                   	nop
    3152:	90                   	nop
    3153:	90                   	nop
    3154:	90                   	nop
    3155:	90                   	nop
    3156:	90                   	nop
    3157:	90                   	nop
    3158:	90                   	nop
    3159:	90                   	nop
    315a:	90                   	nop
    315b:	90                   	nop
    315c:	90                   	nop
    315d:	90                   	nop
    315e:	90                   	nop
    315f:	90                   	nop
    3160:	90                   	nop
    3161:	90                   	nop
    3162:	90                   	nop
    3163:	90                   	nop
    3164:	90                   	nop
    3165:	90                   	nop
    3166:	90                   	nop
    3167:	90                   	nop
    3168:	90                   	nop
    3169:	90                   	nop
    316a:	90                   	nop
    316b:	90                   	nop
    316c:	90                   	nop
    316d:	90                   	nop
    316e:	90                   	nop
    316f:	90                   	nop
    3170:	90                   	nop
    3171:	90                   	nop
    3172:	90                   	nop
    3173:	90                   	nop
    3174:	90                   	nop
    3175:	90                   	nop
    3176:	90                   	nop
    3177:	90                   	nop
    3178:	90                   	nop
    3179:	90                   	nop
    317a:	90                   	nop
    317b:	90                   	nop
    317c:	90                   	nop
    317d:	90                   	nop
    317e:	5b                   	pop    rbx
    317f:	c3                   	ret

0000000000003180 <__DualGate__1_1_1>:
    3180:	49 89 c9             	mov    r9,rcx
    3183:	49 89 d0             	mov    r8,rdx
    3186:	e8 f5 df ff ff       	call   1180 <mod_ret_addr>
    318b:	48 0f b6 3f          	movzx  rdi,BYTE PTR [rdi]
    318f:	48 0f b6 36          	movzx  rsi,BYTE PTR [rsi]
    3193:	45 8a 94 39 00 01 00 	mov    r10b,BYTE PTR [r9+rdi*1+0x100]
    319a:	00 
    319b:	45 8a 94 30 00 01 00 	mov    r10b,BYTE PTR [r8+rsi*1+0x100]
    31a2:	00 
    31a3:	90                   	nop
    31a4:	90                   	nop
    31a5:	90                   	nop
    31a6:	90                   	nop
    31a7:	90                   	nop
    31a8:	90                   	nop
    31a9:	90                   	nop
    31aa:	90                   	nop
    31ab:	90                   	nop
    31ac:	90                   	nop
    31ad:	90                   	nop
    31ae:	90                   	nop
    31af:	90                   	nop
    31b0:	90                   	nop
    31b1:	90                   	nop
    31b2:	90                   	nop
    31b3:	90                   	nop
    31b4:	90                   	nop
    31b5:	90                   	nop
    31b6:	90                   	nop
    31b7:	90                   	nop
    31b8:	90                   	nop
    31b9:	90                   	nop
    31ba:	90                   	nop
    31bb:	90                   	nop
    31bc:	90                   	nop
    31bd:	90                   	nop
    31be:	90                   	nop
    31bf:	90                   	nop
    31c0:	90                   	nop
    31c1:	90                   	nop
    31c2:	90                   	nop
    31c3:	90                   	nop
    31c4:	90                   	nop
    31c5:	90                   	nop
    31c6:	90                   	nop
    31c7:	90                   	nop
    31c8:	90                   	nop
    31c9:	90                   	nop
    31ca:	90                   	nop
    31cb:	90                   	nop
    31cc:	90                   	nop
    31cd:	90                   	nop
    31ce:	90                   	nop
    31cf:	90                   	nop
    31d0:	90                   	nop
    31d1:	90                   	nop
    31d2:	90                   	nop
    31d3:	90                   	nop
    31d4:	90                   	nop
    31d5:	90                   	nop
    31d6:	90                   	nop
    31d7:	90                   	nop
    31d8:	90                   	nop
    31d9:	90                   	nop
    31da:	90                   	nop
    31db:	90                   	nop
    31dc:	90                   	nop
    31dd:	90                   	nop
    31de:	90                   	nop
    31df:	90                   	nop
    31e0:	90                   	nop
    31e1:	90                   	nop
    31e2:	90                   	nop
    31e3:	90                   	nop
    31e4:	90                   	nop
    31e5:	90                   	nop
    31e6:	90                   	nop
    31e7:	90                   	nop
    31e8:	90                   	nop
    31e9:	90                   	nop
    31ea:	90                   	nop
    31eb:	90                   	nop
    31ec:	90                   	nop
    31ed:	90                   	nop
    31ee:	90                   	nop
    31ef:	90                   	nop
    31f0:	90                   	nop
    31f1:	90                   	nop
    31f2:	90                   	nop
    31f3:	90                   	nop
    31f4:	90                   	nop
    31f5:	90                   	nop
    31f6:	90                   	nop
    31f7:	90                   	nop
    31f8:	90                   	nop
    31f9:	90                   	nop
    31fa:	90                   	nop
    31fb:	90                   	nop
    31fc:	90                   	nop
    31fd:	90                   	nop
    31fe:	90                   	nop
    31ff:	90                   	nop
    3200:	90                   	nop
    3201:	90                   	nop
    3202:	90                   	nop
    3203:	90                   	nop
    3204:	90                   	nop
    3205:	90                   	nop
    3206:	90                   	nop
    3207:	90                   	nop
    3208:	90                   	nop
    3209:	90                   	nop
    320a:	90                   	nop
    320b:	90                   	nop
    320c:	90                   	nop
    320d:	90                   	nop
    320e:	90                   	nop
    320f:	90                   	nop
    3210:	90                   	nop
    3211:	90                   	nop
    3212:	90                   	nop
    3213:	90                   	nop
    3214:	90                   	nop
    3215:	90                   	nop
    3216:	90                   	nop
    3217:	90                   	nop
    3218:	90                   	nop
    3219:	90                   	nop
    321a:	90                   	nop
    321b:	90                   	nop
    321c:	90                   	nop
    321d:	90                   	nop
    321e:	90                   	nop
    321f:	90                   	nop
    3220:	90                   	nop
    3221:	90                   	nop
    3222:	90                   	nop
    3223:	90                   	nop
    3224:	90                   	nop
    3225:	90                   	nop
    3226:	90                   	nop
    3227:	90                   	nop
    3228:	90                   	nop
    3229:	90                   	nop
    322a:	90                   	nop
    322b:	90                   	nop
    322c:	90                   	nop
    322d:	90                   	nop
    322e:	90                   	nop
    322f:	90                   	nop
    3230:	90                   	nop
    3231:	90                   	nop
    3232:	90                   	nop
    3233:	90                   	nop
    3234:	90                   	nop
    3235:	90                   	nop
    3236:	90                   	nop
    3237:	90                   	nop
    3238:	90                   	nop
    3239:	90                   	nop
    323a:	90                   	nop
    323b:	90                   	nop
    323c:	90                   	nop
    323d:	90                   	nop
    323e:	90                   	nop
    323f:	90                   	nop
    3240:	90                   	nop
    3241:	90                   	nop
    3242:	90                   	nop
    3243:	90                   	nop
    3244:	90                   	nop
    3245:	90                   	nop
    3246:	90                   	nop
    3247:	90                   	nop
    3248:	90                   	nop
    3249:	90                   	nop
    324a:	90                   	nop
    324b:	90                   	nop
    324c:	90                   	nop
    324d:	90                   	nop
    324e:	90                   	nop
    324f:	90                   	nop
    3250:	90                   	nop
    3251:	90                   	nop
    3252:	90                   	nop
    3253:	90                   	nop
    3254:	90                   	nop
    3255:	90                   	nop
    3256:	90                   	nop
    3257:	90                   	nop
    3258:	90                   	nop
    3259:	90                   	nop
    325a:	90                   	nop
    325b:	90                   	nop
    325c:	90                   	nop
    325d:	90                   	nop
    325e:	90                   	nop
    325f:	90                   	nop
    3260:	90                   	nop
    3261:	90                   	nop
    3262:	90                   	nop
    3263:	90                   	nop
    3264:	90                   	nop
    3265:	90                   	nop
    3266:	90                   	nop
    3267:	90                   	nop
    3268:	90                   	nop
    3269:	90                   	nop
    326a:	90                   	nop
    326b:	90                   	nop
    326c:	90                   	nop
    326d:	90                   	nop
    326e:	90                   	nop
    326f:	90                   	nop
    3270:	90                   	nop
    3271:	90                   	nop
    3272:	90                   	nop
    3273:	90                   	nop
    3274:	90                   	nop
    3275:	90                   	nop
    3276:	90                   	nop
    3277:	90                   	nop
    3278:	90                   	nop
    3279:	90                   	nop
    327a:	90                   	nop
    327b:	90                   	nop
    327c:	90                   	nop
    327d:	90                   	nop
    327e:	90                   	nop
    327f:	90                   	nop
    3280:	90                   	nop
    3281:	90                   	nop
    3282:	90                   	nop
    3283:	90                   	nop
    3284:	90                   	nop
    3285:	90                   	nop
    3286:	90                   	nop
    3287:	90                   	nop
    3288:	90                   	nop
    3289:	90                   	nop
    328a:	90                   	nop
    328b:	90                   	nop
    328c:	90                   	nop
    328d:	90                   	nop
    328e:	90                   	nop
    328f:	90                   	nop
    3290:	90                   	nop
    3291:	90                   	nop
    3292:	90                   	nop
    3293:	90                   	nop
    3294:	90                   	nop
    3295:	90                   	nop
    3296:	90                   	nop
    3297:	90                   	nop
    3298:	90                   	nop
    3299:	90                   	nop
    329a:	90                   	nop
    329b:	90                   	nop
    329c:	90                   	nop
    329d:	90                   	nop
    329e:	90                   	nop
    329f:	90                   	nop
    32a0:	90                   	nop
    32a1:	90                   	nop
    32a2:	90                   	nop
    32a3:	90                   	nop
    32a4:	90                   	nop
    32a5:	90                   	nop
    32a6:	90                   	nop
    32a7:	90                   	nop
    32a8:	90                   	nop
    32a9:	90                   	nop
    32aa:	90                   	nop
    32ab:	90                   	nop
    32ac:	90                   	nop
    32ad:	90                   	nop
    32ae:	90                   	nop
    32af:	90                   	nop
    32b0:	90                   	nop
    32b1:	90                   	nop
    32b2:	90                   	nop
    32b3:	90                   	nop
    32b4:	90                   	nop
    32b5:	90                   	nop
    32b6:	90                   	nop
    32b7:	90                   	nop
    32b8:	90                   	nop
    32b9:	90                   	nop
    32ba:	90                   	nop
    32bb:	90                   	nop
    32bc:	90                   	nop
    32bd:	90                   	nop
    32be:	90                   	nop
    32bf:	90                   	nop
    32c0:	90                   	nop
    32c1:	90                   	nop
    32c2:	90                   	nop
    32c3:	90                   	nop
    32c4:	90                   	nop
    32c5:	90                   	nop
    32c6:	90                   	nop
    32c7:	90                   	nop
    32c8:	90                   	nop
    32c9:	90                   	nop
    32ca:	90                   	nop
    32cb:	90                   	nop
    32cc:	90                   	nop
    32cd:	90                   	nop
    32ce:	90                   	nop
    32cf:	90                   	nop
    32d0:	90                   	nop
    32d1:	90                   	nop
    32d2:	90                   	nop
    32d3:	90                   	nop
    32d4:	90                   	nop
    32d5:	90                   	nop
    32d6:	90                   	nop
    32d7:	90                   	nop
    32d8:	90                   	nop
    32d9:	90                   	nop
    32da:	90                   	nop
    32db:	90                   	nop
    32dc:	90                   	nop
    32dd:	90                   	nop
    32de:	90                   	nop
    32df:	90                   	nop
    32e0:	90                   	nop
    32e1:	90                   	nop
    32e2:	90                   	nop
    32e3:	90                   	nop
    32e4:	90                   	nop
    32e5:	90                   	nop
    32e6:	90                   	nop
    32e7:	90                   	nop
    32e8:	90                   	nop
    32e9:	90                   	nop
    32ea:	90                   	nop
    32eb:	90                   	nop
    32ec:	90                   	nop
    32ed:	90                   	nop
    32ee:	90                   	nop
    32ef:	90                   	nop
    32f0:	90                   	nop
    32f1:	90                   	nop
    32f2:	90                   	nop
    32f3:	90                   	nop
    32f4:	90                   	nop
    32f5:	90                   	nop
    32f6:	90                   	nop
    32f7:	90                   	nop
    32f8:	90                   	nop
    32f9:	90                   	nop
    32fa:	90                   	nop
    32fb:	90                   	nop
    32fc:	90                   	nop
    32fd:	90                   	nop
    32fe:	90                   	nop
    32ff:	90                   	nop
    3300:	90                   	nop
    3301:	90                   	nop
    3302:	90                   	nop
    3303:	90                   	nop
    3304:	90                   	nop
    3305:	90                   	nop
    3306:	90                   	nop
    3307:	90                   	nop
    3308:	90                   	nop
    3309:	90                   	nop
    330a:	90                   	nop
    330b:	90                   	nop
    330c:	90                   	nop
    330d:	90                   	nop
    330e:	90                   	nop
    330f:	90                   	nop
    3310:	90                   	nop
    3311:	90                   	nop
    3312:	90                   	nop
    3313:	90                   	nop
    3314:	90                   	nop
    3315:	90                   	nop
    3316:	90                   	nop
    3317:	90                   	nop
    3318:	90                   	nop
    3319:	90                   	nop
    331a:	90                   	nop
    331b:	90                   	nop
    331c:	90                   	nop
    331d:	90                   	nop
    331e:	90                   	nop
    331f:	90                   	nop
    3320:	90                   	nop
    3321:	90                   	nop
    3322:	90                   	nop
    3323:	90                   	nop
    3324:	90                   	nop
    3325:	90                   	nop
    3326:	90                   	nop
    3327:	90                   	nop
    3328:	90                   	nop
    3329:	90                   	nop
    332a:	90                   	nop
    332b:	90                   	nop
    332c:	90                   	nop
    332d:	90                   	nop
    332e:	90                   	nop
    332f:	90                   	nop
    3330:	90                   	nop
    3331:	90                   	nop
    3332:	90                   	nop
    3333:	90                   	nop
    3334:	90                   	nop
    3335:	90                   	nop
    3336:	90                   	nop
    3337:	90                   	nop
    3338:	90                   	nop
    3339:	90                   	nop
    333a:	90                   	nop
    333b:	90                   	nop
    333c:	90                   	nop
    333d:	90                   	nop
    333e:	90                   	nop
    333f:	90                   	nop
    3340:	90                   	nop
    3341:	90                   	nop
    3342:	90                   	nop
    3343:	90                   	nop
    3344:	90                   	nop
    3345:	90                   	nop
    3346:	90                   	nop
    3347:	90                   	nop
    3348:	90                   	nop
    3349:	90                   	nop
    334a:	90                   	nop
    334b:	90                   	nop
    334c:	90                   	nop
    334d:	90                   	nop
    334e:	90                   	nop
    334f:	90                   	nop
    3350:	90                   	nop
    3351:	90                   	nop
    3352:	90                   	nop
    3353:	90                   	nop
    3354:	90                   	nop
    3355:	90                   	nop
    3356:	90                   	nop
    3357:	90                   	nop
    3358:	90                   	nop
    3359:	90                   	nop
    335a:	90                   	nop
    335b:	90                   	nop
    335c:	90                   	nop
    335d:	90                   	nop
    335e:	90                   	nop
    335f:	90                   	nop
    3360:	90                   	nop
    3361:	90                   	nop
    3362:	90                   	nop
    3363:	90                   	nop
    3364:	90                   	nop
    3365:	90                   	nop
    3366:	90                   	nop
    3367:	90                   	nop
    3368:	90                   	nop
    3369:	90                   	nop
    336a:	90                   	nop
    336b:	90                   	nop
    336c:	90                   	nop
    336d:	90                   	nop
    336e:	90                   	nop
    336f:	90                   	nop
    3370:	90                   	nop
    3371:	90                   	nop
    3372:	90                   	nop
    3373:	90                   	nop
    3374:	90                   	nop
    3375:	90                   	nop
    3376:	90                   	nop
    3377:	90                   	nop
    3378:	90                   	nop
    3379:	90                   	nop
    337a:	90                   	nop
    337b:	90                   	nop
    337c:	90                   	nop
    337d:	90                   	nop
    337e:	90                   	nop
    337f:	90                   	nop
    3380:	90                   	nop
    3381:	90                   	nop
    3382:	90                   	nop
    3383:	90                   	nop
    3384:	90                   	nop
    3385:	90                   	nop
    3386:	90                   	nop
    3387:	90                   	nop
    3388:	90                   	nop
    3389:	90                   	nop
    338a:	90                   	nop
    338b:	90                   	nop
    338c:	90                   	nop
    338d:	90                   	nop
    338e:	90                   	nop
    338f:	90                   	nop
    3390:	90                   	nop
    3391:	90                   	nop
    3392:	90                   	nop
    3393:	90                   	nop
    3394:	90                   	nop
    3395:	90                   	nop
    3396:	90                   	nop
    3397:	90                   	nop
    3398:	90                   	nop
    3399:	90                   	nop
    339a:	90                   	nop
    339b:	90                   	nop
    339c:	90                   	nop
    339d:	90                   	nop
    339e:	90                   	nop
    339f:	90                   	nop
    33a0:	90                   	nop
    33a1:	90                   	nop
    33a2:	90                   	nop
    33a3:	c3                   	ret
    33a4:	66 66 66 2e 0f 1f 84 	data16 data16 cs nop WORD PTR [rax+rax*1+0x0]
    33ab:	00 00 00 00 00 

00000000000033b0 <__DualGate__2_1_7>:
    33b0:	53                   	push   rbx
    33b1:	4c 89 cb             	mov    rbx,r9
    33b4:	4d 89 c3             	mov    r11,r8
    33b7:	49 89 c9             	mov    r9,rcx
    33ba:	49 89 d0             	mov    r8,rdx
    33bd:	e8 be dd ff ff       	call   1180 <mod_ret_addr>
    33c2:	48 0f b6 3f          	movzx  rdi,BYTE PTR [rdi]
    33c6:	48 0f b6 36          	movzx  rsi,BYTE PTR [rsi]
    33ca:	4d 0f b6 00          	movzx  r8,BYTE PTR [r8]
    33ce:	4d 0f b6 09          	movzx  r9,BYTE PTR [r9]
    33d2:	46 8a 94 03 00 01 00 	mov    r10b,BYTE PTR [rbx+r8*1+0x100]
    33d9:	00 
    33da:	44 8a 94 3b 00 01 00 	mov    r10b,BYTE PTR [rbx+rdi*1+0x100]
    33e1:	00 
    33e2:	4d 8d 14 33          	lea    r10,[r11+rsi*1]
    33e6:	47 8a 94 0a 00 01 00 	mov    r10b,BYTE PTR [r10+r9*1+0x100]
    33ed:	00 
    33ee:	90                   	nop
    33ef:	90                   	nop
    33f0:	90                   	nop
    33f1:	90                   	nop
    33f2:	90                   	nop
    33f3:	90                   	nop
    33f4:	90                   	nop
    33f5:	90                   	nop
    33f6:	90                   	nop
    33f7:	90                   	nop
    33f8:	90                   	nop
    33f9:	90                   	nop
    33fa:	90                   	nop
    33fb:	90                   	nop
    33fc:	90                   	nop
    33fd:	90                   	nop
    33fe:	90                   	nop
    33ff:	90                   	nop
    3400:	90                   	nop
    3401:	90                   	nop
    3402:	90                   	nop
    3403:	90                   	nop
    3404:	90                   	nop
    3405:	90                   	nop
    3406:	90                   	nop
    3407:	90                   	nop
    3408:	90                   	nop
    3409:	90                   	nop
    340a:	90                   	nop
    340b:	90                   	nop
    340c:	90                   	nop
    340d:	90                   	nop
    340e:	90                   	nop
    340f:	90                   	nop
    3410:	90                   	nop
    3411:	90                   	nop
    3412:	90                   	nop
    3413:	90                   	nop
    3414:	90                   	nop
    3415:	90                   	nop
    3416:	90                   	nop
    3417:	90                   	nop
    3418:	90                   	nop
    3419:	90                   	nop
    341a:	90                   	nop
    341b:	90                   	nop
    341c:	90                   	nop
    341d:	90                   	nop
    341e:	90                   	nop
    341f:	90                   	nop
    3420:	90                   	nop
    3421:	90                   	nop
    3422:	90                   	nop
    3423:	90                   	nop
    3424:	90                   	nop
    3425:	90                   	nop
    3426:	90                   	nop
    3427:	90                   	nop
    3428:	90                   	nop
    3429:	90                   	nop
    342a:	90                   	nop
    342b:	90                   	nop
    342c:	90                   	nop
    342d:	90                   	nop
    342e:	90                   	nop
    342f:	90                   	nop
    3430:	90                   	nop
    3431:	90                   	nop
    3432:	90                   	nop
    3433:	90                   	nop
    3434:	90                   	nop
    3435:	90                   	nop
    3436:	90                   	nop
    3437:	90                   	nop
    3438:	90                   	nop
    3439:	90                   	nop
    343a:	90                   	nop
    343b:	90                   	nop
    343c:	90                   	nop
    343d:	90                   	nop
    343e:	90                   	nop
    343f:	90                   	nop
    3440:	90                   	nop
    3441:	90                   	nop
    3442:	90                   	nop
    3443:	90                   	nop
    3444:	90                   	nop
    3445:	90                   	nop
    3446:	90                   	nop
    3447:	90                   	nop
    3448:	90                   	nop
    3449:	90                   	nop
    344a:	90                   	nop
    344b:	90                   	nop
    344c:	90                   	nop
    344d:	90                   	nop
    344e:	90                   	nop
    344f:	90                   	nop
    3450:	90                   	nop
    3451:	90                   	nop
    3452:	90                   	nop
    3453:	90                   	nop
    3454:	90                   	nop
    3455:	90                   	nop
    3456:	90                   	nop
    3457:	90                   	nop
    3458:	90                   	nop
    3459:	90                   	nop
    345a:	90                   	nop
    345b:	90                   	nop
    345c:	90                   	nop
    345d:	90                   	nop
    345e:	90                   	nop
    345f:	90                   	nop
    3460:	90                   	nop
    3461:	90                   	nop
    3462:	90                   	nop
    3463:	90                   	nop
    3464:	90                   	nop
    3465:	90                   	nop
    3466:	90                   	nop
    3467:	90                   	nop
    3468:	90                   	nop
    3469:	90                   	nop
    346a:	90                   	nop
    346b:	90                   	nop
    346c:	90                   	nop
    346d:	90                   	nop
    346e:	90                   	nop
    346f:	90                   	nop
    3470:	90                   	nop
    3471:	90                   	nop
    3472:	90                   	nop
    3473:	90                   	nop
    3474:	90                   	nop
    3475:	90                   	nop
    3476:	90                   	nop
    3477:	90                   	nop
    3478:	90                   	nop
    3479:	90                   	nop
    347a:	90                   	nop
    347b:	90                   	nop
    347c:	90                   	nop
    347d:	90                   	nop
    347e:	90                   	nop
    347f:	90                   	nop
    3480:	90                   	nop
    3481:	90                   	nop
    3482:	90                   	nop
    3483:	90                   	nop
    3484:	90                   	nop
    3485:	90                   	nop
    3486:	90                   	nop
    3487:	90                   	nop
    3488:	90                   	nop
    3489:	90                   	nop
    348a:	90                   	nop
    348b:	90                   	nop
    348c:	90                   	nop
    348d:	90                   	nop
    348e:	90                   	nop
    348f:	90                   	nop
    3490:	90                   	nop
    3491:	90                   	nop
    3492:	90                   	nop
    3493:	90                   	nop
    3494:	90                   	nop
    3495:	90                   	nop
    3496:	90                   	nop
    3497:	90                   	nop
    3498:	90                   	nop
    3499:	90                   	nop
    349a:	90                   	nop
    349b:	90                   	nop
    349c:	90                   	nop
    349d:	90                   	nop
    349e:	90                   	nop
    349f:	90                   	nop
    34a0:	90                   	nop
    34a1:	90                   	nop
    34a2:	90                   	nop
    34a3:	90                   	nop
    34a4:	90                   	nop
    34a5:	90                   	nop
    34a6:	90                   	nop
    34a7:	90                   	nop
    34a8:	90                   	nop
    34a9:	90                   	nop
    34aa:	90                   	nop
    34ab:	90                   	nop
    34ac:	90                   	nop
    34ad:	90                   	nop
    34ae:	90                   	nop
    34af:	90                   	nop
    34b0:	90                   	nop
    34b1:	90                   	nop
    34b2:	90                   	nop
    34b3:	90                   	nop
    34b4:	90                   	nop
    34b5:	90                   	nop
    34b6:	90                   	nop
    34b7:	90                   	nop
    34b8:	90                   	nop
    34b9:	90                   	nop
    34ba:	90                   	nop
    34bb:	90                   	nop
    34bc:	90                   	nop
    34bd:	90                   	nop
    34be:	90                   	nop
    34bf:	90                   	nop
    34c0:	90                   	nop
    34c1:	90                   	nop
    34c2:	90                   	nop
    34c3:	90                   	nop
    34c4:	90                   	nop
    34c5:	90                   	nop
    34c6:	90                   	nop
    34c7:	90                   	nop
    34c8:	90                   	nop
    34c9:	90                   	nop
    34ca:	90                   	nop
    34cb:	90                   	nop
    34cc:	90                   	nop
    34cd:	90                   	nop
    34ce:	90                   	nop
    34cf:	90                   	nop
    34d0:	90                   	nop
    34d1:	90                   	nop
    34d2:	90                   	nop
    34d3:	90                   	nop
    34d4:	90                   	nop
    34d5:	90                   	nop
    34d6:	90                   	nop
    34d7:	90                   	nop
    34d8:	90                   	nop
    34d9:	90                   	nop
    34da:	90                   	nop
    34db:	90                   	nop
    34dc:	90                   	nop
    34dd:	90                   	nop
    34de:	90                   	nop
    34df:	90                   	nop
    34e0:	90                   	nop
    34e1:	90                   	nop
    34e2:	90                   	nop
    34e3:	90                   	nop
    34e4:	90                   	nop
    34e5:	90                   	nop
    34e6:	90                   	nop
    34e7:	90                   	nop
    34e8:	90                   	nop
    34e9:	90                   	nop
    34ea:	90                   	nop
    34eb:	90                   	nop
    34ec:	90                   	nop
    34ed:	90                   	nop
    34ee:	90                   	nop
    34ef:	90                   	nop
    34f0:	90                   	nop
    34f1:	90                   	nop
    34f2:	90                   	nop
    34f3:	90                   	nop
    34f4:	90                   	nop
    34f5:	90                   	nop
    34f6:	90                   	nop
    34f7:	90                   	nop
    34f8:	90                   	nop
    34f9:	90                   	nop
    34fa:	90                   	nop
    34fb:	90                   	nop
    34fc:	90                   	nop
    34fd:	90                   	nop
    34fe:	90                   	nop
    34ff:	90                   	nop
    3500:	90                   	nop
    3501:	90                   	nop
    3502:	90                   	nop
    3503:	90                   	nop
    3504:	90                   	nop
    3505:	90                   	nop
    3506:	90                   	nop
    3507:	90                   	nop
    3508:	90                   	nop
    3509:	90                   	nop
    350a:	90                   	nop
    350b:	90                   	nop
    350c:	90                   	nop
    350d:	90                   	nop
    350e:	90                   	nop
    350f:	90                   	nop
    3510:	90                   	nop
    3511:	90                   	nop
    3512:	90                   	nop
    3513:	90                   	nop
    3514:	90                   	nop
    3515:	90                   	nop
    3516:	90                   	nop
    3517:	90                   	nop
    3518:	90                   	nop
    3519:	90                   	nop
    351a:	90                   	nop
    351b:	90                   	nop
    351c:	90                   	nop
    351d:	90                   	nop
    351e:	90                   	nop
    351f:	90                   	nop
    3520:	90                   	nop
    3521:	90                   	nop
    3522:	90                   	nop
    3523:	90                   	nop
    3524:	90                   	nop
    3525:	90                   	nop
    3526:	90                   	nop
    3527:	90                   	nop
    3528:	90                   	nop
    3529:	90                   	nop
    352a:	90                   	nop
    352b:	90                   	nop
    352c:	90                   	nop
    352d:	90                   	nop
    352e:	90                   	nop
    352f:	90                   	nop
    3530:	90                   	nop
    3531:	90                   	nop
    3532:	90                   	nop
    3533:	90                   	nop
    3534:	90                   	nop
    3535:	90                   	nop
    3536:	90                   	nop
    3537:	90                   	nop
    3538:	90                   	nop
    3539:	90                   	nop
    353a:	90                   	nop
    353b:	90                   	nop
    353c:	90                   	nop
    353d:	90                   	nop
    353e:	90                   	nop
    353f:	90                   	nop
    3540:	90                   	nop
    3541:	90                   	nop
    3542:	90                   	nop
    3543:	90                   	nop
    3544:	90                   	nop
    3545:	90                   	nop
    3546:	90                   	nop
    3547:	90                   	nop
    3548:	90                   	nop
    3549:	90                   	nop
    354a:	90                   	nop
    354b:	90                   	nop
    354c:	90                   	nop
    354d:	90                   	nop
    354e:	90                   	nop
    354f:	90                   	nop
    3550:	90                   	nop
    3551:	90                   	nop
    3552:	90                   	nop
    3553:	90                   	nop
    3554:	90                   	nop
    3555:	90                   	nop
    3556:	90                   	nop
    3557:	90                   	nop
    3558:	90                   	nop
    3559:	90                   	nop
    355a:	90                   	nop
    355b:	90                   	nop
    355c:	90                   	nop
    355d:	90                   	nop
    355e:	90                   	nop
    355f:	90                   	nop
    3560:	90                   	nop
    3561:	90                   	nop
    3562:	90                   	nop
    3563:	90                   	nop
    3564:	90                   	nop
    3565:	90                   	nop
    3566:	90                   	nop
    3567:	90                   	nop
    3568:	90                   	nop
    3569:	90                   	nop
    356a:	90                   	nop
    356b:	90                   	nop
    356c:	90                   	nop
    356d:	90                   	nop
    356e:	90                   	nop
    356f:	90                   	nop
    3570:	90                   	nop
    3571:	90                   	nop
    3572:	90                   	nop
    3573:	90                   	nop
    3574:	90                   	nop
    3575:	90                   	nop
    3576:	90                   	nop
    3577:	90                   	nop
    3578:	90                   	nop
    3579:	90                   	nop
    357a:	90                   	nop
    357b:	90                   	nop
    357c:	90                   	nop
    357d:	90                   	nop
    357e:	90                   	nop
    357f:	90                   	nop
    3580:	90                   	nop
    3581:	90                   	nop
    3582:	90                   	nop
    3583:	90                   	nop
    3584:	90                   	nop
    3585:	90                   	nop
    3586:	90                   	nop
    3587:	90                   	nop
    3588:	90                   	nop
    3589:	90                   	nop
    358a:	90                   	nop
    358b:	90                   	nop
    358c:	90                   	nop
    358d:	90                   	nop
    358e:	90                   	nop
    358f:	90                   	nop
    3590:	90                   	nop
    3591:	90                   	nop
    3592:	90                   	nop
    3593:	90                   	nop
    3594:	90                   	nop
    3595:	90                   	nop
    3596:	90                   	nop
    3597:	90                   	nop
    3598:	90                   	nop
    3599:	90                   	nop
    359a:	90                   	nop
    359b:	90                   	nop
    359c:	90                   	nop
    359d:	90                   	nop
    359e:	90                   	nop
    359f:	90                   	nop
    35a0:	90                   	nop
    35a1:	90                   	nop
    35a2:	90                   	nop
    35a3:	90                   	nop
    35a4:	90                   	nop
    35a5:	90                   	nop
    35a6:	90                   	nop
    35a7:	90                   	nop
    35a8:	90                   	nop
    35a9:	90                   	nop
    35aa:	90                   	nop
    35ab:	90                   	nop
    35ac:	90                   	nop
    35ad:	90                   	nop
    35ae:	90                   	nop
    35af:	90                   	nop
    35b0:	90                   	nop
    35b1:	90                   	nop
    35b2:	90                   	nop
    35b3:	90                   	nop
    35b4:	90                   	nop
    35b5:	90                   	nop
    35b6:	90                   	nop
    35b7:	90                   	nop
    35b8:	90                   	nop
    35b9:	90                   	nop
    35ba:	90                   	nop
    35bb:	90                   	nop
    35bc:	90                   	nop
    35bd:	90                   	nop
    35be:	90                   	nop
    35bf:	90                   	nop
    35c0:	90                   	nop
    35c1:	90                   	nop
    35c2:	90                   	nop
    35c3:	90                   	nop
    35c4:	90                   	nop
    35c5:	90                   	nop
    35c6:	90                   	nop
    35c7:	90                   	nop
    35c8:	90                   	nop
    35c9:	90                   	nop
    35ca:	90                   	nop
    35cb:	90                   	nop
    35cc:	90                   	nop
    35cd:	90                   	nop
    35ce:	90                   	nop
    35cf:	90                   	nop
    35d0:	90                   	nop
    35d1:	90                   	nop
    35d2:	90                   	nop
    35d3:	90                   	nop
    35d4:	90                   	nop
    35d5:	90                   	nop
    35d6:	90                   	nop
    35d7:	90                   	nop
    35d8:	90                   	nop
    35d9:	90                   	nop
    35da:	90                   	nop
    35db:	90                   	nop
    35dc:	90                   	nop
    35dd:	90                   	nop
    35de:	90                   	nop
    35df:	90                   	nop
    35e0:	90                   	nop
    35e1:	90                   	nop
    35e2:	90                   	nop
    35e3:	90                   	nop
    35e4:	90                   	nop
    35e5:	90                   	nop
    35e6:	90                   	nop
    35e7:	90                   	nop
    35e8:	90                   	nop
    35e9:	90                   	nop
    35ea:	90                   	nop
    35eb:	90                   	nop
    35ec:	90                   	nop
    35ed:	90                   	nop
    35ee:	5b                   	pop    rbx
    35ef:	c3                   	ret

00000000000035f0 <__DualGate__2_1_6>:
    35f0:	53                   	push   rbx
    35f1:	4c 89 cb             	mov    rbx,r9
    35f4:	4d 89 c3             	mov    r11,r8
    35f7:	49 89 c9             	mov    r9,rcx
    35fa:	49 89 d0             	mov    r8,rdx
    35fd:	e8 7e db ff ff       	call   1180 <mod_ret_addr>
    3602:	48 0f b6 3f          	movzx  rdi,BYTE PTR [rdi]
    3606:	48 0f b6 36          	movzx  rsi,BYTE PTR [rsi]
    360a:	4d 0f b6 00          	movzx  r8,BYTE PTR [r8]
    360e:	4d 0f b6 09          	movzx  r9,BYTE PTR [r9]
    3612:	4c 8d 14 3b          	lea    r10,[rbx+rdi*1]
    3616:	47 8a 94 0a 00 01 00 	mov    r10b,BYTE PTR [r10+r9*1+0x100]
    361d:	00 
    361e:	4c 8d 14 33          	lea    r10,[rbx+rsi*1]
    3622:	47 8a 94 02 00 01 00 	mov    r10b,BYTE PTR [r10+r8*1+0x100]
    3629:	00 
    362a:	4d 8d 14 3b          	lea    r10,[r11+rdi*1]
    362e:	47 8a 94 02 00 01 00 	mov    r10b,BYTE PTR [r10+r8*1+0x100]
    3635:	00 
    3636:	4d 8d 14 33          	lea    r10,[r11+rsi*1]
    363a:	47 8a 94 0a 00 01 00 	mov    r10b,BYTE PTR [r10+r9*1+0x100]
    3641:	00 
    3642:	90                   	nop
    3643:	90                   	nop
    3644:	90                   	nop
    3645:	90                   	nop
    3646:	90                   	nop
    3647:	90                   	nop
    3648:	90                   	nop
    3649:	90                   	nop
    364a:	90                   	nop
    364b:	90                   	nop
    364c:	90                   	nop
    364d:	90                   	nop
    364e:	90                   	nop
    364f:	90                   	nop
    3650:	90                   	nop
    3651:	90                   	nop
    3652:	90                   	nop
    3653:	90                   	nop
    3654:	90                   	nop
    3655:	90                   	nop
    3656:	90                   	nop
    3657:	90                   	nop
    3658:	90                   	nop
    3659:	90                   	nop
    365a:	90                   	nop
    365b:	90                   	nop
    365c:	90                   	nop
    365d:	90                   	nop
    365e:	90                   	nop
    365f:	90                   	nop
    3660:	90                   	nop
    3661:	90                   	nop
    3662:	90                   	nop
    3663:	90                   	nop
    3664:	90                   	nop
    3665:	90                   	nop
    3666:	90                   	nop
    3667:	90                   	nop
    3668:	90                   	nop
    3669:	90                   	nop
    366a:	90                   	nop
    366b:	90                   	nop
    366c:	90                   	nop
    366d:	90                   	nop
    366e:	90                   	nop
    366f:	90                   	nop
    3670:	90                   	nop
    3671:	90                   	nop
    3672:	90                   	nop
    3673:	90                   	nop
    3674:	90                   	nop
    3675:	90                   	nop
    3676:	90                   	nop
    3677:	90                   	nop
    3678:	90                   	nop
    3679:	90                   	nop
    367a:	90                   	nop
    367b:	90                   	nop
    367c:	90                   	nop
    367d:	90                   	nop
    367e:	90                   	nop
    367f:	90                   	nop
    3680:	90                   	nop
    3681:	90                   	nop
    3682:	90                   	nop
    3683:	90                   	nop
    3684:	90                   	nop
    3685:	90                   	nop
    3686:	90                   	nop
    3687:	90                   	nop
    3688:	90                   	nop
    3689:	90                   	nop
    368a:	90                   	nop
    368b:	90                   	nop
    368c:	90                   	nop
    368d:	90                   	nop
    368e:	90                   	nop
    368f:	90                   	nop
    3690:	90                   	nop
    3691:	90                   	nop
    3692:	90                   	nop
    3693:	90                   	nop
    3694:	90                   	nop
    3695:	90                   	nop
    3696:	90                   	nop
    3697:	90                   	nop
    3698:	90                   	nop
    3699:	90                   	nop
    369a:	90                   	nop
    369b:	90                   	nop
    369c:	90                   	nop
    369d:	90                   	nop
    369e:	90                   	nop
    369f:	90                   	nop
    36a0:	90                   	nop
    36a1:	90                   	nop
    36a2:	90                   	nop
    36a3:	90                   	nop
    36a4:	90                   	nop
    36a5:	90                   	nop
    36a6:	90                   	nop
    36a7:	90                   	nop
    36a8:	90                   	nop
    36a9:	90                   	nop
    36aa:	90                   	nop
    36ab:	90                   	nop
    36ac:	90                   	nop
    36ad:	90                   	nop
    36ae:	90                   	nop
    36af:	90                   	nop
    36b0:	90                   	nop
    36b1:	90                   	nop
    36b2:	90                   	nop
    36b3:	90                   	nop
    36b4:	90                   	nop
    36b5:	90                   	nop
    36b6:	90                   	nop
    36b7:	90                   	nop
    36b8:	90                   	nop
    36b9:	90                   	nop
    36ba:	90                   	nop
    36bb:	90                   	nop
    36bc:	90                   	nop
    36bd:	90                   	nop
    36be:	90                   	nop
    36bf:	90                   	nop
    36c0:	90                   	nop
    36c1:	90                   	nop
    36c2:	90                   	nop
    36c3:	90                   	nop
    36c4:	90                   	nop
    36c5:	90                   	nop
    36c6:	90                   	nop
    36c7:	90                   	nop
    36c8:	90                   	nop
    36c9:	90                   	nop
    36ca:	90                   	nop
    36cb:	90                   	nop
    36cc:	90                   	nop
    36cd:	90                   	nop
    36ce:	90                   	nop
    36cf:	90                   	nop
    36d0:	90                   	nop
    36d1:	90                   	nop
    36d2:	90                   	nop
    36d3:	90                   	nop
    36d4:	90                   	nop
    36d5:	90                   	nop
    36d6:	90                   	nop
    36d7:	90                   	nop
    36d8:	90                   	nop
    36d9:	90                   	nop
    36da:	90                   	nop
    36db:	90                   	nop
    36dc:	90                   	nop
    36dd:	90                   	nop
    36de:	90                   	nop
    36df:	90                   	nop
    36e0:	90                   	nop
    36e1:	90                   	nop
    36e2:	90                   	nop
    36e3:	90                   	nop
    36e4:	90                   	nop
    36e5:	90                   	nop
    36e6:	90                   	nop
    36e7:	90                   	nop
    36e8:	90                   	nop
    36e9:	90                   	nop
    36ea:	90                   	nop
    36eb:	90                   	nop
    36ec:	90                   	nop
    36ed:	90                   	nop
    36ee:	90                   	nop
    36ef:	90                   	nop
    36f0:	90                   	nop
    36f1:	90                   	nop
    36f2:	90                   	nop
    36f3:	90                   	nop
    36f4:	90                   	nop
    36f5:	90                   	nop
    36f6:	90                   	nop
    36f7:	90                   	nop
    36f8:	90                   	nop
    36f9:	90                   	nop
    36fa:	90                   	nop
    36fb:	90                   	nop
    36fc:	90                   	nop
    36fd:	90                   	nop
    36fe:	90                   	nop
    36ff:	90                   	nop
    3700:	90                   	nop
    3701:	90                   	nop
    3702:	90                   	nop
    3703:	90                   	nop
    3704:	90                   	nop
    3705:	90                   	nop
    3706:	90                   	nop
    3707:	90                   	nop
    3708:	90                   	nop
    3709:	90                   	nop
    370a:	90                   	nop
    370b:	90                   	nop
    370c:	90                   	nop
    370d:	90                   	nop
    370e:	90                   	nop
    370f:	90                   	nop
    3710:	90                   	nop
    3711:	90                   	nop
    3712:	90                   	nop
    3713:	90                   	nop
    3714:	90                   	nop
    3715:	90                   	nop
    3716:	90                   	nop
    3717:	90                   	nop
    3718:	90                   	nop
    3719:	90                   	nop
    371a:	90                   	nop
    371b:	90                   	nop
    371c:	90                   	nop
    371d:	90                   	nop
    371e:	90                   	nop
    371f:	90                   	nop
    3720:	90                   	nop
    3721:	90                   	nop
    3722:	90                   	nop
    3723:	90                   	nop
    3724:	90                   	nop
    3725:	90                   	nop
    3726:	90                   	nop
    3727:	90                   	nop
    3728:	90                   	nop
    3729:	90                   	nop
    372a:	90                   	nop
    372b:	90                   	nop
    372c:	90                   	nop
    372d:	90                   	nop
    372e:	90                   	nop
    372f:	90                   	nop
    3730:	90                   	nop
    3731:	90                   	nop
    3732:	90                   	nop
    3733:	90                   	nop
    3734:	90                   	nop
    3735:	90                   	nop
    3736:	90                   	nop
    3737:	90                   	nop
    3738:	90                   	nop
    3739:	90                   	nop
    373a:	90                   	nop
    373b:	90                   	nop
    373c:	90                   	nop
    373d:	90                   	nop
    373e:	90                   	nop
    373f:	90                   	nop
    3740:	90                   	nop
    3741:	90                   	nop
    3742:	90                   	nop
    3743:	90                   	nop
    3744:	90                   	nop
    3745:	90                   	nop
    3746:	90                   	nop
    3747:	90                   	nop
    3748:	90                   	nop
    3749:	90                   	nop
    374a:	90                   	nop
    374b:	90                   	nop
    374c:	90                   	nop
    374d:	90                   	nop
    374e:	90                   	nop
    374f:	90                   	nop
    3750:	90                   	nop
    3751:	90                   	nop
    3752:	90                   	nop
    3753:	90                   	nop
    3754:	90                   	nop
    3755:	90                   	nop
    3756:	90                   	nop
    3757:	90                   	nop
    3758:	90                   	nop
    3759:	90                   	nop
    375a:	90                   	nop
    375b:	90                   	nop
    375c:	90                   	nop
    375d:	90                   	nop
    375e:	90                   	nop
    375f:	90                   	nop
    3760:	90                   	nop
    3761:	90                   	nop
    3762:	90                   	nop
    3763:	90                   	nop
    3764:	90                   	nop
    3765:	90                   	nop
    3766:	90                   	nop
    3767:	90                   	nop
    3768:	90                   	nop
    3769:	90                   	nop
    376a:	90                   	nop
    376b:	90                   	nop
    376c:	90                   	nop
    376d:	90                   	nop
    376e:	90                   	nop
    376f:	90                   	nop
    3770:	90                   	nop
    3771:	90                   	nop
    3772:	90                   	nop
    3773:	90                   	nop
    3774:	90                   	nop
    3775:	90                   	nop
    3776:	90                   	nop
    3777:	90                   	nop
    3778:	90                   	nop
    3779:	90                   	nop
    377a:	90                   	nop
    377b:	90                   	nop
    377c:	90                   	nop
    377d:	90                   	nop
    377e:	90                   	nop
    377f:	90                   	nop
    3780:	90                   	nop
    3781:	90                   	nop
    3782:	90                   	nop
    3783:	90                   	nop
    3784:	90                   	nop
    3785:	90                   	nop
    3786:	90                   	nop
    3787:	90                   	nop
    3788:	90                   	nop
    3789:	90                   	nop
    378a:	90                   	nop
    378b:	90                   	nop
    378c:	90                   	nop
    378d:	90                   	nop
    378e:	90                   	nop
    378f:	90                   	nop
    3790:	90                   	nop
    3791:	90                   	nop
    3792:	90                   	nop
    3793:	90                   	nop
    3794:	90                   	nop
    3795:	90                   	nop
    3796:	90                   	nop
    3797:	90                   	nop
    3798:	90                   	nop
    3799:	90                   	nop
    379a:	90                   	nop
    379b:	90                   	nop
    379c:	90                   	nop
    379d:	90                   	nop
    379e:	90                   	nop
    379f:	90                   	nop
    37a0:	90                   	nop
    37a1:	90                   	nop
    37a2:	90                   	nop
    37a3:	90                   	nop
    37a4:	90                   	nop
    37a5:	90                   	nop
    37a6:	90                   	nop
    37a7:	90                   	nop
    37a8:	90                   	nop
    37a9:	90                   	nop
    37aa:	90                   	nop
    37ab:	90                   	nop
    37ac:	90                   	nop
    37ad:	90                   	nop
    37ae:	90                   	nop
    37af:	90                   	nop
    37b0:	90                   	nop
    37b1:	90                   	nop
    37b2:	90                   	nop
    37b3:	90                   	nop
    37b4:	90                   	nop
    37b5:	90                   	nop
    37b6:	90                   	nop
    37b7:	90                   	nop
    37b8:	90                   	nop
    37b9:	90                   	nop
    37ba:	90                   	nop
    37bb:	90                   	nop
    37bc:	90                   	nop
    37bd:	90                   	nop
    37be:	90                   	nop
    37bf:	90                   	nop
    37c0:	90                   	nop
    37c1:	90                   	nop
    37c2:	90                   	nop
    37c3:	90                   	nop
    37c4:	90                   	nop
    37c5:	90                   	nop
    37c6:	90                   	nop
    37c7:	90                   	nop
    37c8:	90                   	nop
    37c9:	90                   	nop
    37ca:	90                   	nop
    37cb:	90                   	nop
    37cc:	90                   	nop
    37cd:	90                   	nop
    37ce:	90                   	nop
    37cf:	90                   	nop
    37d0:	90                   	nop
    37d1:	90                   	nop
    37d2:	90                   	nop
    37d3:	90                   	nop
    37d4:	90                   	nop
    37d5:	90                   	nop
    37d6:	90                   	nop
    37d7:	90                   	nop
    37d8:	90                   	nop
    37d9:	90                   	nop
    37da:	90                   	nop
    37db:	90                   	nop
    37dc:	90                   	nop
    37dd:	90                   	nop
    37de:	90                   	nop
    37df:	90                   	nop
    37e0:	90                   	nop
    37e1:	90                   	nop
    37e2:	90                   	nop
    37e3:	90                   	nop
    37e4:	90                   	nop
    37e5:	90                   	nop
    37e6:	90                   	nop
    37e7:	90                   	nop
    37e8:	90                   	nop
    37e9:	90                   	nop
    37ea:	90                   	nop
    37eb:	90                   	nop
    37ec:	90                   	nop
    37ed:	90                   	nop
    37ee:	90                   	nop
    37ef:	90                   	nop
    37f0:	90                   	nop
    37f1:	90                   	nop
    37f2:	90                   	nop
    37f3:	90                   	nop
    37f4:	90                   	nop
    37f5:	90                   	nop
    37f6:	90                   	nop
    37f7:	90                   	nop
    37f8:	90                   	nop
    37f9:	90                   	nop
    37fa:	90                   	nop
    37fb:	90                   	nop
    37fc:	90                   	nop
    37fd:	90                   	nop
    37fe:	90                   	nop
    37ff:	90                   	nop
    3800:	90                   	nop
    3801:	90                   	nop
    3802:	90                   	nop
    3803:	90                   	nop
    3804:	90                   	nop
    3805:	90                   	nop
    3806:	90                   	nop
    3807:	90                   	nop
    3808:	90                   	nop
    3809:	90                   	nop
    380a:	90                   	nop
    380b:	90                   	nop
    380c:	90                   	nop
    380d:	90                   	nop
    380e:	90                   	nop
    380f:	90                   	nop
    3810:	90                   	nop
    3811:	90                   	nop
    3812:	90                   	nop
    3813:	90                   	nop
    3814:	90                   	nop
    3815:	90                   	nop
    3816:	90                   	nop
    3817:	90                   	nop
    3818:	90                   	nop
    3819:	90                   	nop
    381a:	90                   	nop
    381b:	90                   	nop
    381c:	90                   	nop
    381d:	90                   	nop
    381e:	90                   	nop
    381f:	90                   	nop
    3820:	90                   	nop
    3821:	90                   	nop
    3822:	90                   	nop
    3823:	90                   	nop
    3824:	90                   	nop
    3825:	90                   	nop
    3826:	90                   	nop
    3827:	90                   	nop
    3828:	90                   	nop
    3829:	90                   	nop
    382a:	90                   	nop
    382b:	90                   	nop
    382c:	90                   	nop
    382d:	90                   	nop
    382e:	90                   	nop
    382f:	90                   	nop
    3830:	90                   	nop
    3831:	90                   	nop
    3832:	90                   	nop
    3833:	90                   	nop
    3834:	90                   	nop
    3835:	90                   	nop
    3836:	90                   	nop
    3837:	90                   	nop
    3838:	90                   	nop
    3839:	90                   	nop
    383a:	90                   	nop
    383b:	90                   	nop
    383c:	90                   	nop
    383d:	90                   	nop
    383e:	90                   	nop
    383f:	90                   	nop
    3840:	90                   	nop
    3841:	90                   	nop
    3842:	5b                   	pop    rbx
    3843:	c3                   	ret
    3844:	66 66 66 2e 0f 1f 84 	data16 data16 cs nop WORD PTR [rax+rax*1+0x0]
    384b:	00 00 00 00 00 

0000000000003850 <__DualGate__3_1_172>:
    3850:	41 57                	push   r15
    3852:	41 56                	push   r14
    3854:	53                   	push   rbx
    3855:	4c 89 cb             	mov    rbx,r9
    3858:	4d 89 c3             	mov    r11,r8
    385b:	49 89 c9             	mov    r9,rcx
    385e:	49 89 d0             	mov    r8,rdx
    3861:	4c 8b 7c 24 28       	mov    r15,QWORD PTR [rsp+0x28]
    3866:	4c 8b 74 24 20       	mov    r14,QWORD PTR [rsp+0x20]
    386b:	e8 10 d9 ff ff       	call   1180 <mod_ret_addr>
    3870:	48 0f b6 3f          	movzx  rdi,BYTE PTR [rdi]
    3874:	48 0f b6 36          	movzx  rsi,BYTE PTR [rsi]
    3878:	4d 0f b6 00          	movzx  r8,BYTE PTR [r8]
    387c:	4d 0f b6 09          	movzx  r9,BYTE PTR [r9]
    3880:	4d 0f b6 1b          	movzx  r11,BYTE PTR [r11]
    3884:	48 0f b6 1b          	movzx  rbx,BYTE PTR [rbx]
    3888:	4d 8d 14 3f          	lea    r10,[r15+rdi*1]
    388c:	47 8a 94 0a 00 01 00 	mov    r10b,BYTE PTR [r10+r9*1+0x100]
    3893:	00 
    3894:	4d 8d 14 37          	lea    r10,[r15+rsi*1]
    3898:	45 8a 94 1a 00 01 00 	mov    r10b,BYTE PTR [r10+rbx*1+0x100]
    389f:	00 
    38a0:	4d 8d 14 3e          	lea    r10,[r14+rdi*1]
    38a4:	47 8a 94 02 00 01 00 	mov    r10b,BYTE PTR [r10+r8*1+0x100]
    38ab:	00 
    38ac:	4d 8d 14 36          	lea    r10,[r14+rsi*1]
    38b0:	47 8a 94 1a 00 01 00 	mov    r10b,BYTE PTR [r10+r11*1+0x100]
    38b7:	00 
    38b8:	90                   	nop
    38b9:	90                   	nop
    38ba:	90                   	nop
    38bb:	90                   	nop
    38bc:	90                   	nop
    38bd:	90                   	nop
    38be:	90                   	nop
    38bf:	90                   	nop
    38c0:	90                   	nop
    38c1:	90                   	nop
    38c2:	90                   	nop
    38c3:	90                   	nop
    38c4:	90                   	nop
    38c5:	90                   	nop
    38c6:	90                   	nop
    38c7:	90                   	nop
    38c8:	90                   	nop
    38c9:	90                   	nop
    38ca:	90                   	nop
    38cb:	90                   	nop
    38cc:	90                   	nop
    38cd:	90                   	nop
    38ce:	90                   	nop
    38cf:	90                   	nop
    38d0:	90                   	nop
    38d1:	90                   	nop
    38d2:	90                   	nop
    38d3:	90                   	nop
    38d4:	90                   	nop
    38d5:	90                   	nop
    38d6:	90                   	nop
    38d7:	90                   	nop
    38d8:	90                   	nop
    38d9:	90                   	nop
    38da:	90                   	nop
    38db:	90                   	nop
    38dc:	90                   	nop
    38dd:	90                   	nop
    38de:	90                   	nop
    38df:	90                   	nop
    38e0:	90                   	nop
    38e1:	90                   	nop
    38e2:	90                   	nop
    38e3:	90                   	nop
    38e4:	90                   	nop
    38e5:	90                   	nop
    38e6:	90                   	nop
    38e7:	90                   	nop
    38e8:	90                   	nop
    38e9:	90                   	nop
    38ea:	90                   	nop
    38eb:	90                   	nop
    38ec:	90                   	nop
    38ed:	90                   	nop
    38ee:	90                   	nop
    38ef:	90                   	nop
    38f0:	90                   	nop
    38f1:	90                   	nop
    38f2:	90                   	nop
    38f3:	90                   	nop
    38f4:	90                   	nop
    38f5:	90                   	nop
    38f6:	90                   	nop
    38f7:	90                   	nop
    38f8:	90                   	nop
    38f9:	90                   	nop
    38fa:	90                   	nop
    38fb:	90                   	nop
    38fc:	90                   	nop
    38fd:	90                   	nop
    38fe:	90                   	nop
    38ff:	90                   	nop
    3900:	90                   	nop
    3901:	90                   	nop
    3902:	90                   	nop
    3903:	90                   	nop
    3904:	90                   	nop
    3905:	90                   	nop
    3906:	90                   	nop
    3907:	90                   	nop
    3908:	90                   	nop
    3909:	90                   	nop
    390a:	90                   	nop
    390b:	90                   	nop
    390c:	90                   	nop
    390d:	90                   	nop
    390e:	90                   	nop
    390f:	90                   	nop
    3910:	90                   	nop
    3911:	90                   	nop
    3912:	90                   	nop
    3913:	90                   	nop
    3914:	90                   	nop
    3915:	90                   	nop
    3916:	90                   	nop
    3917:	90                   	nop
    3918:	90                   	nop
    3919:	90                   	nop
    391a:	90                   	nop
    391b:	90                   	nop
    391c:	90                   	nop
    391d:	90                   	nop
    391e:	90                   	nop
    391f:	90                   	nop
    3920:	90                   	nop
    3921:	90                   	nop
    3922:	90                   	nop
    3923:	90                   	nop
    3924:	90                   	nop
    3925:	90                   	nop
    3926:	90                   	nop
    3927:	90                   	nop
    3928:	90                   	nop
    3929:	90                   	nop
    392a:	90                   	nop
    392b:	90                   	nop
    392c:	90                   	nop
    392d:	90                   	nop
    392e:	90                   	nop
    392f:	90                   	nop
    3930:	90                   	nop
    3931:	90                   	nop
    3932:	90                   	nop
    3933:	90                   	nop
    3934:	90                   	nop
    3935:	90                   	nop
    3936:	90                   	nop
    3937:	90                   	nop
    3938:	90                   	nop
    3939:	90                   	nop
    393a:	90                   	nop
    393b:	90                   	nop
    393c:	90                   	nop
    393d:	90                   	nop
    393e:	90                   	nop
    393f:	90                   	nop
    3940:	90                   	nop
    3941:	90                   	nop
    3942:	90                   	nop
    3943:	90                   	nop
    3944:	90                   	nop
    3945:	90                   	nop
    3946:	90                   	nop
    3947:	90                   	nop
    3948:	90                   	nop
    3949:	90                   	nop
    394a:	90                   	nop
    394b:	90                   	nop
    394c:	90                   	nop
    394d:	90                   	nop
    394e:	90                   	nop
    394f:	90                   	nop
    3950:	90                   	nop
    3951:	90                   	nop
    3952:	90                   	nop
    3953:	90                   	nop
    3954:	90                   	nop
    3955:	90                   	nop
    3956:	90                   	nop
    3957:	90                   	nop
    3958:	90                   	nop
    3959:	90                   	nop
    395a:	90                   	nop
    395b:	90                   	nop
    395c:	90                   	nop
    395d:	90                   	nop
    395e:	90                   	nop
    395f:	90                   	nop
    3960:	90                   	nop
    3961:	90                   	nop
    3962:	90                   	nop
    3963:	90                   	nop
    3964:	90                   	nop
    3965:	90                   	nop
    3966:	90                   	nop
    3967:	90                   	nop
    3968:	90                   	nop
    3969:	90                   	nop
    396a:	90                   	nop
    396b:	90                   	nop
    396c:	90                   	nop
    396d:	90                   	nop
    396e:	90                   	nop
    396f:	90                   	nop
    3970:	90                   	nop
    3971:	90                   	nop
    3972:	90                   	nop
    3973:	90                   	nop
    3974:	90                   	nop
    3975:	90                   	nop
    3976:	90                   	nop
    3977:	90                   	nop
    3978:	90                   	nop
    3979:	90                   	nop
    397a:	90                   	nop
    397b:	90                   	nop
    397c:	90                   	nop
    397d:	90                   	nop
    397e:	90                   	nop
    397f:	90                   	nop
    3980:	90                   	nop
    3981:	90                   	nop
    3982:	90                   	nop
    3983:	90                   	nop
    3984:	90                   	nop
    3985:	90                   	nop
    3986:	90                   	nop
    3987:	90                   	nop
    3988:	90                   	nop
    3989:	90                   	nop
    398a:	90                   	nop
    398b:	90                   	nop
    398c:	90                   	nop
    398d:	90                   	nop
    398e:	90                   	nop
    398f:	90                   	nop
    3990:	90                   	nop
    3991:	90                   	nop
    3992:	90                   	nop
    3993:	90                   	nop
    3994:	90                   	nop
    3995:	90                   	nop
    3996:	90                   	nop
    3997:	90                   	nop
    3998:	90                   	nop
    3999:	90                   	nop
    399a:	90                   	nop
    399b:	90                   	nop
    399c:	90                   	nop
    399d:	90                   	nop
    399e:	90                   	nop
    399f:	90                   	nop
    39a0:	90                   	nop
    39a1:	90                   	nop
    39a2:	90                   	nop
    39a3:	90                   	nop
    39a4:	90                   	nop
    39a5:	90                   	nop
    39a6:	90                   	nop
    39a7:	90                   	nop
    39a8:	90                   	nop
    39a9:	90                   	nop
    39aa:	90                   	nop
    39ab:	90                   	nop
    39ac:	90                   	nop
    39ad:	90                   	nop
    39ae:	90                   	nop
    39af:	90                   	nop
    39b0:	90                   	nop
    39b1:	90                   	nop
    39b2:	90                   	nop
    39b3:	90                   	nop
    39b4:	90                   	nop
    39b5:	90                   	nop
    39b6:	90                   	nop
    39b7:	90                   	nop
    39b8:	90                   	nop
    39b9:	90                   	nop
    39ba:	90                   	nop
    39bb:	90                   	nop
    39bc:	90                   	nop
    39bd:	90                   	nop
    39be:	90                   	nop
    39bf:	90                   	nop
    39c0:	90                   	nop
    39c1:	90                   	nop
    39c2:	90                   	nop
    39c3:	90                   	nop
    39c4:	90                   	nop
    39c5:	90                   	nop
    39c6:	90                   	nop
    39c7:	90                   	nop
    39c8:	90                   	nop
    39c9:	90                   	nop
    39ca:	90                   	nop
    39cb:	90                   	nop
    39cc:	90                   	nop
    39cd:	90                   	nop
    39ce:	90                   	nop
    39cf:	90                   	nop
    39d0:	90                   	nop
    39d1:	90                   	nop
    39d2:	90                   	nop
    39d3:	90                   	nop
    39d4:	90                   	nop
    39d5:	90                   	nop
    39d6:	90                   	nop
    39d7:	90                   	nop
    39d8:	90                   	nop
    39d9:	90                   	nop
    39da:	90                   	nop
    39db:	90                   	nop
    39dc:	90                   	nop
    39dd:	90                   	nop
    39de:	90                   	nop
    39df:	90                   	nop
    39e0:	90                   	nop
    39e1:	90                   	nop
    39e2:	90                   	nop
    39e3:	90                   	nop
    39e4:	90                   	nop
    39e5:	90                   	nop
    39e6:	90                   	nop
    39e7:	90                   	nop
    39e8:	90                   	nop
    39e9:	90                   	nop
    39ea:	90                   	nop
    39eb:	90                   	nop
    39ec:	90                   	nop
    39ed:	90                   	nop
    39ee:	90                   	nop
    39ef:	90                   	nop
    39f0:	90                   	nop
    39f1:	90                   	nop
    39f2:	90                   	nop
    39f3:	90                   	nop
    39f4:	90                   	nop
    39f5:	90                   	nop
    39f6:	90                   	nop
    39f7:	90                   	nop
    39f8:	90                   	nop
    39f9:	90                   	nop
    39fa:	90                   	nop
    39fb:	90                   	nop
    39fc:	90                   	nop
    39fd:	90                   	nop
    39fe:	90                   	nop
    39ff:	90                   	nop
    3a00:	90                   	nop
    3a01:	90                   	nop
    3a02:	90                   	nop
    3a03:	90                   	nop
    3a04:	90                   	nop
    3a05:	90                   	nop
    3a06:	90                   	nop
    3a07:	90                   	nop
    3a08:	90                   	nop
    3a09:	90                   	nop
    3a0a:	90                   	nop
    3a0b:	90                   	nop
    3a0c:	90                   	nop
    3a0d:	90                   	nop
    3a0e:	90                   	nop
    3a0f:	90                   	nop
    3a10:	90                   	nop
    3a11:	90                   	nop
    3a12:	90                   	nop
    3a13:	90                   	nop
    3a14:	90                   	nop
    3a15:	90                   	nop
    3a16:	90                   	nop
    3a17:	90                   	nop
    3a18:	90                   	nop
    3a19:	90                   	nop
    3a1a:	90                   	nop
    3a1b:	90                   	nop
    3a1c:	90                   	nop
    3a1d:	90                   	nop
    3a1e:	90                   	nop
    3a1f:	90                   	nop
    3a20:	90                   	nop
    3a21:	90                   	nop
    3a22:	90                   	nop
    3a23:	90                   	nop
    3a24:	90                   	nop
    3a25:	90                   	nop
    3a26:	90                   	nop
    3a27:	90                   	nop
    3a28:	90                   	nop
    3a29:	90                   	nop
    3a2a:	90                   	nop
    3a2b:	90                   	nop
    3a2c:	90                   	nop
    3a2d:	90                   	nop
    3a2e:	90                   	nop
    3a2f:	90                   	nop
    3a30:	90                   	nop
    3a31:	90                   	nop
    3a32:	90                   	nop
    3a33:	90                   	nop
    3a34:	90                   	nop
    3a35:	90                   	nop
    3a36:	90                   	nop
    3a37:	90                   	nop
    3a38:	90                   	nop
    3a39:	90                   	nop
    3a3a:	90                   	nop
    3a3b:	90                   	nop
    3a3c:	90                   	nop
    3a3d:	90                   	nop
    3a3e:	90                   	nop
    3a3f:	90                   	nop
    3a40:	90                   	nop
    3a41:	90                   	nop
    3a42:	90                   	nop
    3a43:	90                   	nop
    3a44:	90                   	nop
    3a45:	90                   	nop
    3a46:	90                   	nop
    3a47:	90                   	nop
    3a48:	90                   	nop
    3a49:	90                   	nop
    3a4a:	90                   	nop
    3a4b:	90                   	nop
    3a4c:	90                   	nop
    3a4d:	90                   	nop
    3a4e:	90                   	nop
    3a4f:	90                   	nop
    3a50:	90                   	nop
    3a51:	90                   	nop
    3a52:	90                   	nop
    3a53:	90                   	nop
    3a54:	90                   	nop
    3a55:	90                   	nop
    3a56:	90                   	nop
    3a57:	90                   	nop
    3a58:	90                   	nop
    3a59:	90                   	nop
    3a5a:	90                   	nop
    3a5b:	90                   	nop
    3a5c:	90                   	nop
    3a5d:	90                   	nop
    3a5e:	90                   	nop
    3a5f:	90                   	nop
    3a60:	90                   	nop
    3a61:	90                   	nop
    3a62:	90                   	nop
    3a63:	90                   	nop
    3a64:	90                   	nop
    3a65:	90                   	nop
    3a66:	90                   	nop
    3a67:	90                   	nop
    3a68:	90                   	nop
    3a69:	90                   	nop
    3a6a:	90                   	nop
    3a6b:	90                   	nop
    3a6c:	90                   	nop
    3a6d:	90                   	nop
    3a6e:	90                   	nop
    3a6f:	90                   	nop
    3a70:	90                   	nop
    3a71:	90                   	nop
    3a72:	90                   	nop
    3a73:	90                   	nop
    3a74:	90                   	nop
    3a75:	90                   	nop
    3a76:	90                   	nop
    3a77:	90                   	nop
    3a78:	90                   	nop
    3a79:	90                   	nop
    3a7a:	90                   	nop
    3a7b:	90                   	nop
    3a7c:	90                   	nop
    3a7d:	90                   	nop
    3a7e:	90                   	nop
    3a7f:	90                   	nop
    3a80:	90                   	nop
    3a81:	90                   	nop
    3a82:	90                   	nop
    3a83:	90                   	nop
    3a84:	90                   	nop
    3a85:	90                   	nop
    3a86:	90                   	nop
    3a87:	90                   	nop
    3a88:	90                   	nop
    3a89:	90                   	nop
    3a8a:	90                   	nop
    3a8b:	90                   	nop
    3a8c:	90                   	nop
    3a8d:	90                   	nop
    3a8e:	90                   	nop
    3a8f:	90                   	nop
    3a90:	90                   	nop
    3a91:	90                   	nop
    3a92:	90                   	nop
    3a93:	90                   	nop
    3a94:	90                   	nop
    3a95:	90                   	nop
    3a96:	90                   	nop
    3a97:	90                   	nop
    3a98:	90                   	nop
    3a99:	90                   	nop
    3a9a:	90                   	nop
    3a9b:	90                   	nop
    3a9c:	90                   	nop
    3a9d:	90                   	nop
    3a9e:	90                   	nop
    3a9f:	90                   	nop
    3aa0:	90                   	nop
    3aa1:	90                   	nop
    3aa2:	90                   	nop
    3aa3:	90                   	nop
    3aa4:	90                   	nop
    3aa5:	90                   	nop
    3aa6:	90                   	nop
    3aa7:	90                   	nop
    3aa8:	90                   	nop
    3aa9:	90                   	nop
    3aaa:	90                   	nop
    3aab:	90                   	nop
    3aac:	90                   	nop
    3aad:	90                   	nop
    3aae:	90                   	nop
    3aaf:	90                   	nop
    3ab0:	90                   	nop
    3ab1:	90                   	nop
    3ab2:	90                   	nop
    3ab3:	90                   	nop
    3ab4:	90                   	nop
    3ab5:	90                   	nop
    3ab6:	90                   	nop
    3ab7:	90                   	nop
    3ab8:	5b                   	pop    rbx
    3ab9:	41 5e                	pop    r14
    3abb:	41 5f                	pop    r15
    3abd:	c3                   	ret
    3abe:	66 90                	xchg   ax,ax

0000000000003ac0 <__DualGate__3_1_150>:
    3ac0:	41 57                	push   r15
    3ac2:	41 56                	push   r14
    3ac4:	53                   	push   rbx
    3ac5:	4c 89 cb             	mov    rbx,r9
    3ac8:	4d 89 c3             	mov    r11,r8
    3acb:	49 89 c9             	mov    r9,rcx
    3ace:	49 89 d0             	mov    r8,rdx
    3ad1:	4c 8b 7c 24 28       	mov    r15,QWORD PTR [rsp+0x28]
    3ad6:	4c 8b 74 24 20       	mov    r14,QWORD PTR [rsp+0x20]
    3adb:	e8 a0 d6 ff ff       	call   1180 <mod_ret_addr>
    3ae0:	48 0f b6 3f          	movzx  rdi,BYTE PTR [rdi]
    3ae4:	48 0f b6 36          	movzx  rsi,BYTE PTR [rsi]
    3ae8:	4d 0f b6 00          	movzx  r8,BYTE PTR [r8]
    3aec:	4d 0f b6 09          	movzx  r9,BYTE PTR [r9]
    3af0:	4d 0f b6 1b          	movzx  r11,BYTE PTR [r11]
    3af4:	48 0f b6 1b          	movzx  rbx,BYTE PTR [rbx]
    3af8:	4d 8d 14 3f          	lea    r10,[r15+rdi*1]
    3afc:	49 01 da             	add    r10,rbx
    3aff:	47 8a 94 02 00 01 00 	mov    r10b,BYTE PTR [r10+r8*1+0x100]
    3b06:	00 
    3b07:	4d 8d 14 3f          	lea    r10,[r15+rdi*1]
    3b0b:	4d 01 da             	add    r10,r11
    3b0e:	47 8a 94 0a 00 01 00 	mov    r10b,BYTE PTR [r10+r9*1+0x100]
    3b15:	00 
    3b16:	4d 8d 14 37          	lea    r10,[r15+rsi*1]
    3b1a:	4d 01 da             	add    r10,r11
    3b1d:	47 8a 94 02 00 01 00 	mov    r10b,BYTE PTR [r10+r8*1+0x100]
    3b24:	00 
    3b25:	4d 8d 14 37          	lea    r10,[r15+rsi*1]
    3b29:	49 01 da             	add    r10,rbx
    3b2c:	47 8a 94 0a 00 01 00 	mov    r10b,BYTE PTR [r10+r9*1+0x100]
    3b33:	00 
    3b34:	4d 8d 14 3e          	lea    r10,[r14+rdi*1]
    3b38:	4d 01 da             	add    r10,r11
    3b3b:	47 8a 94 02 00 01 00 	mov    r10b,BYTE PTR [r10+r8*1+0x100]
    3b42:	00 
    3b43:	4d 8d 14 3e          	lea    r10,[r14+rdi*1]
    3b47:	49 01 da             	add    r10,rbx
    3b4a:	47 8a 94 0a 00 01 00 	mov    r10b,BYTE PTR [r10+r9*1+0x100]
    3b51:	00 
    3b52:	4d 8d 14 36          	lea    r10,[r14+rsi*1]
    3b56:	49 01 da             	add    r10,rbx
    3b59:	47 8a 94 02 00 01 00 	mov    r10b,BYTE PTR [r10+r8*1+0x100]
    3b60:	00 
    3b61:	4d 8d 14 36          	lea    r10,[r14+rsi*1]
    3b65:	4d 01 da             	add    r10,r11
    3b68:	47 8a 94 0a 00 01 00 	mov    r10b,BYTE PTR [r10+r9*1+0x100]
    3b6f:	00 
    3b70:	90                   	nop
    3b71:	90                   	nop
    3b72:	90                   	nop
    3b73:	90                   	nop
    3b74:	90                   	nop
    3b75:	90                   	nop
    3b76:	90                   	nop
    3b77:	90                   	nop
    3b78:	90                   	nop
    3b79:	90                   	nop
    3b7a:	90                   	nop
    3b7b:	90                   	nop
    3b7c:	90                   	nop
    3b7d:	90                   	nop
    3b7e:	90                   	nop
    3b7f:	90                   	nop
    3b80:	90                   	nop
    3b81:	90                   	nop
    3b82:	90                   	nop
    3b83:	90                   	nop
    3b84:	90                   	nop
    3b85:	90                   	nop
    3b86:	90                   	nop
    3b87:	90                   	nop
    3b88:	90                   	nop
    3b89:	90                   	nop
    3b8a:	90                   	nop
    3b8b:	90                   	nop
    3b8c:	90                   	nop
    3b8d:	90                   	nop
    3b8e:	90                   	nop
    3b8f:	90                   	nop
    3b90:	90                   	nop
    3b91:	90                   	nop
    3b92:	90                   	nop
    3b93:	90                   	nop
    3b94:	90                   	nop
    3b95:	90                   	nop
    3b96:	90                   	nop
    3b97:	90                   	nop
    3b98:	90                   	nop
    3b99:	90                   	nop
    3b9a:	90                   	nop
    3b9b:	90                   	nop
    3b9c:	90                   	nop
    3b9d:	90                   	nop
    3b9e:	90                   	nop
    3b9f:	90                   	nop
    3ba0:	90                   	nop
    3ba1:	90                   	nop
    3ba2:	90                   	nop
    3ba3:	90                   	nop
    3ba4:	90                   	nop
    3ba5:	90                   	nop
    3ba6:	90                   	nop
    3ba7:	90                   	nop
    3ba8:	90                   	nop
    3ba9:	90                   	nop
    3baa:	90                   	nop
    3bab:	90                   	nop
    3bac:	90                   	nop
    3bad:	90                   	nop
    3bae:	90                   	nop
    3baf:	90                   	nop
    3bb0:	90                   	nop
    3bb1:	90                   	nop
    3bb2:	90                   	nop
    3bb3:	90                   	nop
    3bb4:	90                   	nop
    3bb5:	90                   	nop
    3bb6:	90                   	nop
    3bb7:	90                   	nop
    3bb8:	90                   	nop
    3bb9:	90                   	nop
    3bba:	90                   	nop
    3bbb:	90                   	nop
    3bbc:	90                   	nop
    3bbd:	90                   	nop
    3bbe:	90                   	nop
    3bbf:	90                   	nop
    3bc0:	90                   	nop
    3bc1:	90                   	nop
    3bc2:	90                   	nop
    3bc3:	90                   	nop
    3bc4:	90                   	nop
    3bc5:	90                   	nop
    3bc6:	90                   	nop
    3bc7:	90                   	nop
    3bc8:	90                   	nop
    3bc9:	90                   	nop
    3bca:	90                   	nop
    3bcb:	90                   	nop
    3bcc:	90                   	nop
    3bcd:	90                   	nop
    3bce:	90                   	nop
    3bcf:	90                   	nop
    3bd0:	90                   	nop
    3bd1:	90                   	nop
    3bd2:	90                   	nop
    3bd3:	90                   	nop
    3bd4:	90                   	nop
    3bd5:	90                   	nop
    3bd6:	90                   	nop
    3bd7:	90                   	nop
    3bd8:	90                   	nop
    3bd9:	90                   	nop
    3bda:	90                   	nop
    3bdb:	90                   	nop
    3bdc:	90                   	nop
    3bdd:	90                   	nop
    3bde:	90                   	nop
    3bdf:	90                   	nop
    3be0:	90                   	nop
    3be1:	90                   	nop
    3be2:	90                   	nop
    3be3:	90                   	nop
    3be4:	90                   	nop
    3be5:	90                   	nop
    3be6:	90                   	nop
    3be7:	90                   	nop
    3be8:	90                   	nop
    3be9:	90                   	nop
    3bea:	90                   	nop
    3beb:	90                   	nop
    3bec:	90                   	nop
    3bed:	90                   	nop
    3bee:	90                   	nop
    3bef:	90                   	nop
    3bf0:	90                   	nop
    3bf1:	90                   	nop
    3bf2:	90                   	nop
    3bf3:	90                   	nop
    3bf4:	90                   	nop
    3bf5:	90                   	nop
    3bf6:	90                   	nop
    3bf7:	90                   	nop
    3bf8:	90                   	nop
    3bf9:	90                   	nop
    3bfa:	90                   	nop
    3bfb:	90                   	nop
    3bfc:	90                   	nop
    3bfd:	90                   	nop
    3bfe:	90                   	nop
    3bff:	90                   	nop
    3c00:	90                   	nop
    3c01:	90                   	nop
    3c02:	90                   	nop
    3c03:	90                   	nop
    3c04:	90                   	nop
    3c05:	90                   	nop
    3c06:	90                   	nop
    3c07:	90                   	nop
    3c08:	90                   	nop
    3c09:	90                   	nop
    3c0a:	90                   	nop
    3c0b:	90                   	nop
    3c0c:	90                   	nop
    3c0d:	90                   	nop
    3c0e:	90                   	nop
    3c0f:	90                   	nop
    3c10:	90                   	nop
    3c11:	90                   	nop
    3c12:	90                   	nop
    3c13:	90                   	nop
    3c14:	90                   	nop
    3c15:	90                   	nop
    3c16:	90                   	nop
    3c17:	90                   	nop
    3c18:	90                   	nop
    3c19:	90                   	nop
    3c1a:	90                   	nop
    3c1b:	90                   	nop
    3c1c:	90                   	nop
    3c1d:	90                   	nop
    3c1e:	90                   	nop
    3c1f:	90                   	nop
    3c20:	90                   	nop
    3c21:	90                   	nop
    3c22:	90                   	nop
    3c23:	90                   	nop
    3c24:	90                   	nop
    3c25:	90                   	nop
    3c26:	90                   	nop
    3c27:	90                   	nop
    3c28:	90                   	nop
    3c29:	90                   	nop
    3c2a:	90                   	nop
    3c2b:	90                   	nop
    3c2c:	90                   	nop
    3c2d:	90                   	nop
    3c2e:	90                   	nop
    3c2f:	90                   	nop
    3c30:	90                   	nop
    3c31:	90                   	nop
    3c32:	90                   	nop
    3c33:	90                   	nop
    3c34:	90                   	nop
    3c35:	90                   	nop
    3c36:	90                   	nop
    3c37:	90                   	nop
    3c38:	90                   	nop
    3c39:	90                   	nop
    3c3a:	90                   	nop
    3c3b:	90                   	nop
    3c3c:	90                   	nop
    3c3d:	90                   	nop
    3c3e:	90                   	nop
    3c3f:	90                   	nop
    3c40:	90                   	nop
    3c41:	90                   	nop
    3c42:	90                   	nop
    3c43:	90                   	nop
    3c44:	90                   	nop
    3c45:	90                   	nop
    3c46:	90                   	nop
    3c47:	90                   	nop
    3c48:	90                   	nop
    3c49:	90                   	nop
    3c4a:	90                   	nop
    3c4b:	90                   	nop
    3c4c:	90                   	nop
    3c4d:	90                   	nop
    3c4e:	90                   	nop
    3c4f:	90                   	nop
    3c50:	90                   	nop
    3c51:	90                   	nop
    3c52:	90                   	nop
    3c53:	90                   	nop
    3c54:	90                   	nop
    3c55:	90                   	nop
    3c56:	90                   	nop
    3c57:	90                   	nop
    3c58:	90                   	nop
    3c59:	90                   	nop
    3c5a:	90                   	nop
    3c5b:	90                   	nop
    3c5c:	90                   	nop
    3c5d:	90                   	nop
    3c5e:	90                   	nop
    3c5f:	90                   	nop
    3c60:	90                   	nop
    3c61:	90                   	nop
    3c62:	90                   	nop
    3c63:	90                   	nop
    3c64:	90                   	nop
    3c65:	90                   	nop
    3c66:	90                   	nop
    3c67:	90                   	nop
    3c68:	90                   	nop
    3c69:	90                   	nop
    3c6a:	90                   	nop
    3c6b:	90                   	nop
    3c6c:	90                   	nop
    3c6d:	90                   	nop
    3c6e:	90                   	nop
    3c6f:	90                   	nop
    3c70:	90                   	nop
    3c71:	90                   	nop
    3c72:	90                   	nop
    3c73:	90                   	nop
    3c74:	90                   	nop
    3c75:	90                   	nop
    3c76:	90                   	nop
    3c77:	90                   	nop
    3c78:	90                   	nop
    3c79:	90                   	nop
    3c7a:	90                   	nop
    3c7b:	90                   	nop
    3c7c:	90                   	nop
    3c7d:	90                   	nop
    3c7e:	90                   	nop
    3c7f:	90                   	nop
    3c80:	90                   	nop
    3c81:	90                   	nop
    3c82:	90                   	nop
    3c83:	90                   	nop
    3c84:	90                   	nop
    3c85:	90                   	nop
    3c86:	90                   	nop
    3c87:	90                   	nop
    3c88:	90                   	nop
    3c89:	90                   	nop
    3c8a:	90                   	nop
    3c8b:	90                   	nop
    3c8c:	90                   	nop
    3c8d:	90                   	nop
    3c8e:	90                   	nop
    3c8f:	90                   	nop
    3c90:	90                   	nop
    3c91:	90                   	nop
    3c92:	90                   	nop
    3c93:	90                   	nop
    3c94:	90                   	nop
    3c95:	90                   	nop
    3c96:	90                   	nop
    3c97:	90                   	nop
    3c98:	90                   	nop
    3c99:	90                   	nop
    3c9a:	90                   	nop
    3c9b:	90                   	nop
    3c9c:	90                   	nop
    3c9d:	90                   	nop
    3c9e:	90                   	nop
    3c9f:	90                   	nop
    3ca0:	90                   	nop
    3ca1:	90                   	nop
    3ca2:	90                   	nop
    3ca3:	90                   	nop
    3ca4:	90                   	nop
    3ca5:	90                   	nop
    3ca6:	90                   	nop
    3ca7:	90                   	nop
    3ca8:	90                   	nop
    3ca9:	90                   	nop
    3caa:	90                   	nop
    3cab:	90                   	nop
    3cac:	90                   	nop
    3cad:	90                   	nop
    3cae:	90                   	nop
    3caf:	90                   	nop
    3cb0:	90                   	nop
    3cb1:	90                   	nop
    3cb2:	90                   	nop
    3cb3:	90                   	nop
    3cb4:	90                   	nop
    3cb5:	90                   	nop
    3cb6:	90                   	nop
    3cb7:	90                   	nop
    3cb8:	90                   	nop
    3cb9:	90                   	nop
    3cba:	90                   	nop
    3cbb:	90                   	nop
    3cbc:	90                   	nop
    3cbd:	90                   	nop
    3cbe:	90                   	nop
    3cbf:	90                   	nop
    3cc0:	90                   	nop
    3cc1:	90                   	nop
    3cc2:	90                   	nop
    3cc3:	90                   	nop
    3cc4:	90                   	nop
    3cc5:	90                   	nop
    3cc6:	90                   	nop
    3cc7:	90                   	nop
    3cc8:	90                   	nop
    3cc9:	90                   	nop
    3cca:	90                   	nop
    3ccb:	90                   	nop
    3ccc:	90                   	nop
    3ccd:	90                   	nop
    3cce:	90                   	nop
    3ccf:	90                   	nop
    3cd0:	90                   	nop
    3cd1:	90                   	nop
    3cd2:	90                   	nop
    3cd3:	90                   	nop
    3cd4:	90                   	nop
    3cd5:	90                   	nop
    3cd6:	90                   	nop
    3cd7:	90                   	nop
    3cd8:	90                   	nop
    3cd9:	90                   	nop
    3cda:	90                   	nop
    3cdb:	90                   	nop
    3cdc:	90                   	nop
    3cdd:	90                   	nop
    3cde:	90                   	nop
    3cdf:	90                   	nop
    3ce0:	90                   	nop
    3ce1:	90                   	nop
    3ce2:	90                   	nop
    3ce3:	90                   	nop
    3ce4:	90                   	nop
    3ce5:	90                   	nop
    3ce6:	90                   	nop
    3ce7:	90                   	nop
    3ce8:	90                   	nop
    3ce9:	90                   	nop
    3cea:	90                   	nop
    3ceb:	90                   	nop
    3cec:	90                   	nop
    3ced:	90                   	nop
    3cee:	90                   	nop
    3cef:	90                   	nop
    3cf0:	90                   	nop
    3cf1:	90                   	nop
    3cf2:	90                   	nop
    3cf3:	90                   	nop
    3cf4:	90                   	nop
    3cf5:	90                   	nop
    3cf6:	90                   	nop
    3cf7:	90                   	nop
    3cf8:	90                   	nop
    3cf9:	90                   	nop
    3cfa:	90                   	nop
    3cfb:	90                   	nop
    3cfc:	90                   	nop
    3cfd:	90                   	nop
    3cfe:	90                   	nop
    3cff:	90                   	nop
    3d00:	90                   	nop
    3d01:	90                   	nop
    3d02:	90                   	nop
    3d03:	90                   	nop
    3d04:	90                   	nop
    3d05:	90                   	nop
    3d06:	90                   	nop
    3d07:	90                   	nop
    3d08:	90                   	nop
    3d09:	90                   	nop
    3d0a:	90                   	nop
    3d0b:	90                   	nop
    3d0c:	90                   	nop
    3d0d:	90                   	nop
    3d0e:	90                   	nop
    3d0f:	90                   	nop
    3d10:	90                   	nop
    3d11:	90                   	nop
    3d12:	90                   	nop
    3d13:	90                   	nop
    3d14:	90                   	nop
    3d15:	90                   	nop
    3d16:	90                   	nop
    3d17:	90                   	nop
    3d18:	90                   	nop
    3d19:	90                   	nop
    3d1a:	90                   	nop
    3d1b:	90                   	nop
    3d1c:	90                   	nop
    3d1d:	90                   	nop
    3d1e:	90                   	nop
    3d1f:	90                   	nop
    3d20:	90                   	nop
    3d21:	90                   	nop
    3d22:	90                   	nop
    3d23:	90                   	nop
    3d24:	90                   	nop
    3d25:	90                   	nop
    3d26:	90                   	nop
    3d27:	90                   	nop
    3d28:	90                   	nop
    3d29:	90                   	nop
    3d2a:	90                   	nop
    3d2b:	90                   	nop
    3d2c:	90                   	nop
    3d2d:	90                   	nop
    3d2e:	90                   	nop
    3d2f:	90                   	nop
    3d30:	90                   	nop
    3d31:	90                   	nop
    3d32:	90                   	nop
    3d33:	90                   	nop
    3d34:	90                   	nop
    3d35:	90                   	nop
    3d36:	90                   	nop
    3d37:	90                   	nop
    3d38:	90                   	nop
    3d39:	90                   	nop
    3d3a:	90                   	nop
    3d3b:	90                   	nop
    3d3c:	90                   	nop
    3d3d:	90                   	nop
    3d3e:	90                   	nop
    3d3f:	90                   	nop
    3d40:	90                   	nop
    3d41:	90                   	nop
    3d42:	90                   	nop
    3d43:	90                   	nop
    3d44:	90                   	nop
    3d45:	90                   	nop
    3d46:	90                   	nop
    3d47:	90                   	nop
    3d48:	90                   	nop
    3d49:	90                   	nop
    3d4a:	90                   	nop
    3d4b:	90                   	nop
    3d4c:	90                   	nop
    3d4d:	90                   	nop
    3d4e:	90                   	nop
    3d4f:	90                   	nop
    3d50:	90                   	nop
    3d51:	90                   	nop
    3d52:	90                   	nop
    3d53:	90                   	nop
    3d54:	90                   	nop
    3d55:	90                   	nop
    3d56:	90                   	nop
    3d57:	90                   	nop
    3d58:	90                   	nop
    3d59:	90                   	nop
    3d5a:	90                   	nop
    3d5b:	90                   	nop
    3d5c:	90                   	nop
    3d5d:	90                   	nop
    3d5e:	90                   	nop
    3d5f:	90                   	nop
    3d60:	90                   	nop
    3d61:	90                   	nop
    3d62:	90                   	nop
    3d63:	90                   	nop
    3d64:	90                   	nop
    3d65:	90                   	nop
    3d66:	90                   	nop
    3d67:	90                   	nop
    3d68:	90                   	nop
    3d69:	90                   	nop
    3d6a:	90                   	nop
    3d6b:	90                   	nop
    3d6c:	90                   	nop
    3d6d:	90                   	nop
    3d6e:	90                   	nop
    3d6f:	90                   	nop
    3d70:	5b                   	pop    rbx
    3d71:	41 5e                	pop    r14
    3d73:	41 5f                	pop    r15
    3d75:	c3                   	ret
    3d76:	66 2e 0f 1f 84 00 00 	cs nop WORD PTR [rax+rax*1+0x0]
    3d7d:	00 00 00 

0000000000003d80 <__DualGate__4_1_27030>:
    3d80:	41 57                	push   r15
    3d82:	41 56                	push   r14
    3d84:	41 55                	push   r13
    3d86:	41 54                	push   r12
    3d88:	53                   	push   rbx
    3d89:	4c 89 cb             	mov    rbx,r9
    3d8c:	4d 89 c3             	mov    r11,r8
    3d8f:	49 89 c9             	mov    r9,rcx
    3d92:	49 89 d0             	mov    r8,rdx
    3d95:	4c 8b 6c 24 48       	mov    r13,QWORD PTR [rsp+0x48]
    3d9a:	4c 8b 64 24 40       	mov    r12,QWORD PTR [rsp+0x40]
